
Assignment2.elf:     file format elf32-littlearm

Sections:
Idx Name          Size      VMA       LMA       File off  Algn
  0 .isr_vector   00000188  08000000  08000000  00010000  2**0
                  CONTENTS, ALLOC, LOAD, READONLY, DATA
  1 .text         000082b4  08000190  08000190  00010190  2**4
                  CONTENTS, ALLOC, LOAD, READONLY, CODE
  2 .rodata       00000630  08008448  08008448  00018448  2**3
                  CONTENTS, ALLOC, LOAD, READONLY, DATA
  3 .ARM.extab    00000000  08008a78  08008a78  000202a4  2**0
                  CONTENTS
  4 .ARM          00000008  08008a78  08008a78  00018a78  2**2
                  CONTENTS, ALLOC, LOAD, READONLY, DATA
  5 .preinit_array 00000000  08008a80  08008a80  000202a4  2**0
                  CONTENTS, ALLOC, LOAD, DATA
  6 .init_array   00000004  08008a80  08008a80  00018a80  2**2
                  CONTENTS, ALLOC, LOAD, DATA
  7 .fini_array   00000004  08008a84  08008a84  00018a84  2**2
                  CONTENTS, ALLOC, LOAD, DATA
  8 .data         000002a4  20000000  08008a88  00020000  2**2
                  CONTENTS, ALLOC, LOAD, DATA
  9 .bss          000003bc  200002a4  08008d2c  000202a4  2**2
                  ALLOC
 10 ._user_heap_stack 00000600  20000660  08008d2c  00020660  2**0
                  ALLOC
 11 .ARM.attributes 00000030  00000000  00000000  000202a4  2**0
                  CONTENTS, READONLY
 12 .debug_info   0000ea24  00000000  00000000  000202d4  2**0
                  CONTENTS, READONLY, DEBUGGING, OCTETS
 13 .debug_abbrev 00002813  00000000  00000000  0002ecf8  2**0
                  CONTENTS, READONLY, DEBUGGING, OCTETS
 14 .debug_aranges 00000d70  00000000  00000000  00031510  2**3
                  CONTENTS, READONLY, DEBUGGING, OCTETS
 15 .debug_ranges 00000bf8  00000000  00000000  00032280  2**3
                  CONTENTS, READONLY, DEBUGGING, OCTETS
 16 .debug_macro  00029391  00000000  00000000  00032e78  2**0
                  CONTENTS, READONLY, DEBUGGING, OCTETS
 17 .debug_line   00011a1c  00000000  00000000  0005c209  2**0
                  CONTENTS, READONLY, DEBUGGING, OCTETS
 18 .debug_str    000f5f9e  00000000  00000000  0006dc25  2**0
                  CONTENTS, READONLY, DEBUGGING, OCTETS
 19 .comment      00000050  00000000  00000000  00163bc3  2**0
                  CONTENTS, READONLY
 20 .debug_frame  00004a40  00000000  00000000  00163c14  2**2
                  CONTENTS, READONLY, DEBUGGING, OCTETS
 21 .stab         00000024  00000000  00000000  00168654  2**2
                  CONTENTS, READONLY, DEBUGGING
 22 .stabstr      0000003c  00000000  00000000  00168678  2**0
                  CONTENTS, READONLY, DEBUGGING

Disassembly of section .text:

08000190 <__do_global_dtors_aux>:
 8000190:	b510      	push	{r4, lr}
 8000192:	4c05      	ldr	r4, [pc, #20]	; (80001a8 <__do_global_dtors_aux+0x18>)
 8000194:	7823      	ldrb	r3, [r4, #0]
 8000196:	b933      	cbnz	r3, 80001a6 <__do_global_dtors_aux+0x16>
 8000198:	4b04      	ldr	r3, [pc, #16]	; (80001ac <__do_global_dtors_aux+0x1c>)
 800019a:	b113      	cbz	r3, 80001a2 <__do_global_dtors_aux+0x12>
 800019c:	4804      	ldr	r0, [pc, #16]	; (80001b0 <__do_global_dtors_aux+0x20>)
 800019e:	f3af 8000 	nop.w
 80001a2:	2301      	movs	r3, #1
 80001a4:	7023      	strb	r3, [r4, #0]
 80001a6:	bd10      	pop	{r4, pc}
 80001a8:	200002a4 	.word	0x200002a4
 80001ac:	00000000 	.word	0x00000000
 80001b0:	0800842c 	.word	0x0800842c

080001b4 <frame_dummy>:
 80001b4:	b508      	push	{r3, lr}
 80001b6:	4b03      	ldr	r3, [pc, #12]	; (80001c4 <frame_dummy+0x10>)
 80001b8:	b11b      	cbz	r3, 80001c2 <frame_dummy+0xe>
 80001ba:	4903      	ldr	r1, [pc, #12]	; (80001c8 <frame_dummy+0x14>)
 80001bc:	4803      	ldr	r0, [pc, #12]	; (80001cc <frame_dummy+0x18>)
 80001be:	f3af 8000 	nop.w
 80001c2:	bd08      	pop	{r3, pc}
 80001c4:	00000000 	.word	0x00000000
 80001c8:	200002a8 	.word	0x200002a8
 80001cc:	0800842c 	.word	0x0800842c

080001d0 <strlen>:
 80001d0:	4603      	mov	r3, r0
 80001d2:	f813 2b01 	ldrb.w	r2, [r3], #1
 80001d6:	2a00      	cmp	r2, #0
 80001d8:	d1fb      	bne.n	80001d2 <strlen+0x2>
 80001da:	1a18      	subs	r0, r3, r0
 80001dc:	3801      	subs	r0, #1
 80001de:	4770      	bx	lr

080001e0 <memchr>:
 80001e0:	f001 01ff 	and.w	r1, r1, #255	; 0xff
 80001e4:	2a10      	cmp	r2, #16
 80001e6:	db2b      	blt.n	8000240 <memchr+0x60>
 80001e8:	f010 0f07 	tst.w	r0, #7
 80001ec:	d008      	beq.n	8000200 <memchr+0x20>
 80001ee:	f810 3b01 	ldrb.w	r3, [r0], #1
 80001f2:	3a01      	subs	r2, #1
 80001f4:	428b      	cmp	r3, r1
 80001f6:	d02d      	beq.n	8000254 <memchr+0x74>
 80001f8:	f010 0f07 	tst.w	r0, #7
 80001fc:	b342      	cbz	r2, 8000250 <memchr+0x70>
 80001fe:	d1f6      	bne.n	80001ee <memchr+0xe>
 8000200:	b4f0      	push	{r4, r5, r6, r7}
 8000202:	ea41 2101 	orr.w	r1, r1, r1, lsl #8
 8000206:	ea41 4101 	orr.w	r1, r1, r1, lsl #16
 800020a:	f022 0407 	bic.w	r4, r2, #7
 800020e:	f07f 0700 	mvns.w	r7, #0
 8000212:	2300      	movs	r3, #0
 8000214:	e8f0 5602 	ldrd	r5, r6, [r0], #8
 8000218:	3c08      	subs	r4, #8
 800021a:	ea85 0501 	eor.w	r5, r5, r1
 800021e:	ea86 0601 	eor.w	r6, r6, r1
 8000222:	fa85 f547 	uadd8	r5, r5, r7
 8000226:	faa3 f587 	sel	r5, r3, r7
 800022a:	fa86 f647 	uadd8	r6, r6, r7
 800022e:	faa5 f687 	sel	r6, r5, r7
 8000232:	b98e      	cbnz	r6, 8000258 <memchr+0x78>
 8000234:	d1ee      	bne.n	8000214 <memchr+0x34>
 8000236:	bcf0      	pop	{r4, r5, r6, r7}
 8000238:	f001 01ff 	and.w	r1, r1, #255	; 0xff
 800023c:	f002 0207 	and.w	r2, r2, #7
 8000240:	b132      	cbz	r2, 8000250 <memchr+0x70>
 8000242:	f810 3b01 	ldrb.w	r3, [r0], #1
 8000246:	3a01      	subs	r2, #1
 8000248:	ea83 0301 	eor.w	r3, r3, r1
 800024c:	b113      	cbz	r3, 8000254 <memchr+0x74>
 800024e:	d1f8      	bne.n	8000242 <memchr+0x62>
 8000250:	2000      	movs	r0, #0
 8000252:	4770      	bx	lr
 8000254:	3801      	subs	r0, #1
 8000256:	4770      	bx	lr
 8000258:	2d00      	cmp	r5, #0
 800025a:	bf06      	itte	eq
 800025c:	4635      	moveq	r5, r6
 800025e:	3803      	subeq	r0, #3
 8000260:	3807      	subne	r0, #7
 8000262:	f015 0f01 	tst.w	r5, #1
 8000266:	d107      	bne.n	8000278 <memchr+0x98>
 8000268:	3001      	adds	r0, #1
 800026a:	f415 7f80 	tst.w	r5, #256	; 0x100
 800026e:	bf02      	ittt	eq
 8000270:	3001      	addeq	r0, #1
 8000272:	f415 3fc0 	tsteq.w	r5, #98304	; 0x18000
 8000276:	3001      	addeq	r0, #1
 8000278:	bcf0      	pop	{r4, r5, r6, r7}
 800027a:	3801      	subs	r0, #1
 800027c:	4770      	bx	lr
 800027e:	bf00      	nop

08000280 <__aeabi_drsub>:
 8000280:	f081 4100 	eor.w	r1, r1, #2147483648	; 0x80000000
 8000284:	e002      	b.n	800028c <__adddf3>
 8000286:	bf00      	nop

08000288 <__aeabi_dsub>:
 8000288:	f083 4300 	eor.w	r3, r3, #2147483648	; 0x80000000

0800028c <__adddf3>:
 800028c:	b530      	push	{r4, r5, lr}
 800028e:	ea4f 0441 	mov.w	r4, r1, lsl #1
 8000292:	ea4f 0543 	mov.w	r5, r3, lsl #1
 8000296:	ea94 0f05 	teq	r4, r5
 800029a:	bf08      	it	eq
 800029c:	ea90 0f02 	teqeq	r0, r2
 80002a0:	bf1f      	itttt	ne
 80002a2:	ea54 0c00 	orrsne.w	ip, r4, r0
 80002a6:	ea55 0c02 	orrsne.w	ip, r5, r2
 80002aa:	ea7f 5c64 	mvnsne.w	ip, r4, asr #21
 80002ae:	ea7f 5c65 	mvnsne.w	ip, r5, asr #21
 80002b2:	f000 80e2 	beq.w	800047a <__adddf3+0x1ee>
 80002b6:	ea4f 5454 	mov.w	r4, r4, lsr #21
 80002ba:	ebd4 5555 	rsbs	r5, r4, r5, lsr #21
 80002be:	bfb8      	it	lt
 80002c0:	426d      	neglt	r5, r5
 80002c2:	dd0c      	ble.n	80002de <__adddf3+0x52>
 80002c4:	442c      	add	r4, r5
 80002c6:	ea80 0202 	eor.w	r2, r0, r2
 80002ca:	ea81 0303 	eor.w	r3, r1, r3
 80002ce:	ea82 0000 	eor.w	r0, r2, r0
 80002d2:	ea83 0101 	eor.w	r1, r3, r1
 80002d6:	ea80 0202 	eor.w	r2, r0, r2
 80002da:	ea81 0303 	eor.w	r3, r1, r3
 80002de:	2d36      	cmp	r5, #54	; 0x36
 80002e0:	bf88      	it	hi
 80002e2:	bd30      	pophi	{r4, r5, pc}
 80002e4:	f011 4f00 	tst.w	r1, #2147483648	; 0x80000000
 80002e8:	ea4f 3101 	mov.w	r1, r1, lsl #12
 80002ec:	f44f 1c80 	mov.w	ip, #1048576	; 0x100000
 80002f0:	ea4c 3111 	orr.w	r1, ip, r1, lsr #12
 80002f4:	d002      	beq.n	80002fc <__adddf3+0x70>
 80002f6:	4240      	negs	r0, r0
 80002f8:	eb61 0141 	sbc.w	r1, r1, r1, lsl #1
 80002fc:	f013 4f00 	tst.w	r3, #2147483648	; 0x80000000
 8000300:	ea4f 3303 	mov.w	r3, r3, lsl #12
 8000304:	ea4c 3313 	orr.w	r3, ip, r3, lsr #12
 8000308:	d002      	beq.n	8000310 <__adddf3+0x84>
 800030a:	4252      	negs	r2, r2
 800030c:	eb63 0343 	sbc.w	r3, r3, r3, lsl #1
 8000310:	ea94 0f05 	teq	r4, r5
 8000314:	f000 80a7 	beq.w	8000466 <__adddf3+0x1da>
 8000318:	f1a4 0401 	sub.w	r4, r4, #1
 800031c:	f1d5 0e20 	rsbs	lr, r5, #32
 8000320:	db0d      	blt.n	800033e <__adddf3+0xb2>
 8000322:	fa02 fc0e 	lsl.w	ip, r2, lr
 8000326:	fa22 f205 	lsr.w	r2, r2, r5
 800032a:	1880      	adds	r0, r0, r2
 800032c:	f141 0100 	adc.w	r1, r1, #0
 8000330:	fa03 f20e 	lsl.w	r2, r3, lr
 8000334:	1880      	adds	r0, r0, r2
 8000336:	fa43 f305 	asr.w	r3, r3, r5
 800033a:	4159      	adcs	r1, r3
 800033c:	e00e      	b.n	800035c <__adddf3+0xd0>
 800033e:	f1a5 0520 	sub.w	r5, r5, #32
 8000342:	f10e 0e20 	add.w	lr, lr, #32
 8000346:	2a01      	cmp	r2, #1
 8000348:	fa03 fc0e 	lsl.w	ip, r3, lr
 800034c:	bf28      	it	cs
 800034e:	f04c 0c02 	orrcs.w	ip, ip, #2
 8000352:	fa43 f305 	asr.w	r3, r3, r5
 8000356:	18c0      	adds	r0, r0, r3
 8000358:	eb51 71e3 	adcs.w	r1, r1, r3, asr #31
 800035c:	f001 4500 	and.w	r5, r1, #2147483648	; 0x80000000
 8000360:	d507      	bpl.n	8000372 <__adddf3+0xe6>
 8000362:	f04f 0e00 	mov.w	lr, #0
 8000366:	f1dc 0c00 	rsbs	ip, ip, #0
 800036a:	eb7e 0000 	sbcs.w	r0, lr, r0
 800036e:	eb6e 0101 	sbc.w	r1, lr, r1
 8000372:	f5b1 1f80 	cmp.w	r1, #1048576	; 0x100000
 8000376:	d31b      	bcc.n	80003b0 <__adddf3+0x124>
 8000378:	f5b1 1f00 	cmp.w	r1, #2097152	; 0x200000
 800037c:	d30c      	bcc.n	8000398 <__adddf3+0x10c>
 800037e:	0849      	lsrs	r1, r1, #1
 8000380:	ea5f 0030 	movs.w	r0, r0, rrx
 8000384:	ea4f 0c3c 	mov.w	ip, ip, rrx
 8000388:	f104 0401 	add.w	r4, r4, #1
 800038c:	ea4f 5244 	mov.w	r2, r4, lsl #21
 8000390:	f512 0f80 	cmn.w	r2, #4194304	; 0x400000
 8000394:	f080 809a 	bcs.w	80004cc <__adddf3+0x240>
 8000398:	f1bc 4f00 	cmp.w	ip, #2147483648	; 0x80000000
 800039c:	bf08      	it	eq
 800039e:	ea5f 0c50 	movseq.w	ip, r0, lsr #1
 80003a2:	f150 0000 	adcs.w	r0, r0, #0
 80003a6:	eb41 5104 	adc.w	r1, r1, r4, lsl #20
 80003aa:	ea41 0105 	orr.w	r1, r1, r5
 80003ae:	bd30      	pop	{r4, r5, pc}
 80003b0:	ea5f 0c4c 	movs.w	ip, ip, lsl #1
 80003b4:	4140      	adcs	r0, r0
 80003b6:	eb41 0101 	adc.w	r1, r1, r1
 80003ba:	3c01      	subs	r4, #1
 80003bc:	bf28      	it	cs
 80003be:	f5b1 1f80 	cmpcs.w	r1, #1048576	; 0x100000
 80003c2:	d2e9      	bcs.n	8000398 <__adddf3+0x10c>
 80003c4:	f091 0f00 	teq	r1, #0
 80003c8:	bf04      	itt	eq
 80003ca:	4601      	moveq	r1, r0
 80003cc:	2000      	moveq	r0, #0
 80003ce:	fab1 f381 	clz	r3, r1
 80003d2:	bf08      	it	eq
 80003d4:	3320      	addeq	r3, #32
 80003d6:	f1a3 030b 	sub.w	r3, r3, #11
 80003da:	f1b3 0220 	subs.w	r2, r3, #32
 80003de:	da0c      	bge.n	80003fa <__adddf3+0x16e>
 80003e0:	320c      	adds	r2, #12
 80003e2:	dd08      	ble.n	80003f6 <__adddf3+0x16a>
 80003e4:	f102 0c14 	add.w	ip, r2, #20
 80003e8:	f1c2 020c 	rsb	r2, r2, #12
 80003ec:	fa01 f00c 	lsl.w	r0, r1, ip
 80003f0:	fa21 f102 	lsr.w	r1, r1, r2
 80003f4:	e00c      	b.n	8000410 <__adddf3+0x184>
 80003f6:	f102 0214 	add.w	r2, r2, #20
 80003fa:	bfd8      	it	le
 80003fc:	f1c2 0c20 	rsble	ip, r2, #32
 8000400:	fa01 f102 	lsl.w	r1, r1, r2
 8000404:	fa20 fc0c 	lsr.w	ip, r0, ip
 8000408:	bfdc      	itt	le
 800040a:	ea41 010c 	orrle.w	r1, r1, ip
 800040e:	4090      	lslle	r0, r2
 8000410:	1ae4      	subs	r4, r4, r3
 8000412:	bfa2      	ittt	ge
 8000414:	eb01 5104 	addge.w	r1, r1, r4, lsl #20
 8000418:	4329      	orrge	r1, r5
 800041a:	bd30      	popge	{r4, r5, pc}
 800041c:	ea6f 0404 	mvn.w	r4, r4
 8000420:	3c1f      	subs	r4, #31
 8000422:	da1c      	bge.n	800045e <__adddf3+0x1d2>
 8000424:	340c      	adds	r4, #12
 8000426:	dc0e      	bgt.n	8000446 <__adddf3+0x1ba>
 8000428:	f104 0414 	add.w	r4, r4, #20
 800042c:	f1c4 0220 	rsb	r2, r4, #32
 8000430:	fa20 f004 	lsr.w	r0, r0, r4
 8000434:	fa01 f302 	lsl.w	r3, r1, r2
 8000438:	ea40 0003 	orr.w	r0, r0, r3
 800043c:	fa21 f304 	lsr.w	r3, r1, r4
 8000440:	ea45 0103 	orr.w	r1, r5, r3
 8000444:	bd30      	pop	{r4, r5, pc}
 8000446:	f1c4 040c 	rsb	r4, r4, #12
 800044a:	f1c4 0220 	rsb	r2, r4, #32
 800044e:	fa20 f002 	lsr.w	r0, r0, r2
 8000452:	fa01 f304 	lsl.w	r3, r1, r4
 8000456:	ea40 0003 	orr.w	r0, r0, r3
 800045a:	4629      	mov	r1, r5
 800045c:	bd30      	pop	{r4, r5, pc}
 800045e:	fa21 f004 	lsr.w	r0, r1, r4
 8000462:	4629      	mov	r1, r5
 8000464:	bd30      	pop	{r4, r5, pc}
 8000466:	f094 0f00 	teq	r4, #0
 800046a:	f483 1380 	eor.w	r3, r3, #1048576	; 0x100000
 800046e:	bf06      	itte	eq
 8000470:	f481 1180 	eoreq.w	r1, r1, #1048576	; 0x100000
 8000474:	3401      	addeq	r4, #1
 8000476:	3d01      	subne	r5, #1
 8000478:	e74e      	b.n	8000318 <__adddf3+0x8c>
 800047a:	ea7f 5c64 	mvns.w	ip, r4, asr #21
 800047e:	bf18      	it	ne
 8000480:	ea7f 5c65 	mvnsne.w	ip, r5, asr #21
 8000484:	d029      	beq.n	80004da <__adddf3+0x24e>
 8000486:	ea94 0f05 	teq	r4, r5
 800048a:	bf08      	it	eq
 800048c:	ea90 0f02 	teqeq	r0, r2
 8000490:	d005      	beq.n	800049e <__adddf3+0x212>
 8000492:	ea54 0c00 	orrs.w	ip, r4, r0
 8000496:	bf04      	itt	eq
 8000498:	4619      	moveq	r1, r3
 800049a:	4610      	moveq	r0, r2
 800049c:	bd30      	pop	{r4, r5, pc}
 800049e:	ea91 0f03 	teq	r1, r3
 80004a2:	bf1e      	ittt	ne
 80004a4:	2100      	movne	r1, #0
 80004a6:	2000      	movne	r0, #0
 80004a8:	bd30      	popne	{r4, r5, pc}
 80004aa:	ea5f 5c54 	movs.w	ip, r4, lsr #21
 80004ae:	d105      	bne.n	80004bc <__adddf3+0x230>
 80004b0:	0040      	lsls	r0, r0, #1
 80004b2:	4149      	adcs	r1, r1
 80004b4:	bf28      	it	cs
 80004b6:	f041 4100 	orrcs.w	r1, r1, #2147483648	; 0x80000000
 80004ba:	bd30      	pop	{r4, r5, pc}
 80004bc:	f514 0480 	adds.w	r4, r4, #4194304	; 0x400000
 80004c0:	bf3c      	itt	cc
 80004c2:	f501 1180 	addcc.w	r1, r1, #1048576	; 0x100000
 80004c6:	bd30      	popcc	{r4, r5, pc}
 80004c8:	f001 4500 	and.w	r5, r1, #2147483648	; 0x80000000
 80004cc:	f045 41fe 	orr.w	r1, r5, #2130706432	; 0x7f000000
 80004d0:	f441 0170 	orr.w	r1, r1, #15728640	; 0xf00000
 80004d4:	f04f 0000 	mov.w	r0, #0
 80004d8:	bd30      	pop	{r4, r5, pc}
 80004da:	ea7f 5c64 	mvns.w	ip, r4, asr #21
 80004de:	bf1a      	itte	ne
 80004e0:	4619      	movne	r1, r3
 80004e2:	4610      	movne	r0, r2
 80004e4:	ea7f 5c65 	mvnseq.w	ip, r5, asr #21
 80004e8:	bf1c      	itt	ne
 80004ea:	460b      	movne	r3, r1
 80004ec:	4602      	movne	r2, r0
 80004ee:	ea50 3401 	orrs.w	r4, r0, r1, lsl #12
 80004f2:	bf06      	itte	eq
 80004f4:	ea52 3503 	orrseq.w	r5, r2, r3, lsl #12
 80004f8:	ea91 0f03 	teqeq	r1, r3
 80004fc:	f441 2100 	orrne.w	r1, r1, #524288	; 0x80000
 8000500:	bd30      	pop	{r4, r5, pc}
 8000502:	bf00      	nop

08000504 <__aeabi_ui2d>:
 8000504:	f090 0f00 	teq	r0, #0
 8000508:	bf04      	itt	eq
 800050a:	2100      	moveq	r1, #0
 800050c:	4770      	bxeq	lr
 800050e:	b530      	push	{r4, r5, lr}
 8000510:	f44f 6480 	mov.w	r4, #1024	; 0x400
 8000514:	f104 0432 	add.w	r4, r4, #50	; 0x32
 8000518:	f04f 0500 	mov.w	r5, #0
 800051c:	f04f 0100 	mov.w	r1, #0
 8000520:	e750      	b.n	80003c4 <__adddf3+0x138>
 8000522:	bf00      	nop

08000524 <__aeabi_i2d>:
 8000524:	f090 0f00 	teq	r0, #0
 8000528:	bf04      	itt	eq
 800052a:	2100      	moveq	r1, #0
 800052c:	4770      	bxeq	lr
 800052e:	b530      	push	{r4, r5, lr}
 8000530:	f44f 6480 	mov.w	r4, #1024	; 0x400
 8000534:	f104 0432 	add.w	r4, r4, #50	; 0x32
 8000538:	f010 4500 	ands.w	r5, r0, #2147483648	; 0x80000000
 800053c:	bf48      	it	mi
 800053e:	4240      	negmi	r0, r0
 8000540:	f04f 0100 	mov.w	r1, #0
 8000544:	e73e      	b.n	80003c4 <__adddf3+0x138>
 8000546:	bf00      	nop

08000548 <__aeabi_f2d>:
 8000548:	0042      	lsls	r2, r0, #1
 800054a:	ea4f 01e2 	mov.w	r1, r2, asr #3
 800054e:	ea4f 0131 	mov.w	r1, r1, rrx
 8000552:	ea4f 7002 	mov.w	r0, r2, lsl #28
 8000556:	bf1f      	itttt	ne
 8000558:	f012 437f 	andsne.w	r3, r2, #4278190080	; 0xff000000
 800055c:	f093 4f7f 	teqne	r3, #4278190080	; 0xff000000
 8000560:	f081 5160 	eorne.w	r1, r1, #939524096	; 0x38000000
 8000564:	4770      	bxne	lr
 8000566:	f032 427f 	bics.w	r2, r2, #4278190080	; 0xff000000
 800056a:	bf08      	it	eq
 800056c:	4770      	bxeq	lr
 800056e:	f093 4f7f 	teq	r3, #4278190080	; 0xff000000
 8000572:	bf04      	itt	eq
 8000574:	f441 2100 	orreq.w	r1, r1, #524288	; 0x80000
 8000578:	4770      	bxeq	lr
 800057a:	b530      	push	{r4, r5, lr}
 800057c:	f44f 7460 	mov.w	r4, #896	; 0x380
 8000580:	f001 4500 	and.w	r5, r1, #2147483648	; 0x80000000
 8000584:	f021 4100 	bic.w	r1, r1, #2147483648	; 0x80000000
 8000588:	e71c      	b.n	80003c4 <__adddf3+0x138>
 800058a:	bf00      	nop

0800058c <__aeabi_ul2d>:
 800058c:	ea50 0201 	orrs.w	r2, r0, r1
 8000590:	bf08      	it	eq
 8000592:	4770      	bxeq	lr
 8000594:	b530      	push	{r4, r5, lr}
 8000596:	f04f 0500 	mov.w	r5, #0
 800059a:	e00a      	b.n	80005b2 <__aeabi_l2d+0x16>

0800059c <__aeabi_l2d>:
 800059c:	ea50 0201 	orrs.w	r2, r0, r1
 80005a0:	bf08      	it	eq
 80005a2:	4770      	bxeq	lr
 80005a4:	b530      	push	{r4, r5, lr}
 80005a6:	f011 4500 	ands.w	r5, r1, #2147483648	; 0x80000000
 80005aa:	d502      	bpl.n	80005b2 <__aeabi_l2d+0x16>
 80005ac:	4240      	negs	r0, r0
 80005ae:	eb61 0141 	sbc.w	r1, r1, r1, lsl #1
 80005b2:	f44f 6480 	mov.w	r4, #1024	; 0x400
 80005b6:	f104 0432 	add.w	r4, r4, #50	; 0x32
 80005ba:	ea5f 5c91 	movs.w	ip, r1, lsr #22
 80005be:	f43f aed8 	beq.w	8000372 <__adddf3+0xe6>
 80005c2:	f04f 0203 	mov.w	r2, #3
 80005c6:	ea5f 0cdc 	movs.w	ip, ip, lsr #3
 80005ca:	bf18      	it	ne
 80005cc:	3203      	addne	r2, #3
 80005ce:	ea5f 0cdc 	movs.w	ip, ip, lsr #3
 80005d2:	bf18      	it	ne
 80005d4:	3203      	addne	r2, #3
 80005d6:	eb02 02dc 	add.w	r2, r2, ip, lsr #3
 80005da:	f1c2 0320 	rsb	r3, r2, #32
 80005de:	fa00 fc03 	lsl.w	ip, r0, r3
 80005e2:	fa20 f002 	lsr.w	r0, r0, r2
 80005e6:	fa01 fe03 	lsl.w	lr, r1, r3
 80005ea:	ea40 000e 	orr.w	r0, r0, lr
 80005ee:	fa21 f102 	lsr.w	r1, r1, r2
 80005f2:	4414      	add	r4, r2
 80005f4:	e6bd      	b.n	8000372 <__adddf3+0xe6>
 80005f6:	bf00      	nop

080005f8 <__aeabi_dmul>:
 80005f8:	b570      	push	{r4, r5, r6, lr}
 80005fa:	f04f 0cff 	mov.w	ip, #255	; 0xff
 80005fe:	f44c 6ce0 	orr.w	ip, ip, #1792	; 0x700
 8000602:	ea1c 5411 	ands.w	r4, ip, r1, lsr #20
 8000606:	bf1d      	ittte	ne
 8000608:	ea1c 5513 	andsne.w	r5, ip, r3, lsr #20
 800060c:	ea94 0f0c 	teqne	r4, ip
 8000610:	ea95 0f0c 	teqne	r5, ip
 8000614:	f000 f8de 	bleq	80007d4 <__aeabi_dmul+0x1dc>
 8000618:	442c      	add	r4, r5
 800061a:	ea81 0603 	eor.w	r6, r1, r3
 800061e:	ea21 514c 	bic.w	r1, r1, ip, lsl #21
 8000622:	ea23 534c 	bic.w	r3, r3, ip, lsl #21
 8000626:	ea50 3501 	orrs.w	r5, r0, r1, lsl #12
 800062a:	bf18      	it	ne
 800062c:	ea52 3503 	orrsne.w	r5, r2, r3, lsl #12
 8000630:	f441 1180 	orr.w	r1, r1, #1048576	; 0x100000
 8000634:	f443 1380 	orr.w	r3, r3, #1048576	; 0x100000
 8000638:	d038      	beq.n	80006ac <__aeabi_dmul+0xb4>
 800063a:	fba0 ce02 	umull	ip, lr, r0, r2
 800063e:	f04f 0500 	mov.w	r5, #0
 8000642:	fbe1 e502 	umlal	lr, r5, r1, r2
 8000646:	f006 4200 	and.w	r2, r6, #2147483648	; 0x80000000
 800064a:	fbe0 e503 	umlal	lr, r5, r0, r3
 800064e:	f04f 0600 	mov.w	r6, #0
 8000652:	fbe1 5603 	umlal	r5, r6, r1, r3
 8000656:	f09c 0f00 	teq	ip, #0
 800065a:	bf18      	it	ne
 800065c:	f04e 0e01 	orrne.w	lr, lr, #1
 8000660:	f1a4 04ff 	sub.w	r4, r4, #255	; 0xff
 8000664:	f5b6 7f00 	cmp.w	r6, #512	; 0x200
 8000668:	f564 7440 	sbc.w	r4, r4, #768	; 0x300
 800066c:	d204      	bcs.n	8000678 <__aeabi_dmul+0x80>
 800066e:	ea5f 0e4e 	movs.w	lr, lr, lsl #1
 8000672:	416d      	adcs	r5, r5
 8000674:	eb46 0606 	adc.w	r6, r6, r6
 8000678:	ea42 21c6 	orr.w	r1, r2, r6, lsl #11
 800067c:	ea41 5155 	orr.w	r1, r1, r5, lsr #21
 8000680:	ea4f 20c5 	mov.w	r0, r5, lsl #11
 8000684:	ea40 505e 	orr.w	r0, r0, lr, lsr #21
 8000688:	ea4f 2ece 	mov.w	lr, lr, lsl #11
 800068c:	f1b4 0cfd 	subs.w	ip, r4, #253	; 0xfd
 8000690:	bf88      	it	hi
 8000692:	f5bc 6fe0 	cmphi.w	ip, #1792	; 0x700
 8000696:	d81e      	bhi.n	80006d6 <__aeabi_dmul+0xde>
 8000698:	f1be 4f00 	cmp.w	lr, #2147483648	; 0x80000000
 800069c:	bf08      	it	eq
 800069e:	ea5f 0e50 	movseq.w	lr, r0, lsr #1
 80006a2:	f150 0000 	adcs.w	r0, r0, #0
 80006a6:	eb41 5104 	adc.w	r1, r1, r4, lsl #20
 80006aa:	bd70      	pop	{r4, r5, r6, pc}
 80006ac:	f006 4600 	and.w	r6, r6, #2147483648	; 0x80000000
 80006b0:	ea46 0101 	orr.w	r1, r6, r1
 80006b4:	ea40 0002 	orr.w	r0, r0, r2
 80006b8:	ea81 0103 	eor.w	r1, r1, r3
 80006bc:	ebb4 045c 	subs.w	r4, r4, ip, lsr #1
 80006c0:	bfc2      	ittt	gt
 80006c2:	ebd4 050c 	rsbsgt	r5, r4, ip
 80006c6:	ea41 5104 	orrgt.w	r1, r1, r4, lsl #20
 80006ca:	bd70      	popgt	{r4, r5, r6, pc}
 80006cc:	f441 1180 	orr.w	r1, r1, #1048576	; 0x100000
 80006d0:	f04f 0e00 	mov.w	lr, #0
 80006d4:	3c01      	subs	r4, #1
 80006d6:	f300 80ab 	bgt.w	8000830 <__aeabi_dmul+0x238>
 80006da:	f114 0f36 	cmn.w	r4, #54	; 0x36
 80006de:	bfde      	ittt	le
 80006e0:	2000      	movle	r0, #0
 80006e2:	f001 4100 	andle.w	r1, r1, #2147483648	; 0x80000000
 80006e6:	bd70      	pople	{r4, r5, r6, pc}
 80006e8:	f1c4 0400 	rsb	r4, r4, #0
 80006ec:	3c20      	subs	r4, #32
 80006ee:	da35      	bge.n	800075c <__aeabi_dmul+0x164>
 80006f0:	340c      	adds	r4, #12
 80006f2:	dc1b      	bgt.n	800072c <__aeabi_dmul+0x134>
 80006f4:	f104 0414 	add.w	r4, r4, #20
 80006f8:	f1c4 0520 	rsb	r5, r4, #32
 80006fc:	fa00 f305 	lsl.w	r3, r0, r5
 8000700:	fa20 f004 	lsr.w	r0, r0, r4
 8000704:	fa01 f205 	lsl.w	r2, r1, r5
 8000708:	ea40 0002 	orr.w	r0, r0, r2
 800070c:	f001 4200 	and.w	r2, r1, #2147483648	; 0x80000000
 8000710:	f021 4100 	bic.w	r1, r1, #2147483648	; 0x80000000
 8000714:	eb10 70d3 	adds.w	r0, r0, r3, lsr #31
 8000718:	fa21 f604 	lsr.w	r6, r1, r4
 800071c:	eb42 0106 	adc.w	r1, r2, r6
 8000720:	ea5e 0e43 	orrs.w	lr, lr, r3, lsl #1
 8000724:	bf08      	it	eq
 8000726:	ea20 70d3 	biceq.w	r0, r0, r3, lsr #31
 800072a:	bd70      	pop	{r4, r5, r6, pc}
 800072c:	f1c4 040c 	rsb	r4, r4, #12
 8000730:	f1c4 0520 	rsb	r5, r4, #32
 8000734:	fa00 f304 	lsl.w	r3, r0, r4
 8000738:	fa20 f005 	lsr.w	r0, r0, r5
 800073c:	fa01 f204 	lsl.w	r2, r1, r4
 8000740:	ea40 0002 	orr.w	r0, r0, r2
 8000744:	f001 4100 	and.w	r1, r1, #2147483648	; 0x80000000
 8000748:	eb10 70d3 	adds.w	r0, r0, r3, lsr #31
 800074c:	f141 0100 	adc.w	r1, r1, #0
 8000750:	ea5e 0e43 	orrs.w	lr, lr, r3, lsl #1
 8000754:	bf08      	it	eq
 8000756:	ea20 70d3 	biceq.w	r0, r0, r3, lsr #31
 800075a:	bd70      	pop	{r4, r5, r6, pc}
 800075c:	f1c4 0520 	rsb	r5, r4, #32
 8000760:	fa00 f205 	lsl.w	r2, r0, r5
 8000764:	ea4e 0e02 	orr.w	lr, lr, r2
 8000768:	fa20 f304 	lsr.w	r3, r0, r4
 800076c:	fa01 f205 	lsl.w	r2, r1, r5
 8000770:	ea43 0302 	orr.w	r3, r3, r2
 8000774:	fa21 f004 	lsr.w	r0, r1, r4
 8000778:	f001 4100 	and.w	r1, r1, #2147483648	; 0x80000000
 800077c:	fa21 f204 	lsr.w	r2, r1, r4
 8000780:	ea20 0002 	bic.w	r0, r0, r2
 8000784:	eb00 70d3 	add.w	r0, r0, r3, lsr #31
 8000788:	ea5e 0e43 	orrs.w	lr, lr, r3, lsl #1
 800078c:	bf08      	it	eq
 800078e:	ea20 70d3 	biceq.w	r0, r0, r3, lsr #31
 8000792:	bd70      	pop	{r4, r5, r6, pc}
 8000794:	f094 0f00 	teq	r4, #0
 8000798:	d10f      	bne.n	80007ba <__aeabi_dmul+0x1c2>
 800079a:	f001 4600 	and.w	r6, r1, #2147483648	; 0x80000000
 800079e:	0040      	lsls	r0, r0, #1
 80007a0:	eb41 0101 	adc.w	r1, r1, r1
 80007a4:	f411 1f80 	tst.w	r1, #1048576	; 0x100000
 80007a8:	bf08      	it	eq
 80007aa:	3c01      	subeq	r4, #1
 80007ac:	d0f7      	beq.n	800079e <__aeabi_dmul+0x1a6>
 80007ae:	ea41 0106 	orr.w	r1, r1, r6
 80007b2:	f095 0f00 	teq	r5, #0
 80007b6:	bf18      	it	ne
 80007b8:	4770      	bxne	lr
 80007ba:	f003 4600 	and.w	r6, r3, #2147483648	; 0x80000000
 80007be:	0052      	lsls	r2, r2, #1
 80007c0:	eb43 0303 	adc.w	r3, r3, r3
 80007c4:	f413 1f80 	tst.w	r3, #1048576	; 0x100000
 80007c8:	bf08      	it	eq
 80007ca:	3d01      	subeq	r5, #1
 80007cc:	d0f7      	beq.n	80007be <__aeabi_dmul+0x1c6>
 80007ce:	ea43 0306 	orr.w	r3, r3, r6
 80007d2:	4770      	bx	lr
 80007d4:	ea94 0f0c 	teq	r4, ip
 80007d8:	ea0c 5513 	and.w	r5, ip, r3, lsr #20
 80007dc:	bf18      	it	ne
 80007de:	ea95 0f0c 	teqne	r5, ip
 80007e2:	d00c      	beq.n	80007fe <__aeabi_dmul+0x206>
 80007e4:	ea50 0641 	orrs.w	r6, r0, r1, lsl #1
 80007e8:	bf18      	it	ne
 80007ea:	ea52 0643 	orrsne.w	r6, r2, r3, lsl #1
 80007ee:	d1d1      	bne.n	8000794 <__aeabi_dmul+0x19c>
 80007f0:	ea81 0103 	eor.w	r1, r1, r3
 80007f4:	f001 4100 	and.w	r1, r1, #2147483648	; 0x80000000
 80007f8:	f04f 0000 	mov.w	r0, #0
 80007fc:	bd70      	pop	{r4, r5, r6, pc}
 80007fe:	ea50 0641 	orrs.w	r6, r0, r1, lsl #1
 8000802:	bf06      	itte	eq
 8000804:	4610      	moveq	r0, r2
 8000806:	4619      	moveq	r1, r3
 8000808:	ea52 0643 	orrsne.w	r6, r2, r3, lsl #1
 800080c:	d019      	beq.n	8000842 <__aeabi_dmul+0x24a>
 800080e:	ea94 0f0c 	teq	r4, ip
 8000812:	d102      	bne.n	800081a <__aeabi_dmul+0x222>
 8000814:	ea50 3601 	orrs.w	r6, r0, r1, lsl #12
 8000818:	d113      	bne.n	8000842 <__aeabi_dmul+0x24a>
 800081a:	ea95 0f0c 	teq	r5, ip
 800081e:	d105      	bne.n	800082c <__aeabi_dmul+0x234>
 8000820:	ea52 3603 	orrs.w	r6, r2, r3, lsl #12
 8000824:	bf1c      	itt	ne
 8000826:	4610      	movne	r0, r2
 8000828:	4619      	movne	r1, r3
 800082a:	d10a      	bne.n	8000842 <__aeabi_dmul+0x24a>
 800082c:	ea81 0103 	eor.w	r1, r1, r3
 8000830:	f001 4100 	and.w	r1, r1, #2147483648	; 0x80000000
 8000834:	f041 41fe 	orr.w	r1, r1, #2130706432	; 0x7f000000
 8000838:	f441 0170 	orr.w	r1, r1, #15728640	; 0xf00000
 800083c:	f04f 0000 	mov.w	r0, #0
 8000840:	bd70      	pop	{r4, r5, r6, pc}
 8000842:	f041 41fe 	orr.w	r1, r1, #2130706432	; 0x7f000000
 8000846:	f441 0178 	orr.w	r1, r1, #16252928	; 0xf80000
 800084a:	bd70      	pop	{r4, r5, r6, pc}

0800084c <__aeabi_ddiv>:
 800084c:	b570      	push	{r4, r5, r6, lr}
 800084e:	f04f 0cff 	mov.w	ip, #255	; 0xff
 8000852:	f44c 6ce0 	orr.w	ip, ip, #1792	; 0x700
 8000856:	ea1c 5411 	ands.w	r4, ip, r1, lsr #20
 800085a:	bf1d      	ittte	ne
 800085c:	ea1c 5513 	andsne.w	r5, ip, r3, lsr #20
 8000860:	ea94 0f0c 	teqne	r4, ip
 8000864:	ea95 0f0c 	teqne	r5, ip
 8000868:	f000 f8a7 	bleq	80009ba <__aeabi_ddiv+0x16e>
 800086c:	eba4 0405 	sub.w	r4, r4, r5
 8000870:	ea81 0e03 	eor.w	lr, r1, r3
 8000874:	ea52 3503 	orrs.w	r5, r2, r3, lsl #12
 8000878:	ea4f 3101 	mov.w	r1, r1, lsl #12
 800087c:	f000 8088 	beq.w	8000990 <__aeabi_ddiv+0x144>
 8000880:	ea4f 3303 	mov.w	r3, r3, lsl #12
 8000884:	f04f 5580 	mov.w	r5, #268435456	; 0x10000000
 8000888:	ea45 1313 	orr.w	r3, r5, r3, lsr #4
 800088c:	ea43 6312 	orr.w	r3, r3, r2, lsr #24
 8000890:	ea4f 2202 	mov.w	r2, r2, lsl #8
 8000894:	ea45 1511 	orr.w	r5, r5, r1, lsr #4
 8000898:	ea45 6510 	orr.w	r5, r5, r0, lsr #24
 800089c:	ea4f 2600 	mov.w	r6, r0, lsl #8
 80008a0:	f00e 4100 	and.w	r1, lr, #2147483648	; 0x80000000
 80008a4:	429d      	cmp	r5, r3
 80008a6:	bf08      	it	eq
 80008a8:	4296      	cmpeq	r6, r2
 80008aa:	f144 04fd 	adc.w	r4, r4, #253	; 0xfd
 80008ae:	f504 7440 	add.w	r4, r4, #768	; 0x300
 80008b2:	d202      	bcs.n	80008ba <__aeabi_ddiv+0x6e>
 80008b4:	085b      	lsrs	r3, r3, #1
 80008b6:	ea4f 0232 	mov.w	r2, r2, rrx
 80008ba:	1ab6      	subs	r6, r6, r2
 80008bc:	eb65 0503 	sbc.w	r5, r5, r3
 80008c0:	085b      	lsrs	r3, r3, #1
 80008c2:	ea4f 0232 	mov.w	r2, r2, rrx
 80008c6:	f44f 1080 	mov.w	r0, #1048576	; 0x100000
 80008ca:	f44f 2c00 	mov.w	ip, #524288	; 0x80000
 80008ce:	ebb6 0e02 	subs.w	lr, r6, r2
 80008d2:	eb75 0e03 	sbcs.w	lr, r5, r3
 80008d6:	bf22      	ittt	cs
 80008d8:	1ab6      	subcs	r6, r6, r2
 80008da:	4675      	movcs	r5, lr
 80008dc:	ea40 000c 	orrcs.w	r0, r0, ip
 80008e0:	085b      	lsrs	r3, r3, #1
 80008e2:	ea4f 0232 	mov.w	r2, r2, rrx
 80008e6:	ebb6 0e02 	subs.w	lr, r6, r2
 80008ea:	eb75 0e03 	sbcs.w	lr, r5, r3
 80008ee:	bf22      	ittt	cs
 80008f0:	1ab6      	subcs	r6, r6, r2
 80008f2:	4675      	movcs	r5, lr
 80008f4:	ea40 005c 	orrcs.w	r0, r0, ip, lsr #1
 80008f8:	085b      	lsrs	r3, r3, #1
 80008fa:	ea4f 0232 	mov.w	r2, r2, rrx
 80008fe:	ebb6 0e02 	subs.w	lr, r6, r2
 8000902:	eb75 0e03 	sbcs.w	lr, r5, r3
 8000906:	bf22      	ittt	cs
 8000908:	1ab6      	subcs	r6, r6, r2
 800090a:	4675      	movcs	r5, lr
 800090c:	ea40 009c 	orrcs.w	r0, r0, ip, lsr #2
 8000910:	085b      	lsrs	r3, r3, #1
 8000912:	ea4f 0232 	mov.w	r2, r2, rrx
 8000916:	ebb6 0e02 	subs.w	lr, r6, r2
 800091a:	eb75 0e03 	sbcs.w	lr, r5, r3
 800091e:	bf22      	ittt	cs
 8000920:	1ab6      	subcs	r6, r6, r2
 8000922:	4675      	movcs	r5, lr
 8000924:	ea40 00dc 	orrcs.w	r0, r0, ip, lsr #3
 8000928:	ea55 0e06 	orrs.w	lr, r5, r6
 800092c:	d018      	beq.n	8000960 <__aeabi_ddiv+0x114>
 800092e:	ea4f 1505 	mov.w	r5, r5, lsl #4
 8000932:	ea45 7516 	orr.w	r5, r5, r6, lsr #28
 8000936:	ea4f 1606 	mov.w	r6, r6, lsl #4
 800093a:	ea4f 03c3 	mov.w	r3, r3, lsl #3
 800093e:	ea43 7352 	orr.w	r3, r3, r2, lsr #29
 8000942:	ea4f 02c2 	mov.w	r2, r2, lsl #3
 8000946:	ea5f 1c1c 	movs.w	ip, ip, lsr #4
 800094a:	d1c0      	bne.n	80008ce <__aeabi_ddiv+0x82>
 800094c:	f411 1f80 	tst.w	r1, #1048576	; 0x100000
 8000950:	d10b      	bne.n	800096a <__aeabi_ddiv+0x11e>
 8000952:	ea41 0100 	orr.w	r1, r1, r0
 8000956:	f04f 0000 	mov.w	r0, #0
 800095a:	f04f 4c00 	mov.w	ip, #2147483648	; 0x80000000
 800095e:	e7b6      	b.n	80008ce <__aeabi_ddiv+0x82>
 8000960:	f411 1f80 	tst.w	r1, #1048576	; 0x100000
 8000964:	bf04      	itt	eq
 8000966:	4301      	orreq	r1, r0
 8000968:	2000      	moveq	r0, #0
 800096a:	f1b4 0cfd 	subs.w	ip, r4, #253	; 0xfd
 800096e:	bf88      	it	hi
 8000970:	f5bc 6fe0 	cmphi.w	ip, #1792	; 0x700
 8000974:	f63f aeaf 	bhi.w	80006d6 <__aeabi_dmul+0xde>
 8000978:	ebb5 0c03 	subs.w	ip, r5, r3
 800097c:	bf04      	itt	eq
 800097e:	ebb6 0c02 	subseq.w	ip, r6, r2
 8000982:	ea5f 0c50 	movseq.w	ip, r0, lsr #1
 8000986:	f150 0000 	adcs.w	r0, r0, #0
 800098a:	eb41 5104 	adc.w	r1, r1, r4, lsl #20
 800098e:	bd70      	pop	{r4, r5, r6, pc}
 8000990:	f00e 4e00 	and.w	lr, lr, #2147483648	; 0x80000000
 8000994:	ea4e 3111 	orr.w	r1, lr, r1, lsr #12
 8000998:	eb14 045c 	adds.w	r4, r4, ip, lsr #1
 800099c:	bfc2      	ittt	gt
 800099e:	ebd4 050c 	rsbsgt	r5, r4, ip
 80009a2:	ea41 5104 	orrgt.w	r1, r1, r4, lsl #20
 80009a6:	bd70      	popgt	{r4, r5, r6, pc}
 80009a8:	f441 1180 	orr.w	r1, r1, #1048576	; 0x100000
 80009ac:	f04f 0e00 	mov.w	lr, #0
 80009b0:	3c01      	subs	r4, #1
 80009b2:	e690      	b.n	80006d6 <__aeabi_dmul+0xde>
 80009b4:	ea45 0e06 	orr.w	lr, r5, r6
 80009b8:	e68d      	b.n	80006d6 <__aeabi_dmul+0xde>
 80009ba:	ea0c 5513 	and.w	r5, ip, r3, lsr #20
 80009be:	ea94 0f0c 	teq	r4, ip
 80009c2:	bf08      	it	eq
 80009c4:	ea95 0f0c 	teqeq	r5, ip
 80009c8:	f43f af3b 	beq.w	8000842 <__aeabi_dmul+0x24a>
 80009cc:	ea94 0f0c 	teq	r4, ip
 80009d0:	d10a      	bne.n	80009e8 <__aeabi_ddiv+0x19c>
 80009d2:	ea50 3401 	orrs.w	r4, r0, r1, lsl #12
 80009d6:	f47f af34 	bne.w	8000842 <__aeabi_dmul+0x24a>
 80009da:	ea95 0f0c 	teq	r5, ip
 80009de:	f47f af25 	bne.w	800082c <__aeabi_dmul+0x234>
 80009e2:	4610      	mov	r0, r2
 80009e4:	4619      	mov	r1, r3
 80009e6:	e72c      	b.n	8000842 <__aeabi_dmul+0x24a>
 80009e8:	ea95 0f0c 	teq	r5, ip
 80009ec:	d106      	bne.n	80009fc <__aeabi_ddiv+0x1b0>
 80009ee:	ea52 3503 	orrs.w	r5, r2, r3, lsl #12
 80009f2:	f43f aefd 	beq.w	80007f0 <__aeabi_dmul+0x1f8>
 80009f6:	4610      	mov	r0, r2
 80009f8:	4619      	mov	r1, r3
 80009fa:	e722      	b.n	8000842 <__aeabi_dmul+0x24a>
 80009fc:	ea50 0641 	orrs.w	r6, r0, r1, lsl #1
 8000a00:	bf18      	it	ne
 8000a02:	ea52 0643 	orrsne.w	r6, r2, r3, lsl #1
 8000a06:	f47f aec5 	bne.w	8000794 <__aeabi_dmul+0x19c>
 8000a0a:	ea50 0441 	orrs.w	r4, r0, r1, lsl #1
 8000a0e:	f47f af0d 	bne.w	800082c <__aeabi_dmul+0x234>
 8000a12:	ea52 0543 	orrs.w	r5, r2, r3, lsl #1
 8000a16:	f47f aeeb 	bne.w	80007f0 <__aeabi_dmul+0x1f8>
 8000a1a:	e712      	b.n	8000842 <__aeabi_dmul+0x24a>

08000a1c <__gedf2>:
 8000a1c:	f04f 3cff 	mov.w	ip, #4294967295
 8000a20:	e006      	b.n	8000a30 <__cmpdf2+0x4>
 8000a22:	bf00      	nop

08000a24 <__ledf2>:
 8000a24:	f04f 0c01 	mov.w	ip, #1
 8000a28:	e002      	b.n	8000a30 <__cmpdf2+0x4>
 8000a2a:	bf00      	nop

08000a2c <__cmpdf2>:
 8000a2c:	f04f 0c01 	mov.w	ip, #1
 8000a30:	f84d cd04 	str.w	ip, [sp, #-4]!
 8000a34:	ea4f 0c41 	mov.w	ip, r1, lsl #1
 8000a38:	ea7f 5c6c 	mvns.w	ip, ip, asr #21
 8000a3c:	ea4f 0c43 	mov.w	ip, r3, lsl #1
 8000a40:	bf18      	it	ne
 8000a42:	ea7f 5c6c 	mvnsne.w	ip, ip, asr #21
 8000a46:	d01b      	beq.n	8000a80 <__cmpdf2+0x54>
 8000a48:	b001      	add	sp, #4
 8000a4a:	ea50 0c41 	orrs.w	ip, r0, r1, lsl #1
 8000a4e:	bf0c      	ite	eq
 8000a50:	ea52 0c43 	orrseq.w	ip, r2, r3, lsl #1
 8000a54:	ea91 0f03 	teqne	r1, r3
 8000a58:	bf02      	ittt	eq
 8000a5a:	ea90 0f02 	teqeq	r0, r2
 8000a5e:	2000      	moveq	r0, #0
 8000a60:	4770      	bxeq	lr
 8000a62:	f110 0f00 	cmn.w	r0, #0
 8000a66:	ea91 0f03 	teq	r1, r3
 8000a6a:	bf58      	it	pl
 8000a6c:	4299      	cmppl	r1, r3
 8000a6e:	bf08      	it	eq
 8000a70:	4290      	cmpeq	r0, r2
 8000a72:	bf2c      	ite	cs
 8000a74:	17d8      	asrcs	r0, r3, #31
 8000a76:	ea6f 70e3 	mvncc.w	r0, r3, asr #31
 8000a7a:	f040 0001 	orr.w	r0, r0, #1
 8000a7e:	4770      	bx	lr
 8000a80:	ea4f 0c41 	mov.w	ip, r1, lsl #1
 8000a84:	ea7f 5c6c 	mvns.w	ip, ip, asr #21
 8000a88:	d102      	bne.n	8000a90 <__cmpdf2+0x64>
 8000a8a:	ea50 3c01 	orrs.w	ip, r0, r1, lsl #12
 8000a8e:	d107      	bne.n	8000aa0 <__cmpdf2+0x74>
 8000a90:	ea4f 0c43 	mov.w	ip, r3, lsl #1
 8000a94:	ea7f 5c6c 	mvns.w	ip, ip, asr #21
 8000a98:	d1d6      	bne.n	8000a48 <__cmpdf2+0x1c>
 8000a9a:	ea52 3c03 	orrs.w	ip, r2, r3, lsl #12
 8000a9e:	d0d3      	beq.n	8000a48 <__cmpdf2+0x1c>
 8000aa0:	f85d 0b04 	ldr.w	r0, [sp], #4
 8000aa4:	4770      	bx	lr
 8000aa6:	bf00      	nop

08000aa8 <__aeabi_cdrcmple>:
 8000aa8:	4684      	mov	ip, r0
 8000aaa:	4610      	mov	r0, r2
 8000aac:	4662      	mov	r2, ip
 8000aae:	468c      	mov	ip, r1
 8000ab0:	4619      	mov	r1, r3
 8000ab2:	4663      	mov	r3, ip
 8000ab4:	e000      	b.n	8000ab8 <__aeabi_cdcmpeq>
 8000ab6:	bf00      	nop

08000ab8 <__aeabi_cdcmpeq>:
 8000ab8:	b501      	push	{r0, lr}
 8000aba:	f7ff ffb7 	bl	8000a2c <__cmpdf2>
 8000abe:	2800      	cmp	r0, #0
 8000ac0:	bf48      	it	mi
 8000ac2:	f110 0f00 	cmnmi.w	r0, #0
 8000ac6:	bd01      	pop	{r0, pc}

08000ac8 <__aeabi_dcmpeq>:
 8000ac8:	f84d ed08 	str.w	lr, [sp, #-8]!
 8000acc:	f7ff fff4 	bl	8000ab8 <__aeabi_cdcmpeq>
 8000ad0:	bf0c      	ite	eq
 8000ad2:	2001      	moveq	r0, #1
 8000ad4:	2000      	movne	r0, #0
 8000ad6:	f85d fb08 	ldr.w	pc, [sp], #8
 8000ada:	bf00      	nop

08000adc <__aeabi_dcmplt>:
 8000adc:	f84d ed08 	str.w	lr, [sp, #-8]!
 8000ae0:	f7ff ffea 	bl	8000ab8 <__aeabi_cdcmpeq>
 8000ae4:	bf34      	ite	cc
 8000ae6:	2001      	movcc	r0, #1
 8000ae8:	2000      	movcs	r0, #0
 8000aea:	f85d fb08 	ldr.w	pc, [sp], #8
 8000aee:	bf00      	nop

08000af0 <__aeabi_dcmple>:
 8000af0:	f84d ed08 	str.w	lr, [sp, #-8]!
 8000af4:	f7ff ffe0 	bl	8000ab8 <__aeabi_cdcmpeq>
 8000af8:	bf94      	ite	ls
 8000afa:	2001      	movls	r0, #1
 8000afc:	2000      	movhi	r0, #0
 8000afe:	f85d fb08 	ldr.w	pc, [sp], #8
 8000b02:	bf00      	nop

08000b04 <__aeabi_dcmpge>:
 8000b04:	f84d ed08 	str.w	lr, [sp, #-8]!
 8000b08:	f7ff ffce 	bl	8000aa8 <__aeabi_cdrcmple>
 8000b0c:	bf94      	ite	ls
 8000b0e:	2001      	movls	r0, #1
 8000b10:	2000      	movhi	r0, #0
 8000b12:	f85d fb08 	ldr.w	pc, [sp], #8
 8000b16:	bf00      	nop

08000b18 <__aeabi_dcmpgt>:
 8000b18:	f84d ed08 	str.w	lr, [sp, #-8]!
 8000b1c:	f7ff ffc4 	bl	8000aa8 <__aeabi_cdrcmple>
 8000b20:	bf34      	ite	cc
 8000b22:	2001      	movcc	r0, #1
 8000b24:	2000      	movcs	r0, #0
 8000b26:	f85d fb08 	ldr.w	pc, [sp], #8
 8000b2a:	bf00      	nop

08000b2c <__aeabi_dcmpun>:
 8000b2c:	ea4f 0c41 	mov.w	ip, r1, lsl #1
 8000b30:	ea7f 5c6c 	mvns.w	ip, ip, asr #21
 8000b34:	d102      	bne.n	8000b3c <__aeabi_dcmpun+0x10>
 8000b36:	ea50 3c01 	orrs.w	ip, r0, r1, lsl #12
 8000b3a:	d10a      	bne.n	8000b52 <__aeabi_dcmpun+0x26>
 8000b3c:	ea4f 0c43 	mov.w	ip, r3, lsl #1
 8000b40:	ea7f 5c6c 	mvns.w	ip, ip, asr #21
 8000b44:	d102      	bne.n	8000b4c <__aeabi_dcmpun+0x20>
 8000b46:	ea52 3c03 	orrs.w	ip, r2, r3, lsl #12
 8000b4a:	d102      	bne.n	8000b52 <__aeabi_dcmpun+0x26>
 8000b4c:	f04f 0000 	mov.w	r0, #0
 8000b50:	4770      	bx	lr
 8000b52:	f04f 0001 	mov.w	r0, #1
 8000b56:	4770      	bx	lr

08000b58 <__aeabi_d2iz>:
 8000b58:	ea4f 0241 	mov.w	r2, r1, lsl #1
 8000b5c:	f512 1200 	adds.w	r2, r2, #2097152	; 0x200000
 8000b60:	d215      	bcs.n	8000b8e <__aeabi_d2iz+0x36>
 8000b62:	d511      	bpl.n	8000b88 <__aeabi_d2iz+0x30>
 8000b64:	f46f 7378 	mvn.w	r3, #992	; 0x3e0
 8000b68:	ebb3 5262 	subs.w	r2, r3, r2, asr #21
 8000b6c:	d912      	bls.n	8000b94 <__aeabi_d2iz+0x3c>
 8000b6e:	ea4f 23c1 	mov.w	r3, r1, lsl #11
 8000b72:	f043 4300 	orr.w	r3, r3, #2147483648	; 0x80000000
 8000b76:	ea43 5350 	orr.w	r3, r3, r0, lsr #21
 8000b7a:	f011 4f00 	tst.w	r1, #2147483648	; 0x80000000
 8000b7e:	fa23 f002 	lsr.w	r0, r3, r2
 8000b82:	bf18      	it	ne
 8000b84:	4240      	negne	r0, r0
 8000b86:	4770      	bx	lr
 8000b88:	f04f 0000 	mov.w	r0, #0
 8000b8c:	4770      	bx	lr
 8000b8e:	ea50 3001 	orrs.w	r0, r0, r1, lsl #12
 8000b92:	d105      	bne.n	8000ba0 <__aeabi_d2iz+0x48>
 8000b94:	f011 4000 	ands.w	r0, r1, #2147483648	; 0x80000000
 8000b98:	bf08      	it	eq
 8000b9a:	f06f 4000 	mvneq.w	r0, #2147483648	; 0x80000000
 8000b9e:	4770      	bx	lr
 8000ba0:	f04f 0000 	mov.w	r0, #0
 8000ba4:	4770      	bx	lr
 8000ba6:	bf00      	nop

08000ba8 <__aeabi_uldivmod>:
 8000ba8:	b953      	cbnz	r3, 8000bc0 <__aeabi_uldivmod+0x18>
 8000baa:	b94a      	cbnz	r2, 8000bc0 <__aeabi_uldivmod+0x18>
 8000bac:	2900      	cmp	r1, #0
 8000bae:	bf08      	it	eq
 8000bb0:	2800      	cmpeq	r0, #0
 8000bb2:	bf1c      	itt	ne
 8000bb4:	f04f 31ff 	movne.w	r1, #4294967295
 8000bb8:	f04f 30ff 	movne.w	r0, #4294967295
 8000bbc:	f000 b974 	b.w	8000ea8 <__aeabi_idiv0>
 8000bc0:	f1ad 0c08 	sub.w	ip, sp, #8
 8000bc4:	e96d ce04 	strd	ip, lr, [sp, #-16]!
 8000bc8:	f000 f806 	bl	8000bd8 <__udivmoddi4>
 8000bcc:	f8dd e004 	ldr.w	lr, [sp, #4]
 8000bd0:	e9dd 2302 	ldrd	r2, r3, [sp, #8]
 8000bd4:	b004      	add	sp, #16
 8000bd6:	4770      	bx	lr

08000bd8 <__udivmoddi4>:
 8000bd8:	e92d 47f0 	stmdb	sp!, {r4, r5, r6, r7, r8, r9, sl, lr}
 8000bdc:	9d08      	ldr	r5, [sp, #32]
 8000bde:	4604      	mov	r4, r0
 8000be0:	468e      	mov	lr, r1
 8000be2:	2b00      	cmp	r3, #0
 8000be4:	d14d      	bne.n	8000c82 <__udivmoddi4+0xaa>
 8000be6:	428a      	cmp	r2, r1
 8000be8:	4694      	mov	ip, r2
 8000bea:	d969      	bls.n	8000cc0 <__udivmoddi4+0xe8>
 8000bec:	fab2 f282 	clz	r2, r2
 8000bf0:	b152      	cbz	r2, 8000c08 <__udivmoddi4+0x30>
 8000bf2:	fa01 f302 	lsl.w	r3, r1, r2
 8000bf6:	f1c2 0120 	rsb	r1, r2, #32
 8000bfa:	fa20 f101 	lsr.w	r1, r0, r1
 8000bfe:	fa0c fc02 	lsl.w	ip, ip, r2
 8000c02:	ea41 0e03 	orr.w	lr, r1, r3
 8000c06:	4094      	lsls	r4, r2
 8000c08:	ea4f 481c 	mov.w	r8, ip, lsr #16
 8000c0c:	0c21      	lsrs	r1, r4, #16
 8000c0e:	fbbe f6f8 	udiv	r6, lr, r8
 8000c12:	fa1f f78c 	uxth.w	r7, ip
 8000c16:	fb08 e316 	mls	r3, r8, r6, lr
 8000c1a:	ea41 4303 	orr.w	r3, r1, r3, lsl #16
 8000c1e:	fb06 f107 	mul.w	r1, r6, r7
 8000c22:	4299      	cmp	r1, r3
 8000c24:	d90a      	bls.n	8000c3c <__udivmoddi4+0x64>
 8000c26:	eb1c 0303 	adds.w	r3, ip, r3
 8000c2a:	f106 30ff 	add.w	r0, r6, #4294967295
 8000c2e:	f080 811f 	bcs.w	8000e70 <__udivmoddi4+0x298>
 8000c32:	4299      	cmp	r1, r3
 8000c34:	f240 811c 	bls.w	8000e70 <__udivmoddi4+0x298>
 8000c38:	3e02      	subs	r6, #2
 8000c3a:	4463      	add	r3, ip
 8000c3c:	1a5b      	subs	r3, r3, r1
 8000c3e:	b2a4      	uxth	r4, r4
 8000c40:	fbb3 f0f8 	udiv	r0, r3, r8
 8000c44:	fb08 3310 	mls	r3, r8, r0, r3
 8000c48:	ea44 4403 	orr.w	r4, r4, r3, lsl #16
 8000c4c:	fb00 f707 	mul.w	r7, r0, r7
 8000c50:	42a7      	cmp	r7, r4
 8000c52:	d90a      	bls.n	8000c6a <__udivmoddi4+0x92>
 8000c54:	eb1c 0404 	adds.w	r4, ip, r4
 8000c58:	f100 33ff 	add.w	r3, r0, #4294967295
 8000c5c:	f080 810a 	bcs.w	8000e74 <__udivmoddi4+0x29c>
 8000c60:	42a7      	cmp	r7, r4
 8000c62:	f240 8107 	bls.w	8000e74 <__udivmoddi4+0x29c>
 8000c66:	4464      	add	r4, ip
 8000c68:	3802      	subs	r0, #2
 8000c6a:	ea40 4006 	orr.w	r0, r0, r6, lsl #16
 8000c6e:	1be4      	subs	r4, r4, r7
 8000c70:	2600      	movs	r6, #0
 8000c72:	b11d      	cbz	r5, 8000c7c <__udivmoddi4+0xa4>
 8000c74:	40d4      	lsrs	r4, r2
 8000c76:	2300      	movs	r3, #0
 8000c78:	e9c5 4300 	strd	r4, r3, [r5]
 8000c7c:	4631      	mov	r1, r6
 8000c7e:	e8bd 87f0 	ldmia.w	sp!, {r4, r5, r6, r7, r8, r9, sl, pc}
 8000c82:	428b      	cmp	r3, r1
 8000c84:	d909      	bls.n	8000c9a <__udivmoddi4+0xc2>
 8000c86:	2d00      	cmp	r5, #0
 8000c88:	f000 80ef 	beq.w	8000e6a <__udivmoddi4+0x292>
 8000c8c:	2600      	movs	r6, #0
 8000c8e:	e9c5 0100 	strd	r0, r1, [r5]
 8000c92:	4630      	mov	r0, r6
 8000c94:	4631      	mov	r1, r6
 8000c96:	e8bd 87f0 	ldmia.w	sp!, {r4, r5, r6, r7, r8, r9, sl, pc}
 8000c9a:	fab3 f683 	clz	r6, r3
 8000c9e:	2e00      	cmp	r6, #0
 8000ca0:	d14a      	bne.n	8000d38 <__udivmoddi4+0x160>
 8000ca2:	428b      	cmp	r3, r1
 8000ca4:	d302      	bcc.n	8000cac <__udivmoddi4+0xd4>
 8000ca6:	4282      	cmp	r2, r0
 8000ca8:	f200 80f9 	bhi.w	8000e9e <__udivmoddi4+0x2c6>
 8000cac:	1a84      	subs	r4, r0, r2
 8000cae:	eb61 0303 	sbc.w	r3, r1, r3
 8000cb2:	2001      	movs	r0, #1
 8000cb4:	469e      	mov	lr, r3
 8000cb6:	2d00      	cmp	r5, #0
 8000cb8:	d0e0      	beq.n	8000c7c <__udivmoddi4+0xa4>
 8000cba:	e9c5 4e00 	strd	r4, lr, [r5]
 8000cbe:	e7dd      	b.n	8000c7c <__udivmoddi4+0xa4>
 8000cc0:	b902      	cbnz	r2, 8000cc4 <__udivmoddi4+0xec>
 8000cc2:	deff      	udf	#255	; 0xff
 8000cc4:	fab2 f282 	clz	r2, r2
 8000cc8:	2a00      	cmp	r2, #0
 8000cca:	f040 8092 	bne.w	8000df2 <__udivmoddi4+0x21a>
 8000cce:	eba1 010c 	sub.w	r1, r1, ip
 8000cd2:	ea4f 471c 	mov.w	r7, ip, lsr #16
 8000cd6:	fa1f fe8c 	uxth.w	lr, ip
 8000cda:	2601      	movs	r6, #1
 8000cdc:	0c20      	lsrs	r0, r4, #16
 8000cde:	fbb1 f3f7 	udiv	r3, r1, r7
 8000ce2:	fb07 1113 	mls	r1, r7, r3, r1
 8000ce6:	ea40 4101 	orr.w	r1, r0, r1, lsl #16
 8000cea:	fb0e f003 	mul.w	r0, lr, r3
 8000cee:	4288      	cmp	r0, r1
 8000cf0:	d908      	bls.n	8000d04 <__udivmoddi4+0x12c>
 8000cf2:	eb1c 0101 	adds.w	r1, ip, r1
 8000cf6:	f103 38ff 	add.w	r8, r3, #4294967295
 8000cfa:	d202      	bcs.n	8000d02 <__udivmoddi4+0x12a>
 8000cfc:	4288      	cmp	r0, r1
 8000cfe:	f200 80cb 	bhi.w	8000e98 <__udivmoddi4+0x2c0>
 8000d02:	4643      	mov	r3, r8
 8000d04:	1a09      	subs	r1, r1, r0
 8000d06:	b2a4      	uxth	r4, r4
 8000d08:	fbb1 f0f7 	udiv	r0, r1, r7
 8000d0c:	fb07 1110 	mls	r1, r7, r0, r1
 8000d10:	ea44 4401 	orr.w	r4, r4, r1, lsl #16
 8000d14:	fb0e fe00 	mul.w	lr, lr, r0
 8000d18:	45a6      	cmp	lr, r4
 8000d1a:	d908      	bls.n	8000d2e <__udivmoddi4+0x156>
 8000d1c:	eb1c 0404 	adds.w	r4, ip, r4
 8000d20:	f100 31ff 	add.w	r1, r0, #4294967295
 8000d24:	d202      	bcs.n	8000d2c <__udivmoddi4+0x154>
 8000d26:	45a6      	cmp	lr, r4
 8000d28:	f200 80bb 	bhi.w	8000ea2 <__udivmoddi4+0x2ca>
 8000d2c:	4608      	mov	r0, r1
 8000d2e:	eba4 040e 	sub.w	r4, r4, lr
 8000d32:	ea40 4003 	orr.w	r0, r0, r3, lsl #16
 8000d36:	e79c      	b.n	8000c72 <__udivmoddi4+0x9a>
 8000d38:	f1c6 0720 	rsb	r7, r6, #32
 8000d3c:	40b3      	lsls	r3, r6
 8000d3e:	fa22 fc07 	lsr.w	ip, r2, r7
 8000d42:	ea4c 0c03 	orr.w	ip, ip, r3
 8000d46:	fa20 f407 	lsr.w	r4, r0, r7
 8000d4a:	fa01 f306 	lsl.w	r3, r1, r6
 8000d4e:	431c      	orrs	r4, r3
 8000d50:	40f9      	lsrs	r1, r7
 8000d52:	ea4f 491c 	mov.w	r9, ip, lsr #16
 8000d56:	fa00 f306 	lsl.w	r3, r0, r6
 8000d5a:	fbb1 f8f9 	udiv	r8, r1, r9
 8000d5e:	0c20      	lsrs	r0, r4, #16
 8000d60:	fa1f fe8c 	uxth.w	lr, ip
 8000d64:	fb09 1118 	mls	r1, r9, r8, r1
 8000d68:	ea40 4101 	orr.w	r1, r0, r1, lsl #16
 8000d6c:	fb08 f00e 	mul.w	r0, r8, lr
 8000d70:	4288      	cmp	r0, r1
 8000d72:	fa02 f206 	lsl.w	r2, r2, r6
 8000d76:	d90b      	bls.n	8000d90 <__udivmoddi4+0x1b8>
 8000d78:	eb1c 0101 	adds.w	r1, ip, r1
 8000d7c:	f108 3aff 	add.w	sl, r8, #4294967295
 8000d80:	f080 8088 	bcs.w	8000e94 <__udivmoddi4+0x2bc>
 8000d84:	4288      	cmp	r0, r1
 8000d86:	f240 8085 	bls.w	8000e94 <__udivmoddi4+0x2bc>
 8000d8a:	f1a8 0802 	sub.w	r8, r8, #2
 8000d8e:	4461      	add	r1, ip
 8000d90:	1a09      	subs	r1, r1, r0
 8000d92:	b2a4      	uxth	r4, r4
 8000d94:	fbb1 f0f9 	udiv	r0, r1, r9
 8000d98:	fb09 1110 	mls	r1, r9, r0, r1
 8000d9c:	ea44 4101 	orr.w	r1, r4, r1, lsl #16
 8000da0:	fb00 fe0e 	mul.w	lr, r0, lr
 8000da4:	458e      	cmp	lr, r1
 8000da6:	d908      	bls.n	8000dba <__udivmoddi4+0x1e2>
 8000da8:	eb1c 0101 	adds.w	r1, ip, r1
 8000dac:	f100 34ff 	add.w	r4, r0, #4294967295
 8000db0:	d26c      	bcs.n	8000e8c <__udivmoddi4+0x2b4>
 8000db2:	458e      	cmp	lr, r1
 8000db4:	d96a      	bls.n	8000e8c <__udivmoddi4+0x2b4>
 8000db6:	3802      	subs	r0, #2
 8000db8:	4461      	add	r1, ip
 8000dba:	ea40 4008 	orr.w	r0, r0, r8, lsl #16
 8000dbe:	fba0 9402 	umull	r9, r4, r0, r2
 8000dc2:	eba1 010e 	sub.w	r1, r1, lr
 8000dc6:	42a1      	cmp	r1, r4
 8000dc8:	46c8      	mov	r8, r9
 8000dca:	46a6      	mov	lr, r4
 8000dcc:	d356      	bcc.n	8000e7c <__udivmoddi4+0x2a4>
 8000dce:	d053      	beq.n	8000e78 <__udivmoddi4+0x2a0>
 8000dd0:	b15d      	cbz	r5, 8000dea <__udivmoddi4+0x212>
 8000dd2:	ebb3 0208 	subs.w	r2, r3, r8
 8000dd6:	eb61 010e 	sbc.w	r1, r1, lr
 8000dda:	fa01 f707 	lsl.w	r7, r1, r7
 8000dde:	fa22 f306 	lsr.w	r3, r2, r6
 8000de2:	40f1      	lsrs	r1, r6
 8000de4:	431f      	orrs	r7, r3
 8000de6:	e9c5 7100 	strd	r7, r1, [r5]
 8000dea:	2600      	movs	r6, #0
 8000dec:	4631      	mov	r1, r6
 8000dee:	e8bd 87f0 	ldmia.w	sp!, {r4, r5, r6, r7, r8, r9, sl, pc}
 8000df2:	f1c2 0320 	rsb	r3, r2, #32
 8000df6:	40d8      	lsrs	r0, r3
 8000df8:	fa0c fc02 	lsl.w	ip, ip, r2
 8000dfc:	fa21 f303 	lsr.w	r3, r1, r3
 8000e00:	4091      	lsls	r1, r2
 8000e02:	4301      	orrs	r1, r0
 8000e04:	ea4f 471c 	mov.w	r7, ip, lsr #16
 8000e08:	fa1f fe8c 	uxth.w	lr, ip
 8000e0c:	fbb3 f0f7 	udiv	r0, r3, r7
 8000e10:	fb07 3610 	mls	r6, r7, r0, r3
 8000e14:	0c0b      	lsrs	r3, r1, #16
 8000e16:	ea43 4306 	orr.w	r3, r3, r6, lsl #16
 8000e1a:	fb00 f60e 	mul.w	r6, r0, lr
 8000e1e:	429e      	cmp	r6, r3
 8000e20:	fa04 f402 	lsl.w	r4, r4, r2
 8000e24:	d908      	bls.n	8000e38 <__udivmoddi4+0x260>
 8000e26:	eb1c 0303 	adds.w	r3, ip, r3
 8000e2a:	f100 38ff 	add.w	r8, r0, #4294967295
 8000e2e:	d22f      	bcs.n	8000e90 <__udivmoddi4+0x2b8>
 8000e30:	429e      	cmp	r6, r3
 8000e32:	d92d      	bls.n	8000e90 <__udivmoddi4+0x2b8>
 8000e34:	3802      	subs	r0, #2
 8000e36:	4463      	add	r3, ip
 8000e38:	1b9b      	subs	r3, r3, r6
 8000e3a:	b289      	uxth	r1, r1
 8000e3c:	fbb3 f6f7 	udiv	r6, r3, r7
 8000e40:	fb07 3316 	mls	r3, r7, r6, r3
 8000e44:	ea41 4103 	orr.w	r1, r1, r3, lsl #16
 8000e48:	fb06 f30e 	mul.w	r3, r6, lr
 8000e4c:	428b      	cmp	r3, r1
 8000e4e:	d908      	bls.n	8000e62 <__udivmoddi4+0x28a>
 8000e50:	eb1c 0101 	adds.w	r1, ip, r1
 8000e54:	f106 38ff 	add.w	r8, r6, #4294967295
 8000e58:	d216      	bcs.n	8000e88 <__udivmoddi4+0x2b0>
 8000e5a:	428b      	cmp	r3, r1
 8000e5c:	d914      	bls.n	8000e88 <__udivmoddi4+0x2b0>
 8000e5e:	3e02      	subs	r6, #2
 8000e60:	4461      	add	r1, ip
 8000e62:	1ac9      	subs	r1, r1, r3
 8000e64:	ea46 4600 	orr.w	r6, r6, r0, lsl #16
 8000e68:	e738      	b.n	8000cdc <__udivmoddi4+0x104>
 8000e6a:	462e      	mov	r6, r5
 8000e6c:	4628      	mov	r0, r5
 8000e6e:	e705      	b.n	8000c7c <__udivmoddi4+0xa4>
 8000e70:	4606      	mov	r6, r0
 8000e72:	e6e3      	b.n	8000c3c <__udivmoddi4+0x64>
 8000e74:	4618      	mov	r0, r3
 8000e76:	e6f8      	b.n	8000c6a <__udivmoddi4+0x92>
 8000e78:	454b      	cmp	r3, r9
 8000e7a:	d2a9      	bcs.n	8000dd0 <__udivmoddi4+0x1f8>
 8000e7c:	ebb9 0802 	subs.w	r8, r9, r2
 8000e80:	eb64 0e0c 	sbc.w	lr, r4, ip
 8000e84:	3801      	subs	r0, #1
 8000e86:	e7a3      	b.n	8000dd0 <__udivmoddi4+0x1f8>
 8000e88:	4646      	mov	r6, r8
 8000e8a:	e7ea      	b.n	8000e62 <__udivmoddi4+0x28a>
 8000e8c:	4620      	mov	r0, r4
 8000e8e:	e794      	b.n	8000dba <__udivmoddi4+0x1e2>
 8000e90:	4640      	mov	r0, r8
 8000e92:	e7d1      	b.n	8000e38 <__udivmoddi4+0x260>
 8000e94:	46d0      	mov	r8, sl
 8000e96:	e77b      	b.n	8000d90 <__udivmoddi4+0x1b8>
 8000e98:	3b02      	subs	r3, #2
 8000e9a:	4461      	add	r1, ip
 8000e9c:	e732      	b.n	8000d04 <__udivmoddi4+0x12c>
 8000e9e:	4630      	mov	r0, r6
 8000ea0:	e709      	b.n	8000cb6 <__udivmoddi4+0xde>
 8000ea2:	4464      	add	r4, ip
 8000ea4:	3802      	subs	r0, #2
 8000ea6:	e742      	b.n	8000d2e <__udivmoddi4+0x156>

08000ea8 <__aeabi_idiv0>:
 8000ea8:	4770      	bx	lr
 8000eaa:	bf00      	nop

08000eac <HAL_GPIO_EXTI_Callback>:
/**
 * @brief  External Interrupt to detect 1st button press and 2nd button press
 * @note
 * @retval	None
 */
HAL_GPIO_EXTI_Callback(uint16_t GPIO_Pin) {
 8000eac:	b480      	push	{r7}
 8000eae:	b083      	sub	sp, #12
 8000eb0:	af00      	add	r7, sp, #0
 8000eb2:	4603      	mov	r3, r0
 8000eb4:	80fb      	strh	r3, [r7, #6]
	if ((GPIO_Pin == BUTTON_EXTI13_Pin) && (flag == 0)) {
 8000eb6:	88fb      	ldrh	r3, [r7, #6]
 8000eb8:	f5b3 5f00 	cmp.w	r3, #8192	; 0x2000
 8000ebc:	d10e      	bne.n	8000edc <HAL_GPIO_EXTI_Callback+0x30>
 8000ebe:	4b13      	ldr	r3, [pc, #76]	; (8000f0c <HAL_GPIO_EXTI_Callback+0x60>)
 8000ec0:	781b      	ldrb	r3, [r3, #0]
 8000ec2:	2b00      	cmp	r3, #0
 8000ec4:	d10a      	bne.n	8000edc <HAL_GPIO_EXTI_Callback+0x30>
		flag++;
 8000ec6:	4b11      	ldr	r3, [pc, #68]	; (8000f0c <HAL_GPIO_EXTI_Callback+0x60>)
 8000ec8:	781b      	ldrb	r3, [r3, #0]
 8000eca:	3301      	adds	r3, #1
 8000ecc:	b2da      	uxtb	r2, r3
 8000ece:	4b0f      	ldr	r3, [pc, #60]	; (8000f0c <HAL_GPIO_EXTI_Callback+0x60>)
 8000ed0:	701a      	strb	r2, [r3, #0]
		T1 = uwTick;
 8000ed2:	4b0f      	ldr	r3, [pc, #60]	; (8000f10 <HAL_GPIO_EXTI_Callback+0x64>)
 8000ed4:	681b      	ldr	r3, [r3, #0]
 8000ed6:	4a0f      	ldr	r2, [pc, #60]	; (8000f14 <HAL_GPIO_EXTI_Callback+0x68>)
 8000ed8:	6013      	str	r3, [r2, #0]
	} else if ((GPIO_Pin == BUTTON_EXTI13_Pin) && (flag > 0)) {
		flag++;
		T2 = uwTick;
	}
}
 8000eda:	e011      	b.n	8000f00 <HAL_GPIO_EXTI_Callback+0x54>
	} else if ((GPIO_Pin == BUTTON_EXTI13_Pin) && (flag > 0)) {
 8000edc:	88fb      	ldrh	r3, [r7, #6]
 8000ede:	f5b3 5f00 	cmp.w	r3, #8192	; 0x2000
 8000ee2:	d10d      	bne.n	8000f00 <HAL_GPIO_EXTI_Callback+0x54>
 8000ee4:	4b09      	ldr	r3, [pc, #36]	; (8000f0c <HAL_GPIO_EXTI_Callback+0x60>)
 8000ee6:	781b      	ldrb	r3, [r3, #0]
 8000ee8:	2b00      	cmp	r3, #0
 8000eea:	d009      	beq.n	8000f00 <HAL_GPIO_EXTI_Callback+0x54>
		flag++;
 8000eec:	4b07      	ldr	r3, [pc, #28]	; (8000f0c <HAL_GPIO_EXTI_Callback+0x60>)
 8000eee:	781b      	ldrb	r3, [r3, #0]
 8000ef0:	3301      	adds	r3, #1
 8000ef2:	b2da      	uxtb	r2, r3
 8000ef4:	4b05      	ldr	r3, [pc, #20]	; (8000f0c <HAL_GPIO_EXTI_Callback+0x60>)
 8000ef6:	701a      	strb	r2, [r3, #0]
		T2 = uwTick;
 8000ef8:	4b05      	ldr	r3, [pc, #20]	; (8000f10 <HAL_GPIO_EXTI_Callback+0x64>)
 8000efa:	681b      	ldr	r3, [r3, #0]
 8000efc:	4a06      	ldr	r2, [pc, #24]	; (8000f18 <HAL_GPIO_EXTI_Callback+0x6c>)
 8000efe:	6013      	str	r3, [r2, #0]
}
 8000f00:	bf00      	nop
 8000f02:	370c      	adds	r7, #12
 8000f04:	46bd      	mov	sp, r7
 8000f06:	f85d 7b04 	ldr.w	r7, [sp], #4
 8000f0a:	4770      	bx	lr
 8000f0c:	20000348 	.word	0x20000348
 8000f10:	200005ac 	.word	0x200005ac
 8000f14:	200002c0 	.word	0x200002c0
 8000f18:	200002c4 	.word	0x200002c4

08000f1c <main>:

int main(void) {
 8000f1c:	b580      	push	{r7, lr}
 8000f1e:	af00      	add	r7, sp, #0

	/* Reset of all peripherals */
	HAL_Init();
 8000f20:	f002 f982 	bl	8003228 <HAL_Init>
	MX_GPIO_Init(); // initialize PB14, pin connected to LED2
 8000f24:	f000 fe8c 	bl	8001c40 <MX_GPIO_Init>
	UART1_Init(); // initialize UART1 for UART communication
 8000f28:	f000 ff06 	bl	8001d38 <UART1_Init>

	/* Peripheral initializations using BSP functions for all sensors*/
	BSP_ACCELERO_Init(); // initialize accelerometer
 8000f2c:	f001 fa8c 	bl	8002448 <BSP_ACCELERO_Init>
	BSP_TSENSOR_Init();	 // initialize temperature sensor
 8000f30:	f001 fbda 	bl	80026e8 <BSP_TSENSOR_Init>
	BSP_HSENSOR_Init();	 // initialize humidity sensor
 8000f34:	f001 fb38 	bl	80025a8 <BSP_HSENSOR_Init>
	BSP_GYRO_Init();	 // initialize gyroscope
 8000f38:	f001 fadc 	bl	80024f4 <BSP_GYRO_Init>
	BSP_PSENSOR_Init();	 // initialize pressure sensor
 8000f3c:	f001 fba6 	bl	800268c <BSP_PSENSOR_Init>
	BSP_MAGNETO_Init();	 // initialize magnetometer
 8000f40:	f001 fb60 	bl	8002604 <BSP_MAGNETO_Init>
	// accelero_interrupt_config();
	/*enable NVIC EXTI interrupt*/
	// HAL_NVIC_EnableIRQ(EXTI15_10_IRQn);
	/* Exploration Mode: Print only once*/
	//memset(message_print, 0, strlen(message_print));
	snprintf(message_print, MESSAGE_SIZE, "Entering EXPLORATION Mode \r\n");
 8000f44:	4a1b      	ldr	r2, [pc, #108]	; (8000fb4 <main+0x98>)
 8000f46:	f44f 7196 	mov.w	r1, #300	; 0x12c
 8000f4a:	481b      	ldr	r0, [pc, #108]	; (8000fb8 <main+0x9c>)
 8000f4c:	f005 f97e 	bl	800624c <sniprintf>
	HAL_UART_Transmit(&huart1, (uint8_t*) message_print, strlen(message_print),
 8000f50:	4819      	ldr	r0, [pc, #100]	; (8000fb8 <main+0x9c>)
 8000f52:	f7ff f93d 	bl	80001d0 <strlen>
 8000f56:	4603      	mov	r3, r0
 8000f58:	b29a      	uxth	r2, r3
 8000f5a:	f64f 73ff 	movw	r3, #65535	; 0xffff
 8000f5e:	4916      	ldr	r1, [pc, #88]	; (8000fb8 <main+0x9c>)
 8000f60:	4816      	ldr	r0, [pc, #88]	; (8000fbc <main+0xa0>)
 8000f62:	f003 fc49 	bl	80047f8 <HAL_UART_Transmit>
			0xFFFF);

	while (1) {
		if ((flag == 1) && (uwTick - T1 > 1000)) {
 8000f66:	4b16      	ldr	r3, [pc, #88]	; (8000fc0 <main+0xa4>)
 8000f68:	781b      	ldrb	r3, [r3, #0]
 8000f6a:	2b01      	cmp	r3, #1
 8000f6c:	d10d      	bne.n	8000f8a <main+0x6e>
 8000f6e:	4b15      	ldr	r3, [pc, #84]	; (8000fc4 <main+0xa8>)
 8000f70:	681a      	ldr	r2, [r3, #0]
 8000f72:	4b15      	ldr	r3, [pc, #84]	; (8000fc8 <main+0xac>)
 8000f74:	681b      	ldr	r3, [r3, #0]
 8000f76:	1ad3      	subs	r3, r2, r3
 8000f78:	f5b3 7f7a 	cmp.w	r3, #1000	; 0x3e8
 8000f7c:	d905      	bls.n	8000f8a <main+0x6e>
			// Detect a single press
			flag = 0;
 8000f7e:	4b10      	ldr	r3, [pc, #64]	; (8000fc0 <main+0xa4>)
 8000f80:	2200      	movs	r2, #0
 8000f82:	701a      	strb	r2, [r3, #0]
			press = 1;
 8000f84:	4b11      	ldr	r3, [pc, #68]	; (8000fcc <main+0xb0>)
 8000f86:	2201      	movs	r2, #1
 8000f88:	701a      	strb	r2, [r3, #0]
		}

		if ((flag == 2) && (T2 - T1 < 1000)) {
 8000f8a:	4b0d      	ldr	r3, [pc, #52]	; (8000fc0 <main+0xa4>)
 8000f8c:	781b      	ldrb	r3, [r3, #0]
 8000f8e:	2b02      	cmp	r3, #2
 8000f90:	d10d      	bne.n	8000fae <main+0x92>
 8000f92:	4b0f      	ldr	r3, [pc, #60]	; (8000fd0 <main+0xb4>)
 8000f94:	681a      	ldr	r2, [r3, #0]
 8000f96:	4b0c      	ldr	r3, [pc, #48]	; (8000fc8 <main+0xac>)
 8000f98:	681b      	ldr	r3, [r3, #0]
 8000f9a:	1ad3      	subs	r3, r2, r3
 8000f9c:	f5b3 7f7a 	cmp.w	r3, #1000	; 0x3e8
 8000fa0:	d205      	bcs.n	8000fae <main+0x92>
			// Detect double press
			press = 2;
 8000fa2:	4b0a      	ldr	r3, [pc, #40]	; (8000fcc <main+0xb0>)
 8000fa4:	2202      	movs	r2, #2
 8000fa6:	701a      	strb	r2, [r3, #0]
			flag = 0;
 8000fa8:	4b05      	ldr	r3, [pc, #20]	; (8000fc0 <main+0xa4>)
 8000faa:	2200      	movs	r2, #0
 8000fac:	701a      	strb	r2, [r3, #0]
		}

		mode_selection();
 8000fae:	f000 f811 	bl	8000fd4 <mode_selection>
		if ((flag == 1) && (uwTick - T1 > 1000)) {
 8000fb2:	e7d8      	b.n	8000f66 <main+0x4a>
 8000fb4:	08008448 	.word	0x08008448
 8000fb8:	20000350 	.word	0x20000350
 8000fbc:	200002c8 	.word	0x200002c8
 8000fc0:	20000348 	.word	0x20000348
 8000fc4:	200005ac 	.word	0x200005ac
 8000fc8:	200002c0 	.word	0x200002c0
 8000fcc:	20000349 	.word	0x20000349
 8000fd0:	200002c4 	.word	0x200002c4

08000fd4 <mode_selection>:
 * @brief  	Selects different modes such as Exploration and Battle and selects
 *			different states such as Normal and Warning in the respective modes.
 * @note
 * @retval	None
 */
static void mode_selection() {
 8000fd4:	b580      	push	{r7, lr}
 8000fd6:	af00      	add	r7, sp, #0
	/* Exploration Mode */
	if (EXPLORATION == 1 && EXPLORATION_WARNING_STATE == 0 && BATTLE == 0
 8000fd8:	4b62      	ldr	r3, [pc, #392]	; (8001164 <mode_selection+0x190>)
 8000fda:	781b      	ldrb	r3, [r3, #0]
 8000fdc:	2b01      	cmp	r3, #1
 8000fde:	d111      	bne.n	8001004 <mode_selection+0x30>
 8000fe0:	4b61      	ldr	r3, [pc, #388]	; (8001168 <mode_selection+0x194>)
 8000fe2:	781b      	ldrb	r3, [r3, #0]
 8000fe4:	2b00      	cmp	r3, #0
 8000fe6:	d10d      	bne.n	8001004 <mode_selection+0x30>
 8000fe8:	4b60      	ldr	r3, [pc, #384]	; (800116c <mode_selection+0x198>)
 8000fea:	781b      	ldrb	r3, [r3, #0]
 8000fec:	2b00      	cmp	r3, #0
 8000fee:	d109      	bne.n	8001004 <mode_selection+0x30>
			&& press <= 1) {
 8000ff0:	4b5f      	ldr	r3, [pc, #380]	; (8001170 <mode_selection+0x19c>)
 8000ff2:	781b      	ldrb	r3, [r3, #0]
 8000ff4:	2b01      	cmp	r3, #1
 8000ff6:	d805      	bhi.n	8001004 <mode_selection+0x30>
		// Normal state
		exploration();
 8000ff8:	f000 f8c4 	bl	8001184 <exploration>
		press = 0;
 8000ffc:	4b5c      	ldr	r3, [pc, #368]	; (8001170 <mode_selection+0x19c>)
 8000ffe:	2200      	movs	r2, #0
 8001000:	701a      	strb	r2, [r3, #0]
 8001002:	e047      	b.n	8001094 <mode_selection+0xc0>
	} else if (EXPLORATION == 1 && EXPLORATION_WARNING_STATE == 1) {
 8001004:	4b57      	ldr	r3, [pc, #348]	; (8001164 <mode_selection+0x190>)
 8001006:	781b      	ldrb	r3, [r3, #0]
 8001008:	2b01      	cmp	r3, #1
 800100a:	d11b      	bne.n	8001044 <mode_selection+0x70>
 800100c:	4b56      	ldr	r3, [pc, #344]	; (8001168 <mode_selection+0x194>)
 800100e:	781b      	ldrb	r3, [r3, #0]
 8001010:	2b01      	cmp	r3, #1
 8001012:	d117      	bne.n	8001044 <mode_selection+0x70>
		// Come to the Warning State through interrupts or polling
		exploration_warning();
 8001014:	f000 fb12 	bl	800163c <exploration_warning>

		if (press == 1) {
 8001018:	4b55      	ldr	r3, [pc, #340]	; (8001170 <mode_selection+0x19c>)
 800101a:	781b      	ldrb	r3, [r3, #0]
 800101c:	2b01      	cmp	r3, #1
 800101e:	d109      	bne.n	8001034 <mode_selection+0x60>
			// Clear the warning and go back to Exploration mode
			EXPLORATION_WARNING_STATE = 0;
 8001020:	4b51      	ldr	r3, [pc, #324]	; (8001168 <mode_selection+0x194>)
 8001022:	2200      	movs	r2, #0
 8001024:	701a      	strb	r2, [r3, #0]
			EXPLORATION = 1;
 8001026:	4b4f      	ldr	r3, [pc, #316]	; (8001164 <mode_selection+0x190>)
 8001028:	2201      	movs	r2, #1
 800102a:	701a      	strb	r2, [r3, #0]
			press = 0;
 800102c:	4b50      	ldr	r3, [pc, #320]	; (8001170 <mode_selection+0x19c>)
 800102e:	2200      	movs	r2, #0
 8001030:	701a      	strb	r2, [r3, #0]
		if (press == 1) {
 8001032:	e02e      	b.n	8001092 <mode_selection+0xbe>
		} else if (press == 2) {
 8001034:	4b4e      	ldr	r3, [pc, #312]	; (8001170 <mode_selection+0x19c>)
 8001036:	781b      	ldrb	r3, [r3, #0]
 8001038:	2b02      	cmp	r3, #2
 800103a:	d12a      	bne.n	8001092 <mode_selection+0xbe>
			// Ignore it
			press = 0;
 800103c:	4b4c      	ldr	r3, [pc, #304]	; (8001170 <mode_selection+0x19c>)
 800103e:	2200      	movs	r2, #0
 8001040:	701a      	strb	r2, [r3, #0]
		if (press == 1) {
 8001042:	e026      	b.n	8001092 <mode_selection+0xbe>
		}
	} else if (EXPLORATION == 1 && EXPLORATION_WARNING_STATE == 0
 8001044:	4b47      	ldr	r3, [pc, #284]	; (8001164 <mode_selection+0x190>)
 8001046:	781b      	ldrb	r3, [r3, #0]
 8001048:	2b01      	cmp	r3, #1
 800104a:	d123      	bne.n	8001094 <mode_selection+0xc0>
 800104c:	4b46      	ldr	r3, [pc, #280]	; (8001168 <mode_selection+0x194>)
 800104e:	781b      	ldrb	r3, [r3, #0]
 8001050:	2b00      	cmp	r3, #0
 8001052:	d11f      	bne.n	8001094 <mode_selection+0xc0>
			&& press == 2) {
 8001054:	4b46      	ldr	r3, [pc, #280]	; (8001170 <mode_selection+0x19c>)
 8001056:	781b      	ldrb	r3, [r3, #0]
 8001058:	2b02      	cmp	r3, #2
 800105a:	d11b      	bne.n	8001094 <mode_selection+0xc0>
		/* A message "Entering BATTLE mode" is sent once to Cyrix's Lab once
		 * immediately upon entering the BATTLE mode.
		 * The press flag is cleared later in mode_selection()
		 */
		//memset(message_print, 0, strlen(message_print));
		snprintf(message_print, MESSAGE_SIZE, "Entering BATTLE Mode \r\n");
 800105c:	4a45      	ldr	r2, [pc, #276]	; (8001174 <mode_selection+0x1a0>)
 800105e:	f44f 7196 	mov.w	r1, #300	; 0x12c
 8001062:	4845      	ldr	r0, [pc, #276]	; (8001178 <mode_selection+0x1a4>)
 8001064:	f005 f8f2 	bl	800624c <sniprintf>
		HAL_UART_Transmit(&huart1, (uint8_t*) message_print,
				strlen(message_print), 0xFFFF);
 8001068:	4843      	ldr	r0, [pc, #268]	; (8001178 <mode_selection+0x1a4>)
 800106a:	f7ff f8b1 	bl	80001d0 <strlen>
 800106e:	4603      	mov	r3, r0
		HAL_UART_Transmit(&huart1, (uint8_t*) message_print,
 8001070:	b29a      	uxth	r2, r3
 8001072:	f64f 73ff 	movw	r3, #65535	; 0xffff
 8001076:	4940      	ldr	r1, [pc, #256]	; (8001178 <mode_selection+0x1a4>)
 8001078:	4840      	ldr	r0, [pc, #256]	; (800117c <mode_selection+0x1a8>)
 800107a:	f003 fbbd 	bl	80047f8 <HAL_UART_Transmit>

		EXPLORATION = 0;
 800107e:	4b39      	ldr	r3, [pc, #228]	; (8001164 <mode_selection+0x190>)
 8001080:	2200      	movs	r2, #0
 8001082:	701a      	strb	r2, [r3, #0]
		BATTLE = 1;
 8001084:	4b39      	ldr	r3, [pc, #228]	; (800116c <mode_selection+0x198>)
 8001086:	2201      	movs	r2, #1
 8001088:	701a      	strb	r2, [r3, #0]
		press = 0;
 800108a:	4b39      	ldr	r3, [pc, #228]	; (8001170 <mode_selection+0x19c>)
 800108c:	2200      	movs	r2, #0
 800108e:	701a      	strb	r2, [r3, #0]
 8001090:	e000      	b.n	8001094 <mode_selection+0xc0>
		if (press == 1) {
 8001092:	bf00      	nop
	}

	/* Battle Mode */
	if (EXPLORATION == 0 && BATTLE_WARNING_STATE == 0 && BATTLE == 1
 8001094:	4b33      	ldr	r3, [pc, #204]	; (8001164 <mode_selection+0x190>)
 8001096:	781b      	ldrb	r3, [r3, #0]
 8001098:	2b00      	cmp	r3, #0
 800109a:	d111      	bne.n	80010c0 <mode_selection+0xec>
 800109c:	4b38      	ldr	r3, [pc, #224]	; (8001180 <mode_selection+0x1ac>)
 800109e:	781b      	ldrb	r3, [r3, #0]
 80010a0:	2b00      	cmp	r3, #0
 80010a2:	d10d      	bne.n	80010c0 <mode_selection+0xec>
 80010a4:	4b31      	ldr	r3, [pc, #196]	; (800116c <mode_selection+0x198>)
 80010a6:	781b      	ldrb	r3, [r3, #0]
 80010a8:	2b01      	cmp	r3, #1
 80010aa:	d109      	bne.n	80010c0 <mode_selection+0xec>
			&& press == 0) {
 80010ac:	4b30      	ldr	r3, [pc, #192]	; (8001170 <mode_selection+0x19c>)
 80010ae:	781b      	ldrb	r3, [r3, #0]
 80010b0:	2b00      	cmp	r3, #0
 80010b2:	d105      	bne.n	80010c0 <mode_selection+0xec>
		// Battle state
		battle();
 80010b4:	f000 fb06 	bl	80016c4 <battle>
		press = 0;
 80010b8:	4b2d      	ldr	r3, [pc, #180]	; (8001170 <mode_selection+0x19c>)
 80010ba:	2200      	movs	r2, #0
 80010bc:	701a      	strb	r2, [r3, #0]
 80010be:	e04f      	b.n	8001160 <mode_selection+0x18c>
	} else if (EXPLORATION == 0 && BATTLE_WARNING_STATE == 0 && BATTLE == 1
 80010c0:	4b28      	ldr	r3, [pc, #160]	; (8001164 <mode_selection+0x190>)
 80010c2:	781b      	ldrb	r3, [r3, #0]
 80010c4:	2b00      	cmp	r3, #0
 80010c6:	d114      	bne.n	80010f2 <mode_selection+0x11e>
 80010c8:	4b2d      	ldr	r3, [pc, #180]	; (8001180 <mode_selection+0x1ac>)
 80010ca:	781b      	ldrb	r3, [r3, #0]
 80010cc:	2b00      	cmp	r3, #0
 80010ce:	d110      	bne.n	80010f2 <mode_selection+0x11e>
 80010d0:	4b26      	ldr	r3, [pc, #152]	; (800116c <mode_selection+0x198>)
 80010d2:	781b      	ldrb	r3, [r3, #0]
 80010d4:	2b01      	cmp	r3, #1
 80010d6:	d10c      	bne.n	80010f2 <mode_selection+0x11e>
			&& press == 1) {
 80010d8:	4b25      	ldr	r3, [pc, #148]	; (8001170 <mode_selection+0x19c>)
 80010da:	781b      	ldrb	r3, [r3, #0]
 80010dc:	2b01      	cmp	r3, #1
 80010de:	d108      	bne.n	80010f2 <mode_selection+0x11e>
		/*	In BATTLE_MODE, without WARNING:
		 * 	i.e., when Pixie is not sending 'SOS' message to Cyrix,
		 * 	single press triggers BATTERY_CHARGING,
		 * 	i.e., after single press, Fluxer is charged with 1/10 energy
		 * 	of its capacity.*/
		charge_fluxer_battery();
 80010e0:	f000 fd26 	bl	8001b30 <charge_fluxer_battery>
		BATTLE = 1;
 80010e4:	4b21      	ldr	r3, [pc, #132]	; (800116c <mode_selection+0x198>)
 80010e6:	2201      	movs	r2, #1
 80010e8:	701a      	strb	r2, [r3, #0]
		press = 0; // reset the press flag
 80010ea:	4b21      	ldr	r3, [pc, #132]	; (8001170 <mode_selection+0x19c>)
 80010ec:	2200      	movs	r2, #0
 80010ee:	701a      	strb	r2, [r3, #0]
 80010f0:	e036      	b.n	8001160 <mode_selection+0x18c>
	} else if (BATTLE == 1 && BATTLE_WARNING_STATE == 1) {
 80010f2:	4b1e      	ldr	r3, [pc, #120]	; (800116c <mode_selection+0x198>)
 80010f4:	781b      	ldrb	r3, [r3, #0]
 80010f6:	2b01      	cmp	r3, #1
 80010f8:	d11b      	bne.n	8001132 <mode_selection+0x15e>
 80010fa:	4b21      	ldr	r3, [pc, #132]	; (8001180 <mode_selection+0x1ac>)
 80010fc:	781b      	ldrb	r3, [r3, #0]
 80010fe:	2b01      	cmp	r3, #1
 8001100:	d117      	bne.n	8001132 <mode_selection+0x15e>
		battle_warning();
 8001102:	f000 fd39 	bl	8001b78 <battle_warning>

		if (press == 1) {
 8001106:	4b1a      	ldr	r3, [pc, #104]	; (8001170 <mode_selection+0x19c>)
 8001108:	781b      	ldrb	r3, [r3, #0]
 800110a:	2b01      	cmp	r3, #1
 800110c:	d109      	bne.n	8001122 <mode_selection+0x14e>
			// Clear the warning and go back to Battle mode
			BATTLE_WARNING_STATE = 0;
 800110e:	4b1c      	ldr	r3, [pc, #112]	; (8001180 <mode_selection+0x1ac>)
 8001110:	2200      	movs	r2, #0
 8001112:	701a      	strb	r2, [r3, #0]
			BATTLE = 1;
 8001114:	4b15      	ldr	r3, [pc, #84]	; (800116c <mode_selection+0x198>)
 8001116:	2201      	movs	r2, #1
 8001118:	701a      	strb	r2, [r3, #0]
			press = 0;
 800111a:	4b15      	ldr	r3, [pc, #84]	; (8001170 <mode_selection+0x19c>)
 800111c:	2200      	movs	r2, #0
 800111e:	701a      	strb	r2, [r3, #0]
		if (press == 1) {
 8001120:	e01d      	b.n	800115e <mode_selection+0x18a>
		} else if (press == 2) {
 8001122:	4b13      	ldr	r3, [pc, #76]	; (8001170 <mode_selection+0x19c>)
 8001124:	781b      	ldrb	r3, [r3, #0]
 8001126:	2b02      	cmp	r3, #2
 8001128:	d119      	bne.n	800115e <mode_selection+0x18a>
			// Ignore it
			press = 0;
 800112a:	4b11      	ldr	r3, [pc, #68]	; (8001170 <mode_selection+0x19c>)
 800112c:	2200      	movs	r2, #0
 800112e:	701a      	strb	r2, [r3, #0]
		if (press == 1) {
 8001130:	e015      	b.n	800115e <mode_selection+0x18a>
		}
	} else if (BATTLE == 1 && BATTLE_WARNING_STATE == 0 && press == 2) {
 8001132:	4b0e      	ldr	r3, [pc, #56]	; (800116c <mode_selection+0x198>)
 8001134:	781b      	ldrb	r3, [r3, #0]
 8001136:	2b01      	cmp	r3, #1
 8001138:	d112      	bne.n	8001160 <mode_selection+0x18c>
 800113a:	4b11      	ldr	r3, [pc, #68]	; (8001180 <mode_selection+0x1ac>)
 800113c:	781b      	ldrb	r3, [r3, #0]
 800113e:	2b00      	cmp	r3, #0
 8001140:	d10e      	bne.n	8001160 <mode_selection+0x18c>
 8001142:	4b0b      	ldr	r3, [pc, #44]	; (8001170 <mode_selection+0x19c>)
 8001144:	781b      	ldrb	r3, [r3, #0]
 8001146:	2b02      	cmp	r3, #2
 8001148:	d10a      	bne.n	8001160 <mode_selection+0x18c>
		// Change to EXPLORATION Mode
		BATTLE = 0;
 800114a:	4b08      	ldr	r3, [pc, #32]	; (800116c <mode_selection+0x198>)
 800114c:	2200      	movs	r2, #0
 800114e:	701a      	strb	r2, [r3, #0]
		EXPLORATION = 1;
 8001150:	4b04      	ldr	r3, [pc, #16]	; (8001164 <mode_selection+0x190>)
 8001152:	2201      	movs	r2, #1
 8001154:	701a      	strb	r2, [r3, #0]
		press = 0;
 8001156:	4b06      	ldr	r3, [pc, #24]	; (8001170 <mode_selection+0x19c>)
 8001158:	2200      	movs	r2, #0
 800115a:	701a      	strb	r2, [r3, #0]
	}
}
 800115c:	e000      	b.n	8001160 <mode_selection+0x18c>
		if (press == 1) {
 800115e:	bf00      	nop
}
 8001160:	bf00      	nop
 8001162:	bd80      	pop	{r7, pc}
 8001164:	20000000 	.word	0x20000000
 8001168:	2000034a 	.word	0x2000034a
 800116c:	2000034b 	.word	0x2000034b
 8001170:	20000349 	.word	0x20000349
 8001174:	08008468 	.word	0x08008468
 8001178:	20000350 	.word	0x20000350
 800117c:	200002c8 	.word	0x200002c8
 8001180:	2000034c 	.word	0x2000034c

08001184 <exploration>:
 * 			are send to Cyrix lab periodically.
 * @note	The sensors are grouped in a struct for easier data manipulation.
 * @retval	None
 */

static void exploration(void) {
 8001184:	e92d 4fb0 	stmdb	sp!, {r4, r5, r7, r8, r9, sl, fp, lr}
 8001188:	b096      	sub	sp, #88	; 0x58
 800118a:	af0e      	add	r7, sp, #56	; 0x38

	// Reset variables
	sensor_data_t_exploration.humidity_data = 0;
 800118c:	4bb8      	ldr	r3, [pc, #736]	; (8001470 <exploration+0x2ec>)
 800118e:	f04f 0200 	mov.w	r2, #0
 8001192:	605a      	str	r2, [r3, #4]
	sensor_data_t_exploration.pressure_data = 0;
 8001194:	4bb6      	ldr	r3, [pc, #728]	; (8001470 <exploration+0x2ec>)
 8001196:	f04f 0200 	mov.w	r2, #0
 800119a:	609a      	str	r2, [r3, #8]
	sensor_data_t_exploration.magnetometer_raw_data[3] = 0;
 800119c:	4bb4      	ldr	r3, [pc, #720]	; (8001470 <exploration+0x2ec>)
 800119e:	2200      	movs	r2, #0
 80011a0:	82da      	strh	r2, [r3, #22]
	sensor_data_t_exploration.magnetometer_data[3] = 0;
 80011a2:	4bb3      	ldr	r3, [pc, #716]	; (8001470 <exploration+0x2ec>)
 80011a4:	f04f 0200 	mov.w	r2, #0
 80011a8:	625a      	str	r2, [r3, #36]	; 0x24
	sensor_data_t_exploration.gyroscope_raw_data[3] = 0;
 80011aa:	4bb1      	ldr	r3, [pc, #708]	; (8001470 <exploration+0x2ec>)
 80011ac:	f04f 0200 	mov.w	r2, #0
 80011b0:	645a      	str	r2, [r3, #68]	; 0x44
	sensor_data_t_exploration.gyroscope_data[3] = 0;
 80011b2:	4baf      	ldr	r3, [pc, #700]	; (8001470 <exploration+0x2ec>)
 80011b4:	f04f 0200 	mov.w	r2, #0
 80011b8:	651a      	str	r2, [r3, #80]	; 0x50

	// Read Humidity readings
	sensor_data_t_exploration.humidity_data = BSP_HSENSOR_ReadHumidity();
 80011ba:	f001 fa15 	bl	80025e8 <BSP_HSENSOR_ReadHumidity>
 80011be:	eef0 7a40 	vmov.f32	s15, s0
 80011c2:	4bab      	ldr	r3, [pc, #684]	; (8001470 <exploration+0x2ec>)
 80011c4:	edc3 7a01 	vstr	s15, [r3, #4]
	// Read the pressure in units (Pascal)
	// One hectopascal(hPa) is equal to exactly 100 Pascals.
	sensor_data_t_exploration.pressure_data = BSP_PSENSOR_ReadPressure()
 80011c8:	f001 fa80 	bl	80026cc <BSP_PSENSOR_ReadPressure>
 80011cc:	eef0 7a40 	vmov.f32	s15, s0
			* 100.0f;
 80011d0:	ed9f 7aa8 	vldr	s14, [pc, #672]	; 8001474 <exploration+0x2f0>
 80011d4:	ee67 7a87 	vmul.f32	s15, s15, s14
	sensor_data_t_exploration.pressure_data = BSP_PSENSOR_ReadPressure()
 80011d8:	4ba5      	ldr	r3, [pc, #660]	; (8001470 <exploration+0x2ec>)
 80011da:	edc3 7a02 	vstr	s15, [r3, #8]

	// Pass in the memory address to pDataXYZ Pointer to get XYZ magnetometer values.
	BSP_MAGNETO_GetXYZ(sensor_data_t_exploration.magnetometer_raw_data);
 80011de:	48a6      	ldr	r0, [pc, #664]	; (8001478 <exploration+0x2f4>)
 80011e0:	f001 fa3c 	bl	800265c <BSP_MAGNETO_GetXYZ>

	sensor_data_t_exploration.magnetometer_data[0] =
			(float) sensor_data_t_exploration.magnetometer_raw_data[0]
 80011e4:	4ba2      	ldr	r3, [pc, #648]	; (8001470 <exploration+0x2ec>)
 80011e6:	f9b3 3010 	ldrsh.w	r3, [r3, #16]
 80011ea:	ee07 3a90 	vmov	s15, r3
 80011ee:	eeb8 7ae7 	vcvt.f32.s32	s14, s15
					/ 1000.0f;
 80011f2:	eddf 6aa2 	vldr	s13, [pc, #648]	; 800147c <exploration+0x2f8>
 80011f6:	eec7 7a26 	vdiv.f32	s15, s14, s13
	sensor_data_t_exploration.magnetometer_data[0] =
 80011fa:	4b9d      	ldr	r3, [pc, #628]	; (8001470 <exploration+0x2ec>)
 80011fc:	edc3 7a06 	vstr	s15, [r3, #24]
	sensor_data_t_exploration.magnetometer_data[1] =
			(float) sensor_data_t_exploration.magnetometer_raw_data[1]
 8001200:	4b9b      	ldr	r3, [pc, #620]	; (8001470 <exploration+0x2ec>)
 8001202:	f9b3 3012 	ldrsh.w	r3, [r3, #18]
 8001206:	ee07 3a90 	vmov	s15, r3
 800120a:	eeb8 7ae7 	vcvt.f32.s32	s14, s15
					/ 1000.0f;
 800120e:	eddf 6a9b 	vldr	s13, [pc, #620]	; 800147c <exploration+0x2f8>
 8001212:	eec7 7a26 	vdiv.f32	s15, s14, s13
	sensor_data_t_exploration.magnetometer_data[1] =
 8001216:	4b96      	ldr	r3, [pc, #600]	; (8001470 <exploration+0x2ec>)
 8001218:	edc3 7a07 	vstr	s15, [r3, #28]
	sensor_data_t_exploration.magnetometer_data[2] =
			(float) sensor_data_t_exploration.magnetometer_raw_data[2]
 800121c:	4b94      	ldr	r3, [pc, #592]	; (8001470 <exploration+0x2ec>)
 800121e:	f9b3 3014 	ldrsh.w	r3, [r3, #20]
 8001222:	ee07 3a90 	vmov	s15, r3
 8001226:	eeb8 7ae7 	vcvt.f32.s32	s14, s15
					/ 1000.0f;
 800122a:	eddf 6a94 	vldr	s13, [pc, #592]	; 800147c <exploration+0x2f8>
 800122e:	eec7 7a26 	vdiv.f32	s15, s14, s13
	sensor_data_t_exploration.magnetometer_data[2] =
 8001232:	4b8f      	ldr	r3, [pc, #572]	; (8001470 <exploration+0x2ec>)
 8001234:	edc3 7a08 	vstr	s15, [r3, #32]

	// Pass in the memory address to pDataXYZ Pointer to get XYZ gyroscope values.
	BSP_GYRO_GetXYZ(sensor_data_t_exploration.gyroscope_raw_data);
 8001238:	4891      	ldr	r0, [pc, #580]	; (8001480 <exploration+0x2fc>)
 800123a:	f001 f99d 	bl	8002578 <BSP_GYRO_GetXYZ>
	sensor_data_t_exploration.gyroscope_data[0] =
			sensor_data_t_exploration.gyroscope_raw_data[0] / 1000.0f;
 800123e:	4b8c      	ldr	r3, [pc, #560]	; (8001470 <exploration+0x2ec>)
 8001240:	ed93 7a0e 	vldr	s14, [r3, #56]	; 0x38
 8001244:	eddf 6a8d 	vldr	s13, [pc, #564]	; 800147c <exploration+0x2f8>
 8001248:	eec7 7a26 	vdiv.f32	s15, s14, s13
	sensor_data_t_exploration.gyroscope_data[0] =
 800124c:	4b88      	ldr	r3, [pc, #544]	; (8001470 <exploration+0x2ec>)
 800124e:	edc3 7a11 	vstr	s15, [r3, #68]	; 0x44
	sensor_data_t_exploration.gyroscope_data[1] =
			sensor_data_t_exploration.gyroscope_raw_data[1] / 1000.0f;
 8001252:	4b87      	ldr	r3, [pc, #540]	; (8001470 <exploration+0x2ec>)
 8001254:	ed93 7a0f 	vldr	s14, [r3, #60]	; 0x3c
 8001258:	eddf 6a88 	vldr	s13, [pc, #544]	; 800147c <exploration+0x2f8>
 800125c:	eec7 7a26 	vdiv.f32	s15, s14, s13
	sensor_data_t_exploration.gyroscope_data[1] =
 8001260:	4b83      	ldr	r3, [pc, #524]	; (8001470 <exploration+0x2ec>)
 8001262:	edc3 7a12 	vstr	s15, [r3, #72]	; 0x48
	sensor_data_t_exploration.gyroscope_data[2] =
			sensor_data_t_exploration.gyroscope_raw_data[2] / 1000.0f;
 8001266:	4b82      	ldr	r3, [pc, #520]	; (8001470 <exploration+0x2ec>)
 8001268:	ed93 7a10 	vldr	s14, [r3, #64]	; 0x40
 800126c:	eddf 6a83 	vldr	s13, [pc, #524]	; 800147c <exploration+0x2f8>
 8001270:	eec7 7a26 	vdiv.f32	s15, s14, s13
	sensor_data_t_exploration.gyroscope_data[2] =
 8001274:	4b7e      	ldr	r3, [pc, #504]	; (8001470 <exploration+0x2ec>)
 8001276:	edc3 7a13 	vstr	s15, [r3, #76]	; 0x4c
	 * 			3. Reset flags to SAFE before leaving exploration mode
	 * 			and reaching to warning state.
	 * 			4. Reset count_warnings counter to 0.
	 * 			5. Set the EXPLORATION_WARNING_STATE flag to 1.
	 */
	if ((abs((int) sensor_data_t_exploration.magnetometer_data[0])
 800127a:	4b7d      	ldr	r3, [pc, #500]	; (8001470 <exploration+0x2ec>)
 800127c:	edd3 7a06 	vldr	s15, [r3, #24]
 8001280:	eefd 7ae7 	vcvt.s32.f32	s15, s15
 8001284:	ee17 3a90 	vmov	r3, s15
 8001288:	2b00      	cmp	r3, #0
 800128a:	bfb8      	it	lt
 800128c:	425b      	neglt	r3, r3
 800128e:	2b02      	cmp	r3, #2
 8001290:	dc17      	bgt.n	80012c2 <exploration+0x13e>
			>= MAG_THRESHOLD
			|| abs((int) sensor_data_t_exploration.magnetometer_data[1])
 8001292:	4b77      	ldr	r3, [pc, #476]	; (8001470 <exploration+0x2ec>)
 8001294:	edd3 7a07 	vldr	s15, [r3, #28]
 8001298:	eefd 7ae7 	vcvt.s32.f32	s15, s15
 800129c:	ee17 3a90 	vmov	r3, s15
 80012a0:	2b00      	cmp	r3, #0
 80012a2:	bfb8      	it	lt
 80012a4:	425b      	neglt	r3, r3
 80012a6:	2b02      	cmp	r3, #2
 80012a8:	dc0b      	bgt.n	80012c2 <exploration+0x13e>
					>= MAG_THRESHOLD
			|| abs((int) sensor_data_t_exploration.magnetometer_data[2])
 80012aa:	4b71      	ldr	r3, [pc, #452]	; (8001470 <exploration+0x2ec>)
 80012ac:	edd3 7a08 	vldr	s15, [r3, #32]
 80012b0:	eefd 7ae7 	vcvt.s32.f32	s15, s15
 80012b4:	ee17 3a90 	vmov	r3, s15
 80012b8:	2b00      	cmp	r3, #0
 80012ba:	bfb8      	it	lt
 80012bc:	425b      	neglt	r3, r3
 80012be:	2b02      	cmp	r3, #2
 80012c0:	dd1e      	ble.n	8001300 <exploration+0x17c>
					>= MAG_THRESHOLD) && MAGNETOMETER_Flag != WARNING) {
 80012c2:	4b70      	ldr	r3, [pc, #448]	; (8001484 <exploration+0x300>)
 80012c4:	781b      	ldrb	r3, [r3, #0]
 80012c6:	b2db      	uxtb	r3, r3
 80012c8:	2b01      	cmp	r3, #1
 80012ca:	d019      	beq.n	8001300 <exploration+0x17c>

		// Set MAGNETOMETER_Flag to WARNING
		MAGNETOMETER_Flag = WARNING;
 80012cc:	4b6d      	ldr	r3, [pc, #436]	; (8001484 <exploration+0x300>)
 80012ce:	2201      	movs	r2, #1
 80012d0:	701a      	strb	r2, [r3, #0]
		//memset(message_print, 0, strlen(message_print));
		snprintf(message_print, MESSAGE_SIZE, "Magnetometer Flag enabled \r\n");
 80012d2:	4a6d      	ldr	r2, [pc, #436]	; (8001488 <exploration+0x304>)
 80012d4:	f44f 7196 	mov.w	r1, #300	; 0x12c
 80012d8:	486c      	ldr	r0, [pc, #432]	; (800148c <exploration+0x308>)
 80012da:	f004 ffb7 	bl	800624c <sniprintf>
		HAL_UART_Transmit(&huart1, (uint8_t*) message_print,
				strlen(message_print), 0xFFFF);
 80012de:	486b      	ldr	r0, [pc, #428]	; (800148c <exploration+0x308>)
 80012e0:	f7fe ff76 	bl	80001d0 <strlen>
 80012e4:	4603      	mov	r3, r0
		HAL_UART_Transmit(&huart1, (uint8_t*) message_print,
 80012e6:	b29a      	uxth	r2, r3
 80012e8:	f64f 73ff 	movw	r3, #65535	; 0xffff
 80012ec:	4967      	ldr	r1, [pc, #412]	; (800148c <exploration+0x308>)
 80012ee:	4868      	ldr	r0, [pc, #416]	; (8001490 <exploration+0x30c>)
 80012f0:	f003 fa82 	bl	80047f8 <HAL_UART_Transmit>
		count_warnings += 1;
 80012f4:	4b67      	ldr	r3, [pc, #412]	; (8001494 <exploration+0x310>)
 80012f6:	781b      	ldrb	r3, [r3, #0]
 80012f8:	3301      	adds	r3, #1
 80012fa:	b2da      	uxtb	r2, r3
 80012fc:	4b65      	ldr	r3, [pc, #404]	; (8001494 <exploration+0x310>)
 80012fe:	701a      	strb	r2, [r3, #0]
	}

	if ((abs((int) sensor_data_t_exploration.gyroscope_data[0])
 8001300:	4b5b      	ldr	r3, [pc, #364]	; (8001470 <exploration+0x2ec>)
 8001302:	edd3 7a11 	vldr	s15, [r3, #68]	; 0x44
 8001306:	eefd 7ae7 	vcvt.s32.f32	s15, s15
 800130a:	ee17 3a90 	vmov	r3, s15
 800130e:	2b00      	cmp	r3, #0
 8001310:	bfb8      	it	lt
 8001312:	425b      	neglt	r3, r3
 8001314:	2b63      	cmp	r3, #99	; 0x63
 8001316:	dc0b      	bgt.n	8001330 <exploration+0x1ac>
			>= GYRO_THRESHOLD
			|| abs((int) sensor_data_t_exploration.gyroscope_data[1])
 8001318:	4b55      	ldr	r3, [pc, #340]	; (8001470 <exploration+0x2ec>)
 800131a:	edd3 7a12 	vldr	s15, [r3, #72]	; 0x48
 800131e:	eefd 7ae7 	vcvt.s32.f32	s15, s15
 8001322:	ee17 3a90 	vmov	r3, s15
 8001326:	2b00      	cmp	r3, #0
 8001328:	bfb8      	it	lt
 800132a:	425b      	neglt	r3, r3
 800132c:	2b63      	cmp	r3, #99	; 0x63
 800132e:	dd1e      	ble.n	800136e <exploration+0x1ea>
					>= GYRO_THRESHOLD) && GYROSCOPE_Flag != WARNING) {
 8001330:	4b59      	ldr	r3, [pc, #356]	; (8001498 <exploration+0x314>)
 8001332:	781b      	ldrb	r3, [r3, #0]
 8001334:	b2db      	uxtb	r3, r3
 8001336:	2b01      	cmp	r3, #1
 8001338:	d019      	beq.n	800136e <exploration+0x1ea>

		// Set GYROSCOPE_Flag to WARNING
		GYROSCOPE_Flag = WARNING;
 800133a:	4b57      	ldr	r3, [pc, #348]	; (8001498 <exploration+0x314>)
 800133c:	2201      	movs	r2, #1
 800133e:	701a      	strb	r2, [r3, #0]
		//memset(message_print, 0, strlen(message_print));
		snprintf(message_print, MESSAGE_SIZE, "Gyroscope Flag enabled \r\n");
 8001340:	4a56      	ldr	r2, [pc, #344]	; (800149c <exploration+0x318>)
 8001342:	f44f 7196 	mov.w	r1, #300	; 0x12c
 8001346:	4851      	ldr	r0, [pc, #324]	; (800148c <exploration+0x308>)
 8001348:	f004 ff80 	bl	800624c <sniprintf>
		HAL_UART_Transmit(&huart1, (uint8_t*) message_print,
				strlen(message_print), 0xFFFF);
 800134c:	484f      	ldr	r0, [pc, #316]	; (800148c <exploration+0x308>)
 800134e:	f7fe ff3f 	bl	80001d0 <strlen>
 8001352:	4603      	mov	r3, r0
		HAL_UART_Transmit(&huart1, (uint8_t*) message_print,
 8001354:	b29a      	uxth	r2, r3
 8001356:	f64f 73ff 	movw	r3, #65535	; 0xffff
 800135a:	494c      	ldr	r1, [pc, #304]	; (800148c <exploration+0x308>)
 800135c:	484c      	ldr	r0, [pc, #304]	; (8001490 <exploration+0x30c>)
 800135e:	f003 fa4b 	bl	80047f8 <HAL_UART_Transmit>
		count_warnings += 1;
 8001362:	4b4c      	ldr	r3, [pc, #304]	; (8001494 <exploration+0x310>)
 8001364:	781b      	ldrb	r3, [r3, #0]
 8001366:	3301      	adds	r3, #1
 8001368:	b2da      	uxtb	r2, r3
 800136a:	4b4a      	ldr	r3, [pc, #296]	; (8001494 <exploration+0x310>)
 800136c:	701a      	strb	r2, [r3, #0]
	}

	if (((sensor_data_t_exploration.pressure_data <= PRES_THRESHOLD_MIN)
 800136e:	4b40      	ldr	r3, [pc, #256]	; (8001470 <exploration+0x2ec>)
 8001370:	edd3 7a02 	vldr	s15, [r3, #8]
 8001374:	ed9f 7a4a 	vldr	s14, [pc, #296]	; 80014a0 <exploration+0x31c>
 8001378:	eef4 7ac7 	vcmpe.f32	s15, s14
 800137c:	eef1 fa10 	vmrs	APSR_nzcv, fpscr
 8001380:	d909      	bls.n	8001396 <exploration+0x212>
			|| (sensor_data_t_exploration.pressure_data >= PRES_THRESHOLD_MAX))
 8001382:	4b3b      	ldr	r3, [pc, #236]	; (8001470 <exploration+0x2ec>)
 8001384:	edd3 7a02 	vldr	s15, [r3, #8]
 8001388:	ed9f 7a46 	vldr	s14, [pc, #280]	; 80014a4 <exploration+0x320>
 800138c:	eef4 7ac7 	vcmpe.f32	s15, s14
 8001390:	eef1 fa10 	vmrs	APSR_nzcv, fpscr
 8001394:	db27      	blt.n	80013e6 <exploration+0x262>
			&& PRESSURE_Flag != WARNING) {
 8001396:	4b44      	ldr	r3, [pc, #272]	; (80014a8 <exploration+0x324>)
 8001398:	781b      	ldrb	r3, [r3, #0]
 800139a:	b2db      	uxtb	r3, r3
 800139c:	2b01      	cmp	r3, #1
 800139e:	d022      	beq.n	80013e6 <exploration+0x262>

		// Set PRESSURE_Flag to WARNING
		PRESSURE_Flag = WARNING;
 80013a0:	4b41      	ldr	r3, [pc, #260]	; (80014a8 <exploration+0x324>)
 80013a2:	2201      	movs	r2, #1
 80013a4:	701a      	strb	r2, [r3, #0]
		//memset(message_print, 0, strlen(message_print));
		snprintf(message_print, MESSAGE_SIZE,
				"Pressure Flag enabled P:%0.2f (Pa) \r\n",
				sensor_data_t_exploration.pressure_data);
 80013a6:	4b32      	ldr	r3, [pc, #200]	; (8001470 <exploration+0x2ec>)
 80013a8:	689b      	ldr	r3, [r3, #8]
		snprintf(message_print, MESSAGE_SIZE,
 80013aa:	4618      	mov	r0, r3
 80013ac:	f7ff f8cc 	bl	8000548 <__aeabi_f2d>
 80013b0:	4602      	mov	r2, r0
 80013b2:	460b      	mov	r3, r1
 80013b4:	e9cd 2300 	strd	r2, r3, [sp]
 80013b8:	4a3c      	ldr	r2, [pc, #240]	; (80014ac <exploration+0x328>)
 80013ba:	f44f 7196 	mov.w	r1, #300	; 0x12c
 80013be:	4833      	ldr	r0, [pc, #204]	; (800148c <exploration+0x308>)
 80013c0:	f004 ff44 	bl	800624c <sniprintf>
		HAL_UART_Transmit(&huart1, (uint8_t*) message_print,
				strlen(message_print), 0xFFFF);
 80013c4:	4831      	ldr	r0, [pc, #196]	; (800148c <exploration+0x308>)
 80013c6:	f7fe ff03 	bl	80001d0 <strlen>
 80013ca:	4603      	mov	r3, r0
		HAL_UART_Transmit(&huart1, (uint8_t*) message_print,
 80013cc:	b29a      	uxth	r2, r3
 80013ce:	f64f 73ff 	movw	r3, #65535	; 0xffff
 80013d2:	492e      	ldr	r1, [pc, #184]	; (800148c <exploration+0x308>)
 80013d4:	482e      	ldr	r0, [pc, #184]	; (8001490 <exploration+0x30c>)
 80013d6:	f003 fa0f 	bl	80047f8 <HAL_UART_Transmit>
		count_warnings += 1;
 80013da:	4b2e      	ldr	r3, [pc, #184]	; (8001494 <exploration+0x310>)
 80013dc:	781b      	ldrb	r3, [r3, #0]
 80013de:	3301      	adds	r3, #1
 80013e0:	b2da      	uxtb	r2, r3
 80013e2:	4b2c      	ldr	r3, [pc, #176]	; (8001494 <exploration+0x310>)
 80013e4:	701a      	strb	r2, [r3, #0]
	}

	if ((sensor_data_t_exploration.humidity_data <= HUM_THRESHOLD)
 80013e6:	4b22      	ldr	r3, [pc, #136]	; (8001470 <exploration+0x2ec>)
 80013e8:	edd3 7a01 	vldr	s15, [r3, #4]
 80013ec:	eeb3 7a0e 	vmov.f32	s14, #62	; 0x41f00000  30.0
 80013f0:	eef4 7ac7 	vcmpe.f32	s15, s14
 80013f4:	eef1 fa10 	vmrs	APSR_nzcv, fpscr
 80013f8:	d827      	bhi.n	800144a <exploration+0x2c6>
			&& (HUMIDITY_Flag != WARNING)) {
 80013fa:	4b2d      	ldr	r3, [pc, #180]	; (80014b0 <exploration+0x32c>)
 80013fc:	781b      	ldrb	r3, [r3, #0]
 80013fe:	b2db      	uxtb	r3, r3
 8001400:	2b01      	cmp	r3, #1
 8001402:	d022      	beq.n	800144a <exploration+0x2c6>

		// Set HUMIDITY_Flag to WARNING
		HUMIDITY_Flag = WARNING;
 8001404:	4b2a      	ldr	r3, [pc, #168]	; (80014b0 <exploration+0x32c>)
 8001406:	2201      	movs	r2, #1
 8001408:	701a      	strb	r2, [r3, #0]

		//memset(message_print, 0, strlen(message_print));
		snprintf(message_print, MESSAGE_SIZE,
				"Humidity Flag enabled , H:%0.2f (%%RH) \r\n",
				sensor_data_t_exploration.humidity_data);
 800140a:	4b19      	ldr	r3, [pc, #100]	; (8001470 <exploration+0x2ec>)
 800140c:	685b      	ldr	r3, [r3, #4]
		snprintf(message_print, MESSAGE_SIZE,
 800140e:	4618      	mov	r0, r3
 8001410:	f7ff f89a 	bl	8000548 <__aeabi_f2d>
 8001414:	4602      	mov	r2, r0
 8001416:	460b      	mov	r3, r1
 8001418:	e9cd 2300 	strd	r2, r3, [sp]
 800141c:	4a25      	ldr	r2, [pc, #148]	; (80014b4 <exploration+0x330>)
 800141e:	f44f 7196 	mov.w	r1, #300	; 0x12c
 8001422:	481a      	ldr	r0, [pc, #104]	; (800148c <exploration+0x308>)
 8001424:	f004 ff12 	bl	800624c <sniprintf>
		HAL_UART_Transmit(&huart1, (uint8_t*) message_print,
				strlen(message_print), 0xFFFF);
 8001428:	4818      	ldr	r0, [pc, #96]	; (800148c <exploration+0x308>)
 800142a:	f7fe fed1 	bl	80001d0 <strlen>
 800142e:	4603      	mov	r3, r0
		HAL_UART_Transmit(&huart1, (uint8_t*) message_print,
 8001430:	b29a      	uxth	r2, r3
 8001432:	f64f 73ff 	movw	r3, #65535	; 0xffff
 8001436:	4915      	ldr	r1, [pc, #84]	; (800148c <exploration+0x308>)
 8001438:	4815      	ldr	r0, [pc, #84]	; (8001490 <exploration+0x30c>)
 800143a:	f003 f9dd 	bl	80047f8 <HAL_UART_Transmit>
		count_warnings += 1;
 800143e:	4b15      	ldr	r3, [pc, #84]	; (8001494 <exploration+0x310>)
 8001440:	781b      	ldrb	r3, [r3, #0]
 8001442:	3301      	adds	r3, #1
 8001444:	b2da      	uxtb	r2, r3
 8001446:	4b13      	ldr	r3, [pc, #76]	; (8001494 <exploration+0x310>)
 8001448:	701a      	strb	r2, [r3, #0]
	}

	// Code for IR sensor; CCK to reduce the distance, ACCK to increase the distance
	uint8_t IR_sensor_push_button = HAL_GPIO_ReadPin(GPIOD, GPIO_PIN_14);
 800144a:	f44f 4180 	mov.w	r1, #16384	; 0x4000
 800144e:	481a      	ldr	r0, [pc, #104]	; (80014b8 <exploration+0x334>)
 8001450:	f002 fb0a 	bl	8003a68 <HAL_GPIO_ReadPin>
 8001454:	4603      	mov	r3, r0
 8001456:	77fb      	strb	r3, [r7, #31]
	if ((IR_sensor_push_button == 0) && (IR_Flag != WARNING)) {
 8001458:	7ffb      	ldrb	r3, [r7, #31]
 800145a:	2b00      	cmp	r3, #0
 800145c:	d149      	bne.n	80014f2 <exploration+0x36e>
 800145e:	4b17      	ldr	r3, [pc, #92]	; (80014bc <exploration+0x338>)
 8001460:	781b      	ldrb	r3, [r3, #0]
 8001462:	b2db      	uxtb	r3, r3
 8001464:	2b01      	cmp	r3, #1
 8001466:	d044      	beq.n	80014f2 <exploration+0x36e>
		IR_Flag = WARNING;
 8001468:	4b14      	ldr	r3, [pc, #80]	; (80014bc <exploration+0x338>)
 800146a:	2201      	movs	r2, #1
 800146c:	701a      	strb	r2, [r3, #0]
 800146e:	e027      	b.n	80014c0 <exploration+0x33c>
 8001470:	200004a4 	.word	0x200004a4
 8001474:	42c80000 	.word	0x42c80000
 8001478:	200004b4 	.word	0x200004b4
 800147c:	447a0000 	.word	0x447a0000
 8001480:	200004dc 	.word	0x200004dc
 8001484:	2000049d 	.word	0x2000049d
 8001488:	08008480 	.word	0x08008480
 800148c:	20000350 	.word	0x20000350
 8001490:	200002c8 	.word	0x200002c8
 8001494:	2000034d 	.word	0x2000034d
 8001498:	2000049c 	.word	0x2000049c
 800149c:	080084a0 	.word	0x080084a0
 80014a0:	47afc800 	.word	0x47afc800
 80014a4:	47cd1400 	.word	0x47cd1400
 80014a8:	2000049e 	.word	0x2000049e
 80014ac:	080084bc 	.word	0x080084bc
 80014b0:	2000049f 	.word	0x2000049f
 80014b4:	080084e4 	.word	0x080084e4
 80014b8:	48000c00 	.word	0x48000c00
 80014bc:	200004a0 	.word	0x200004a0
		snprintf(message_print, MESSAGE_SIZE, "INFRARED SENSOR enabled \r\n");
 80014c0:	4a54      	ldr	r2, [pc, #336]	; (8001614 <exploration+0x490>)
 80014c2:	f44f 7196 	mov.w	r1, #300	; 0x12c
 80014c6:	4854      	ldr	r0, [pc, #336]	; (8001618 <exploration+0x494>)
 80014c8:	f004 fec0 	bl	800624c <sniprintf>
		HAL_UART_Transmit(&huart1, (uint8_t*) message_print,
				strlen(message_print), 0xFFFF);
 80014cc:	4852      	ldr	r0, [pc, #328]	; (8001618 <exploration+0x494>)
 80014ce:	f7fe fe7f 	bl	80001d0 <strlen>
 80014d2:	4603      	mov	r3, r0
		HAL_UART_Transmit(&huart1, (uint8_t*) message_print,
 80014d4:	b29a      	uxth	r2, r3
 80014d6:	f64f 73ff 	movw	r3, #65535	; 0xffff
 80014da:	494f      	ldr	r1, [pc, #316]	; (8001618 <exploration+0x494>)
 80014dc:	484f      	ldr	r0, [pc, #316]	; (800161c <exploration+0x498>)
 80014de:	f003 f98b 	bl	80047f8 <HAL_UART_Transmit>
		count_warnings += 1;
 80014e2:	4b4f      	ldr	r3, [pc, #316]	; (8001620 <exploration+0x49c>)
 80014e4:	781b      	ldrb	r3, [r3, #0]
 80014e6:	3301      	adds	r3, #1
 80014e8:	b2da      	uxtb	r2, r3
 80014ea:	4b4d      	ldr	r3, [pc, #308]	; (8001620 <exploration+0x49c>)
 80014ec:	701a      	strb	r2, [r3, #0]
		IR_sensor_push_button = 1; // reset the state of the push button
 80014ee:	2301      	movs	r3, #1
 80014f0:	77fb      	strb	r3, [r7, #31]
	}

	// In EXPLORATION MODE, only those sensors mounted on Pixie are read periodically every ONE second
	if ((HAL_GetTick() - time_EXPLORATION_SENSOR > 1000)
 80014f2:	f001 fefd 	bl	80032f0 <HAL_GetTick>
 80014f6:	4602      	mov	r2, r0
 80014f8:	4b4a      	ldr	r3, [pc, #296]	; (8001624 <exploration+0x4a0>)
 80014fa:	681b      	ldr	r3, [r3, #0]
 80014fc:	1ad3      	subs	r3, r2, r3
 80014fe:	f5b3 7f7a 	cmp.w	r3, #1000	; 0x3e8
 8001502:	d95e      	bls.n	80015c2 <exploration+0x43e>
			&& (count_warnings != 2)) {
 8001504:	4b46      	ldr	r3, [pc, #280]	; (8001620 <exploration+0x49c>)
 8001506:	781b      	ldrb	r3, [r3, #0]
 8001508:	2b02      	cmp	r3, #2
 800150a:	d05a      	beq.n	80015c2 <exploration+0x43e>
		//memset(message_print, 0, strlen(message_print));
		snprintf(message_print, MESSAGE_SIZE,
				"1, G:%0.2f:%0.2f (dps), M:%0.3f:%0.3f:%0.3f (Gauss), P:%0.2f (Pa), H:%0.2f (%%RH) \r\n",
				sensor_data_t_exploration.gyroscope_data[0],
 800150c:	4b46      	ldr	r3, [pc, #280]	; (8001628 <exploration+0x4a4>)
 800150e:	6c5b      	ldr	r3, [r3, #68]	; 0x44
		snprintf(message_print, MESSAGE_SIZE,
 8001510:	4618      	mov	r0, r3
 8001512:	f7ff f819 	bl	8000548 <__aeabi_f2d>
 8001516:	4680      	mov	r8, r0
 8001518:	4689      	mov	r9, r1
				sensor_data_t_exploration.gyroscope_data[1],
 800151a:	4b43      	ldr	r3, [pc, #268]	; (8001628 <exploration+0x4a4>)
 800151c:	6c9b      	ldr	r3, [r3, #72]	; 0x48
		snprintf(message_print, MESSAGE_SIZE,
 800151e:	4618      	mov	r0, r3
 8001520:	f7ff f812 	bl	8000548 <__aeabi_f2d>
 8001524:	4682      	mov	sl, r0
 8001526:	468b      	mov	fp, r1
				// sensor_data_t_exploration.gyroscope_data[2],
				sensor_data_t_exploration.magnetometer_data[0],
 8001528:	4b3f      	ldr	r3, [pc, #252]	; (8001628 <exploration+0x4a4>)
 800152a:	699b      	ldr	r3, [r3, #24]
		snprintf(message_print, MESSAGE_SIZE,
 800152c:	4618      	mov	r0, r3
 800152e:	f7ff f80b 	bl	8000548 <__aeabi_f2d>
 8001532:	e9c7 0104 	strd	r0, r1, [r7, #16]
				sensor_data_t_exploration.magnetometer_data[1],
 8001536:	4b3c      	ldr	r3, [pc, #240]	; (8001628 <exploration+0x4a4>)
 8001538:	69db      	ldr	r3, [r3, #28]
		snprintf(message_print, MESSAGE_SIZE,
 800153a:	4618      	mov	r0, r3
 800153c:	f7ff f804 	bl	8000548 <__aeabi_f2d>
 8001540:	e9c7 0102 	strd	r0, r1, [r7, #8]
				sensor_data_t_exploration.magnetometer_data[2],
 8001544:	4b38      	ldr	r3, [pc, #224]	; (8001628 <exploration+0x4a4>)
 8001546:	6a1b      	ldr	r3, [r3, #32]
		snprintf(message_print, MESSAGE_SIZE,
 8001548:	4618      	mov	r0, r3
 800154a:	f7fe fffd 	bl	8000548 <__aeabi_f2d>
 800154e:	e9c7 0100 	strd	r0, r1, [r7]
				sensor_data_t_exploration.pressure_data,
 8001552:	4b35      	ldr	r3, [pc, #212]	; (8001628 <exploration+0x4a4>)
 8001554:	689b      	ldr	r3, [r3, #8]
		snprintf(message_print, MESSAGE_SIZE,
 8001556:	4618      	mov	r0, r3
 8001558:	f7fe fff6 	bl	8000548 <__aeabi_f2d>
 800155c:	4604      	mov	r4, r0
 800155e:	460d      	mov	r5, r1
				sensor_data_t_exploration.humidity_data);
 8001560:	4b31      	ldr	r3, [pc, #196]	; (8001628 <exploration+0x4a4>)
 8001562:	685b      	ldr	r3, [r3, #4]
		snprintf(message_print, MESSAGE_SIZE,
 8001564:	4618      	mov	r0, r3
 8001566:	f7fe ffef 	bl	8000548 <__aeabi_f2d>
 800156a:	4602      	mov	r2, r0
 800156c:	460b      	mov	r3, r1
 800156e:	e9cd 230c 	strd	r2, r3, [sp, #48]	; 0x30
 8001572:	e9cd 450a 	strd	r4, r5, [sp, #40]	; 0x28
 8001576:	ed97 7b00 	vldr	d7, [r7]
 800157a:	ed8d 7b08 	vstr	d7, [sp, #32]
 800157e:	ed97 7b02 	vldr	d7, [r7, #8]
 8001582:	ed8d 7b06 	vstr	d7, [sp, #24]
 8001586:	ed97 7b04 	vldr	d7, [r7, #16]
 800158a:	ed8d 7b04 	vstr	d7, [sp, #16]
 800158e:	e9cd ab02 	strd	sl, fp, [sp, #8]
 8001592:	e9cd 8900 	strd	r8, r9, [sp]
 8001596:	4a25      	ldr	r2, [pc, #148]	; (800162c <exploration+0x4a8>)
 8001598:	f44f 7196 	mov.w	r1, #300	; 0x12c
 800159c:	481e      	ldr	r0, [pc, #120]	; (8001618 <exploration+0x494>)
 800159e:	f004 fe55 	bl	800624c <sniprintf>
		HAL_UART_Transmit(&huart1, (uint8_t*) message_print,
				strlen(message_print), 0xFFFF);
 80015a2:	481d      	ldr	r0, [pc, #116]	; (8001618 <exploration+0x494>)
 80015a4:	f7fe fe14 	bl	80001d0 <strlen>
 80015a8:	4603      	mov	r3, r0
		HAL_UART_Transmit(&huart1, (uint8_t*) message_print,
 80015aa:	b29a      	uxth	r2, r3
 80015ac:	f64f 73ff 	movw	r3, #65535	; 0xffff
 80015b0:	4919      	ldr	r1, [pc, #100]	; (8001618 <exploration+0x494>)
 80015b2:	481a      	ldr	r0, [pc, #104]	; (800161c <exploration+0x498>)
 80015b4:	f003 f920 	bl	80047f8 <HAL_UART_Transmit>

		time_EXPLORATION_SENSOR = HAL_GetTick(); // reset the variable
 80015b8:	f001 fe9a 	bl	80032f0 <HAL_GetTick>
 80015bc:	4603      	mov	r3, r0
 80015be:	4a19      	ldr	r2, [pc, #100]	; (8001624 <exploration+0x4a0>)
 80015c0:	6013      	str	r3, [r2, #0]
	}

	// EXPLORATION LED will always be ON
	HAL_GPIO_WritePin(GPIOB, LED2_Pin, GPIO_PIN_SET);
 80015c2:	2201      	movs	r2, #1
 80015c4:	f44f 4180 	mov.w	r1, #16384	; 0x4000
 80015c8:	4819      	ldr	r0, [pc, #100]	; (8001630 <exploration+0x4ac>)
 80015ca:	f002 fa65 	bl	8003a98 <HAL_GPIO_WritePin>

	if (count_warnings == 2) {
 80015ce:	4b14      	ldr	r3, [pc, #80]	; (8001620 <exploration+0x49c>)
 80015d0:	781b      	ldrb	r3, [r3, #0]
 80015d2:	2b02      	cmp	r3, #2
 80015d4:	d118      	bne.n	8001608 <exploration+0x484>
		reset_sensor_warning_flags();
 80015d6:	f000 fb13 	bl	8001c00 <reset_sensor_warning_flags>
		count_warnings = 0;
 80015da:	4b11      	ldr	r3, [pc, #68]	; (8001620 <exploration+0x49c>)
 80015dc:	2200      	movs	r2, #0
 80015de:	701a      	strb	r2, [r3, #0]
		//memset(message_print, 0, strlen(message_print));
		snprintf(message_print, MESSAGE_SIZE,
 80015e0:	4a14      	ldr	r2, [pc, #80]	; (8001634 <exploration+0x4b0>)
 80015e2:	f44f 7196 	mov.w	r1, #300	; 0x12c
 80015e6:	480c      	ldr	r0, [pc, #48]	; (8001618 <exploration+0x494>)
 80015e8:	f004 fe30 	bl	800624c <sniprintf>
				"EXPLORATION_WARNING_STATE enabled \r\n");
		HAL_UART_Transmit(&huart1, (uint8_t*) message_print,
				strlen(message_print), 0xFFFF);
 80015ec:	480a      	ldr	r0, [pc, #40]	; (8001618 <exploration+0x494>)
 80015ee:	f7fe fdef 	bl	80001d0 <strlen>
 80015f2:	4603      	mov	r3, r0
		HAL_UART_Transmit(&huart1, (uint8_t*) message_print,
 80015f4:	b29a      	uxth	r2, r3
 80015f6:	f64f 73ff 	movw	r3, #65535	; 0xffff
 80015fa:	4907      	ldr	r1, [pc, #28]	; (8001618 <exploration+0x494>)
 80015fc:	4807      	ldr	r0, [pc, #28]	; (800161c <exploration+0x498>)
 80015fe:	f003 f8fb 	bl	80047f8 <HAL_UART_Transmit>
		// Set the EXPLORATION_WARNING_STATE flag to 1
		EXPLORATION_WARNING_STATE = 1;
 8001602:	4b0d      	ldr	r3, [pc, #52]	; (8001638 <exploration+0x4b4>)
 8001604:	2201      	movs	r2, #1
 8001606:	701a      	strb	r2, [r3, #0]
	 HAL_UART_Transmit(&huart1, (uint8_t*) message_print,
	 strlen(message_print), 0xFFFF);
	 // Set the EXPLORATION_WARNING_STATE flag to 1
	 EXPLORATION_WARNING_STATE = 1;
	 }*/
}
 8001608:	bf00      	nop
 800160a:	3720      	adds	r7, #32
 800160c:	46bd      	mov	sp, r7
 800160e:	e8bd 8fb0 	ldmia.w	sp!, {r4, r5, r7, r8, r9, sl, fp, pc}
 8001612:	bf00      	nop
 8001614:	08008510 	.word	0x08008510
 8001618:	20000350 	.word	0x20000350
 800161c:	200002c8 	.word	0x200002c8
 8001620:	2000034d 	.word	0x2000034d
 8001624:	2000047c 	.word	0x2000047c
 8001628:	200004a4 	.word	0x200004a4
 800162c:	0800852c 	.word	0x0800852c
 8001630:	48000400 	.word	0x48000400
 8001634:	08008584 	.word	0x08008584
 8001638:	2000034a 	.word	0x2000034a

0800163c <exploration_warning>:

static void exploration_warning(void) {
 800163c:	b580      	push	{r7, lr}
 800163e:	af00      	add	r7, sp, #0
	// Toggle WARNING LED every 3 seconds.
	if ((HAL_GetTick() - time_EXPLORATION_WARNING_LED) > 3000) {
 8001640:	f001 fe56 	bl	80032f0 <HAL_GetTick>
 8001644:	4602      	mov	r2, r0
 8001646:	4b19      	ldr	r3, [pc, #100]	; (80016ac <exploration_warning+0x70>)
 8001648:	681b      	ldr	r3, [r3, #0]
 800164a:	1ad3      	subs	r3, r2, r3
 800164c:	f640 32b8 	movw	r2, #3000	; 0xbb8
 8001650:	4293      	cmp	r3, r2
 8001652:	d909      	bls.n	8001668 <exploration_warning+0x2c>
		HAL_GPIO_TogglePin(GPIOB, GPIO_PIN_14);
 8001654:	f44f 4180 	mov.w	r1, #16384	; 0x4000
 8001658:	4815      	ldr	r0, [pc, #84]	; (80016b0 <exploration_warning+0x74>)
 800165a:	f002 fa35 	bl	8003ac8 <HAL_GPIO_TogglePin>
		time_EXPLORATION_WARNING_LED = HAL_GetTick(); // reset time_EXPLORATION_WARNING_LED
 800165e:	f001 fe47 	bl	80032f0 <HAL_GetTick>
 8001662:	4603      	mov	r3, r0
 8001664:	4a11      	ldr	r2, [pc, #68]	; (80016ac <exploration_warning+0x70>)
 8001666:	6013      	str	r3, [r2, #0]
	}

	// Send WARNING mode: SOS once every 1 second.
	if ((HAL_GetTick() - time_EXPLORATION_WARNING_MESSAGE) > 1000) {
 8001668:	f001 fe42 	bl	80032f0 <HAL_GetTick>
 800166c:	4602      	mov	r2, r0
 800166e:	4b11      	ldr	r3, [pc, #68]	; (80016b4 <exploration_warning+0x78>)
 8001670:	681b      	ldr	r3, [r3, #0]
 8001672:	1ad3      	subs	r3, r2, r3
 8001674:	f5b3 7f7a 	cmp.w	r3, #1000	; 0x3e8
 8001678:	d915      	bls.n	80016a6 <exploration_warning+0x6a>
		//memset(message_print, 0, strlen(message_print));
		snprintf(message_print, MESSAGE_SIZE, "2, WARNING mode: SOS \r\n");
 800167a:	4a0f      	ldr	r2, [pc, #60]	; (80016b8 <exploration_warning+0x7c>)
 800167c:	f44f 7196 	mov.w	r1, #300	; 0x12c
 8001680:	480e      	ldr	r0, [pc, #56]	; (80016bc <exploration_warning+0x80>)
 8001682:	f004 fde3 	bl	800624c <sniprintf>
		HAL_UART_Transmit(&huart1, (uint8_t*) message_print,
				strlen(message_print), 0xFFFF);
 8001686:	480d      	ldr	r0, [pc, #52]	; (80016bc <exploration_warning+0x80>)
 8001688:	f7fe fda2 	bl	80001d0 <strlen>
 800168c:	4603      	mov	r3, r0
		HAL_UART_Transmit(&huart1, (uint8_t*) message_print,
 800168e:	b29a      	uxth	r2, r3
 8001690:	f64f 73ff 	movw	r3, #65535	; 0xffff
 8001694:	4909      	ldr	r1, [pc, #36]	; (80016bc <exploration_warning+0x80>)
 8001696:	480a      	ldr	r0, [pc, #40]	; (80016c0 <exploration_warning+0x84>)
 8001698:	f003 f8ae 	bl	80047f8 <HAL_UART_Transmit>
		time_EXPLORATION_WARNING_MESSAGE = HAL_GetTick(); // reset time_EXPLORATION_WARNING_LED
 800169c:	f001 fe28 	bl	80032f0 <HAL_GetTick>
 80016a0:	4603      	mov	r3, r0
 80016a2:	4a04      	ldr	r2, [pc, #16]	; (80016b4 <exploration_warning+0x78>)
 80016a4:	6013      	str	r3, [r2, #0]
	}
}
 80016a6:	bf00      	nop
 80016a8:	bd80      	pop	{r7, pc}
 80016aa:	bf00      	nop
 80016ac:	20000480 	.word	0x20000480
 80016b0:	48000400 	.word	0x48000400
 80016b4:	20000484 	.word	0x20000484
 80016b8:	080085ac 	.word	0x080085ac
 80016bc:	20000350 	.word	0x20000350
 80016c0:	200002c8 	.word	0x200002c8

080016c4 <battle>:

static void battle(void) {
 80016c4:	e92d 4fb0 	stmdb	sp!, {r4, r5, r7, r8, r9, sl, fp, lr}
 80016c8:	b09e      	sub	sp, #120	; 0x78
 80016ca:	af12      	add	r7, sp, #72	; 0x48

	// Reset variables
	sensor_data_t_battle.temperature_data = 0;
 80016cc:	4bc0      	ldr	r3, [pc, #768]	; (80019d0 <battle+0x30c>)
 80016ce:	f04f 0200 	mov.w	r2, #0
 80016d2:	601a      	str	r2, [r3, #0]
	sensor_data_t_battle.humidity_data = 0;
 80016d4:	4bbe      	ldr	r3, [pc, #760]	; (80019d0 <battle+0x30c>)
 80016d6:	f04f 0200 	mov.w	r2, #0
 80016da:	605a      	str	r2, [r3, #4]
	sensor_data_t_battle.pressure_data = 0;
 80016dc:	4bbc      	ldr	r3, [pc, #752]	; (80019d0 <battle+0x30c>)
 80016de:	f04f 0200 	mov.w	r2, #0
 80016e2:	609a      	str	r2, [r3, #8]
	sensor_data_t_battle.magnetometer_raw_data[3] = 0;
 80016e4:	4bba      	ldr	r3, [pc, #744]	; (80019d0 <battle+0x30c>)
 80016e6:	2200      	movs	r2, #0
 80016e8:	82da      	strh	r2, [r3, #22]
	sensor_data_t_battle.magnetometer_data[3] = 0;
 80016ea:	4bb9      	ldr	r3, [pc, #740]	; (80019d0 <battle+0x30c>)
 80016ec:	f04f 0200 	mov.w	r2, #0
 80016f0:	625a      	str	r2, [r3, #36]	; 0x24
	sensor_data_t_battle.gyroscope_raw_data[3] = 0;
 80016f2:	4bb7      	ldr	r3, [pc, #732]	; (80019d0 <battle+0x30c>)
 80016f4:	f04f 0200 	mov.w	r2, #0
 80016f8:	645a      	str	r2, [r3, #68]	; 0x44
	sensor_data_t_battle.gyroscope_data[3] = 0;
 80016fa:	4bb5      	ldr	r3, [pc, #724]	; (80019d0 <battle+0x30c>)
 80016fc:	f04f 0200 	mov.w	r2, #0
 8001700:	651a      	str	r2, [r3, #80]	; 0x50
	sensor_data_t_battle.accelerometer_raw_data[3] = 0;
 8001702:	4bb3      	ldr	r3, [pc, #716]	; (80019d0 <battle+0x30c>)
 8001704:	2200      	movs	r2, #0
 8001706:	855a      	strh	r2, [r3, #42]	; 0x2a
	sensor_data_t_battle.accelerometer_data[3] = 0;
 8001708:	4bb1      	ldr	r3, [pc, #708]	; (80019d0 <battle+0x30c>)
 800170a:	f04f 0200 	mov.w	r2, #0
 800170e:	639a      	str	r2, [r3, #56]	; 0x38

	// Read Humidity readings
	sensor_data_t_battle.humidity_data = BSP_HSENSOR_ReadHumidity();
 8001710:	f000 ff6a 	bl	80025e8 <BSP_HSENSOR_ReadHumidity>
 8001714:	eef0 7a40 	vmov.f32	s15, s0
 8001718:	4bad      	ldr	r3, [pc, #692]	; (80019d0 <battle+0x30c>)
 800171a:	edc3 7a01 	vstr	s15, [r3, #4]

	/*	Read the pressure in units (Pascal)
	 * 	One hectopascal(hPa) is equal to exactly 100 Pascals. */
	sensor_data_t_battle.pressure_data = BSP_PSENSOR_ReadPressure() * 100.0f;
 800171e:	f000 ffd5 	bl	80026cc <BSP_PSENSOR_ReadPressure>
 8001722:	eef0 7a40 	vmov.f32	s15, s0
 8001726:	ed9f 7aab 	vldr	s14, [pc, #684]	; 80019d4 <battle+0x310>
 800172a:	ee67 7a87 	vmul.f32	s15, s15, s14
 800172e:	4ba8      	ldr	r3, [pc, #672]	; (80019d0 <battle+0x30c>)
 8001730:	edc3 7a02 	vstr	s15, [r3, #8]

	// Read Temperature Readings
	sensor_data_t_battle.temperature_data = BSP_TSENSOR_ReadTemp();
 8001734:	f000 fff4 	bl	8002720 <BSP_TSENSOR_ReadTemp>
 8001738:	eef0 7a40 	vmov.f32	s15, s0
 800173c:	4ba4      	ldr	r3, [pc, #656]	; (80019d0 <battle+0x30c>)
 800173e:	edc3 7a00 	vstr	s15, [r3]

	// Pass in the memory address to pDataXYZ Pointer to get XYZ magnetometer values.
	BSP_MAGNETO_GetXYZ(sensor_data_t_battle.magnetometer_raw_data);
 8001742:	48a5      	ldr	r0, [pc, #660]	; (80019d8 <battle+0x314>)
 8001744:	f000 ff8a 	bl	800265c <BSP_MAGNETO_GetXYZ>
	sensor_data_t_battle.magnetometer_data[0] =
			(float) sensor_data_t_battle.magnetometer_raw_data[0] / 1000.0f;
 8001748:	4ba1      	ldr	r3, [pc, #644]	; (80019d0 <battle+0x30c>)
 800174a:	f9b3 3010 	ldrsh.w	r3, [r3, #16]
 800174e:	ee07 3a90 	vmov	s15, r3
 8001752:	eeb8 7ae7 	vcvt.f32.s32	s14, s15
 8001756:	eddf 6aa1 	vldr	s13, [pc, #644]	; 80019dc <battle+0x318>
 800175a:	eec7 7a26 	vdiv.f32	s15, s14, s13
	sensor_data_t_battle.magnetometer_data[0] =
 800175e:	4b9c      	ldr	r3, [pc, #624]	; (80019d0 <battle+0x30c>)
 8001760:	edc3 7a06 	vstr	s15, [r3, #24]
	sensor_data_t_battle.magnetometer_data[1] =
			(float) sensor_data_t_battle.magnetometer_raw_data[1] / 1000.0f;
 8001764:	4b9a      	ldr	r3, [pc, #616]	; (80019d0 <battle+0x30c>)
 8001766:	f9b3 3012 	ldrsh.w	r3, [r3, #18]
 800176a:	ee07 3a90 	vmov	s15, r3
 800176e:	eeb8 7ae7 	vcvt.f32.s32	s14, s15
 8001772:	eddf 6a9a 	vldr	s13, [pc, #616]	; 80019dc <battle+0x318>
 8001776:	eec7 7a26 	vdiv.f32	s15, s14, s13
	sensor_data_t_battle.magnetometer_data[1] =
 800177a:	4b95      	ldr	r3, [pc, #596]	; (80019d0 <battle+0x30c>)
 800177c:	edc3 7a07 	vstr	s15, [r3, #28]
	sensor_data_t_battle.magnetometer_data[2] =
			(float) sensor_data_t_battle.magnetometer_raw_data[2] / 1000.0f;
 8001780:	4b93      	ldr	r3, [pc, #588]	; (80019d0 <battle+0x30c>)
 8001782:	f9b3 3014 	ldrsh.w	r3, [r3, #20]
 8001786:	ee07 3a90 	vmov	s15, r3
 800178a:	eeb8 7ae7 	vcvt.f32.s32	s14, s15
 800178e:	eddf 6a93 	vldr	s13, [pc, #588]	; 80019dc <battle+0x318>
 8001792:	eec7 7a26 	vdiv.f32	s15, s14, s13
	sensor_data_t_battle.magnetometer_data[2] =
 8001796:	4b8e      	ldr	r3, [pc, #568]	; (80019d0 <battle+0x30c>)
 8001798:	edc3 7a08 	vstr	s15, [r3, #32]

	// Pass in the memory address to pDataXYZ Pointer to get XYZ gyroscope values.
	BSP_GYRO_GetXYZ(sensor_data_t_battle.gyroscope_raw_data);
 800179c:	4890      	ldr	r0, [pc, #576]	; (80019e0 <battle+0x31c>)
 800179e:	f000 feeb 	bl	8002578 <BSP_GYRO_GetXYZ>
	sensor_data_t_battle.gyroscope_data[0] =
			sensor_data_t_battle.gyroscope_raw_data[0] / 1000.0f;
 80017a2:	4b8b      	ldr	r3, [pc, #556]	; (80019d0 <battle+0x30c>)
 80017a4:	ed93 7a0e 	vldr	s14, [r3, #56]	; 0x38
 80017a8:	eddf 6a8c 	vldr	s13, [pc, #560]	; 80019dc <battle+0x318>
 80017ac:	eec7 7a26 	vdiv.f32	s15, s14, s13
	sensor_data_t_battle.gyroscope_data[0] =
 80017b0:	4b87      	ldr	r3, [pc, #540]	; (80019d0 <battle+0x30c>)
 80017b2:	edc3 7a11 	vstr	s15, [r3, #68]	; 0x44
	sensor_data_t_battle.gyroscope_data[1] =
			sensor_data_t_battle.gyroscope_raw_data[1] / 1000.0f;
 80017b6:	4b86      	ldr	r3, [pc, #536]	; (80019d0 <battle+0x30c>)
 80017b8:	ed93 7a0f 	vldr	s14, [r3, #60]	; 0x3c
 80017bc:	eddf 6a87 	vldr	s13, [pc, #540]	; 80019dc <battle+0x318>
 80017c0:	eec7 7a26 	vdiv.f32	s15, s14, s13
	sensor_data_t_battle.gyroscope_data[1] =
 80017c4:	4b82      	ldr	r3, [pc, #520]	; (80019d0 <battle+0x30c>)
 80017c6:	edc3 7a12 	vstr	s15, [r3, #72]	; 0x48
	sensor_data_t_battle.gyroscope_data[2] =
			sensor_data_t_battle.gyroscope_raw_data[2] / 1000.0f;
 80017ca:	4b81      	ldr	r3, [pc, #516]	; (80019d0 <battle+0x30c>)
 80017cc:	ed93 7a10 	vldr	s14, [r3, #64]	; 0x40
 80017d0:	eddf 6a82 	vldr	s13, [pc, #520]	; 80019dc <battle+0x318>
 80017d4:	eec7 7a26 	vdiv.f32	s15, s14, s13
	sensor_data_t_battle.gyroscope_data[2] =
 80017d8:	4b7d      	ldr	r3, [pc, #500]	; (80019d0 <battle+0x30c>)
 80017da:	edc3 7a13 	vstr	s15, [r3, #76]	; 0x4c

	/* Pass in the memory address to pDataXYZ Pointer to get XYZ accelerometer values.
	 * The function below returns 16 bit integers which are 100 * acceleration(m/s^2).
	 * Convert to float to print the actual acceleration*/
	BSP_ACCELERO_AccGetXYZ(sensor_data_t_battle.accelerometer_raw_data);
 80017de:	4881      	ldr	r0, [pc, #516]	; (80019e4 <battle+0x320>)
 80017e0:	f000 fe70 	bl	80024c4 <BSP_ACCELERO_AccGetXYZ>
	sensor_data_t_battle.accelerometer_data[0] =
			sensor_data_t_battle.accelerometer_raw_data[0] / 100.0f;
 80017e4:	4b7a      	ldr	r3, [pc, #488]	; (80019d0 <battle+0x30c>)
 80017e6:	f9b3 3024 	ldrsh.w	r3, [r3, #36]	; 0x24
 80017ea:	ee07 3a90 	vmov	s15, r3
 80017ee:	eeb8 7ae7 	vcvt.f32.s32	s14, s15
 80017f2:	eddf 6a78 	vldr	s13, [pc, #480]	; 80019d4 <battle+0x310>
 80017f6:	eec7 7a26 	vdiv.f32	s15, s14, s13
	sensor_data_t_battle.accelerometer_data[0] =
 80017fa:	4b75      	ldr	r3, [pc, #468]	; (80019d0 <battle+0x30c>)
 80017fc:	edc3 7a0b 	vstr	s15, [r3, #44]	; 0x2c
	sensor_data_t_battle.accelerometer_data[1] =
			sensor_data_t_battle.accelerometer_raw_data[1] / 100.0f;
 8001800:	4b73      	ldr	r3, [pc, #460]	; (80019d0 <battle+0x30c>)
 8001802:	f9b3 3026 	ldrsh.w	r3, [r3, #38]	; 0x26
 8001806:	ee07 3a90 	vmov	s15, r3
 800180a:	eeb8 7ae7 	vcvt.f32.s32	s14, s15
 800180e:	eddf 6a71 	vldr	s13, [pc, #452]	; 80019d4 <battle+0x310>
 8001812:	eec7 7a26 	vdiv.f32	s15, s14, s13
	sensor_data_t_battle.accelerometer_data[1] =
 8001816:	4b6e      	ldr	r3, [pc, #440]	; (80019d0 <battle+0x30c>)
 8001818:	edc3 7a0c 	vstr	s15, [r3, #48]	; 0x30
	sensor_data_t_battle.accelerometer_data[2] =
			sensor_data_t_battle.accelerometer_raw_data[2] / 100.0f;
 800181c:	4b6c      	ldr	r3, [pc, #432]	; (80019d0 <battle+0x30c>)
 800181e:	f9b3 3028 	ldrsh.w	r3, [r3, #40]	; 0x28
 8001822:	ee07 3a90 	vmov	s15, r3
 8001826:	eeb8 7ae7 	vcvt.f32.s32	s14, s15
 800182a:	eddf 6a6a 	vldr	s13, [pc, #424]	; 80019d4 <battle+0x310>
 800182e:	eec7 7a26 	vdiv.f32	s15, s14, s13
	sensor_data_t_battle.accelerometer_data[2] =
 8001832:	4b67      	ldr	r3, [pc, #412]	; (80019d0 <battle+0x30c>)
 8001834:	edc3 7a0d 	vstr	s15, [r3, #52]	; 0x34

	// read IR output here
	uint8_t IR_sensor_push_button = HAL_GPIO_ReadPin(GPIOD, GPIO_PIN_14);
 8001838:	f44f 4180 	mov.w	r1, #16384	; 0x4000
 800183c:	486a      	ldr	r0, [pc, #424]	; (80019e8 <battle+0x324>)
 800183e:	f002 f913 	bl	8003a68 <HAL_GPIO_ReadPin>
 8001842:	4603      	mov	r3, r0
 8001844:	f887 302f 	strb.w	r3, [r7, #47]	; 0x2f
	 * 			go to the WARNING state.
	 * @steps	1. Raise flags if threshold is reached.
	 * 			2. Type-cast variables explicitly to (int) to use abs()
	 * 			3. Set the EXPLORATION_WARNING_STATE flag to 1.
	 */
	if ((sensor_data_t_battle.temperature_data >= TEMP_THRESHOLD_MAX
 8001848:	4b61      	ldr	r3, [pc, #388]	; (80019d0 <battle+0x30c>)
 800184a:	edd3 7a00 	vldr	s15, [r3]
 800184e:	ed9f 7a67 	vldr	s14, [pc, #412]	; 80019ec <battle+0x328>
 8001852:	eef4 7ac7 	vcmpe.f32	s15, s14
 8001856:	eef1 fa10 	vmrs	APSR_nzcv, fpscr
 800185a:	da6d      	bge.n	8001938 <battle+0x274>
			|| sensor_data_t_battle.temperature_data < TEMP_THRESHOLD_MIN)
 800185c:	4b5c      	ldr	r3, [pc, #368]	; (80019d0 <battle+0x30c>)
 800185e:	edd3 7a00 	vldr	s15, [r3]
 8001862:	eebb 7a04 	vmov.f32	s14, #180	; 0xc1a00000 -20.0
 8001866:	eef4 7ac7 	vcmpe.f32	s15, s14
 800186a:	eef1 fa10 	vmrs	APSR_nzcv, fpscr
 800186e:	d463      	bmi.n	8001938 <battle+0x274>
			|| sensor_data_t_battle.humidity_data <= HUM_THRESHOLD
 8001870:	4b57      	ldr	r3, [pc, #348]	; (80019d0 <battle+0x30c>)
 8001872:	edd3 7a01 	vldr	s15, [r3, #4]
 8001876:	eeb3 7a0e 	vmov.f32	s14, #62	; 0x41f00000  30.0
 800187a:	eef4 7ac7 	vcmpe.f32	s15, s14
 800187e:	eef1 fa10 	vmrs	APSR_nzcv, fpscr
 8001882:	d959      	bls.n	8001938 <battle+0x274>
			|| (sensor_data_t_battle.pressure_data >= PRES_THRESHOLD_MAX
 8001884:	4b52      	ldr	r3, [pc, #328]	; (80019d0 <battle+0x30c>)
 8001886:	edd3 7a02 	vldr	s15, [r3, #8]
 800188a:	ed9f 7a59 	vldr	s14, [pc, #356]	; 80019f0 <battle+0x32c>
 800188e:	eef4 7ac7 	vcmpe.f32	s15, s14
 8001892:	eef1 fa10 	vmrs	APSR_nzcv, fpscr
 8001896:	da4f      	bge.n	8001938 <battle+0x274>
					|| sensor_data_t_battle.pressure_data <= PRES_THRESHOLD_MIN)
 8001898:	4b4d      	ldr	r3, [pc, #308]	; (80019d0 <battle+0x30c>)
 800189a:	edd3 7a02 	vldr	s15, [r3, #8]
 800189e:	ed9f 7a55 	vldr	s14, [pc, #340]	; 80019f4 <battle+0x330>
 80018a2:	eef4 7ac7 	vcmpe.f32	s15, s14
 80018a6:	eef1 fa10 	vmrs	APSR_nzcv, fpscr
 80018aa:	d945      	bls.n	8001938 <battle+0x274>
			// || sensor_data_t_battle.accelerometer_data[0] >= 10
			// || sensor_data_t_battle.accelerometer_data[1] >= 1000
			|| sensor_data_t_battle.accelerometer_data[2] <= ACCEL_THRESHOLD
 80018ac:	4b48      	ldr	r3, [pc, #288]	; (80019d0 <battle+0x30c>)
 80018ae:	edd3 7a0d 	vldr	s15, [r3, #52]	; 0x34
 80018b2:	eeba 7a02 	vmov.f32	s14, #162	; 0xc1100000 -9.0
 80018b6:	eef4 7ac7 	vcmpe.f32	s15, s14
 80018ba:	eef1 fa10 	vmrs	APSR_nzcv, fpscr
 80018be:	d93b      	bls.n	8001938 <battle+0x274>
			|| abs(
			/*(int)*/sensor_data_t_battle.gyroscope_data[0] >= GYRO_THRESHOLD)
 80018c0:	4b43      	ldr	r3, [pc, #268]	; (80019d0 <battle+0x30c>)
 80018c2:	edd3 7a11 	vldr	s15, [r3, #68]	; 0x44
			|| abs(
 80018c6:	ed9f 7a43 	vldr	s14, [pc, #268]	; 80019d4 <battle+0x310>
 80018ca:	eef4 7ac7 	vcmpe.f32	s15, s14
 80018ce:	eef1 fa10 	vmrs	APSR_nzcv, fpscr
 80018d2:	da31      	bge.n	8001938 <battle+0x274>
			|| abs(
			/*(int)*/sensor_data_t_battle.gyroscope_data[1] >= GYRO_THRESHOLD)
 80018d4:	4b3e      	ldr	r3, [pc, #248]	; (80019d0 <battle+0x30c>)
 80018d6:	edd3 7a12 	vldr	s15, [r3, #72]	; 0x48
			|| abs(
 80018da:	ed9f 7a3e 	vldr	s14, [pc, #248]	; 80019d4 <battle+0x310>
 80018de:	eef4 7ac7 	vcmpe.f32	s15, s14
 80018e2:	eef1 fa10 	vmrs	APSR_nzcv, fpscr
 80018e6:	da27      	bge.n	8001938 <battle+0x274>
			// || sensor_data_t_battle.gyroscope_data[2] <= GYRO_THRESHOLD
			|| (abs(
			/*(int)*/sensor_data_t_battle.magnetometer_data[0]) >= MAG_THRESHOLD)
 80018e8:	4b39      	ldr	r3, [pc, #228]	; (80019d0 <battle+0x30c>)
 80018ea:	edd3 7a06 	vldr	s15, [r3, #24]
			|| (abs(
 80018ee:	eefd 7ae7 	vcvt.s32.f32	s15, s15
 80018f2:	ee17 3a90 	vmov	r3, s15
 80018f6:	2b00      	cmp	r3, #0
 80018f8:	bfb8      	it	lt
 80018fa:	425b      	neglt	r3, r3
 80018fc:	2b02      	cmp	r3, #2
 80018fe:	dc1b      	bgt.n	8001938 <battle+0x274>
			|| (abs(
			/*(int)*/sensor_data_t_battle.magnetometer_data[1]) >= MAG_THRESHOLD)
 8001900:	4b33      	ldr	r3, [pc, #204]	; (80019d0 <battle+0x30c>)
 8001902:	edd3 7a07 	vldr	s15, [r3, #28]
			|| (abs(
 8001906:	eefd 7ae7 	vcvt.s32.f32	s15, s15
 800190a:	ee17 3a90 	vmov	r3, s15
 800190e:	2b00      	cmp	r3, #0
 8001910:	bfb8      	it	lt
 8001912:	425b      	neglt	r3, r3
 8001914:	2b02      	cmp	r3, #2
 8001916:	dc0f      	bgt.n	8001938 <battle+0x274>
			|| (abs(
			/*(int)*/sensor_data_t_battle.magnetometer_data[2]) >= MAG_THRESHOLD)
 8001918:	4b2d      	ldr	r3, [pc, #180]	; (80019d0 <battle+0x30c>)
 800191a:	edd3 7a08 	vldr	s15, [r3, #32]
			|| (abs(
 800191e:	eefd 7ae7 	vcvt.s32.f32	s15, s15
 8001922:	ee17 3a90 	vmov	r3, s15
 8001926:	2b00      	cmp	r3, #0
 8001928:	bfb8      	it	lt
 800192a:	425b      	neglt	r3, r3
 800192c:	2b02      	cmp	r3, #2
 800192e:	dc03      	bgt.n	8001938 <battle+0x274>
			|| (IR_sensor_push_button == 0)) {
 8001930:	f897 302f 	ldrb.w	r3, [r7, #47]	; 0x2f
 8001934:	2b00      	cmp	r3, #0
 8001936:	d102      	bne.n	800193e <battle+0x27a>
		BATTLE_WARNING_STATE = 1;
 8001938:	4b2f      	ldr	r3, [pc, #188]	; (80019f8 <battle+0x334>)
 800193a:	2201      	movs	r2, #1
 800193c:	701a      	strb	r2, [r3, #0]
	}

	// In BATTLE MODE, only those sensors mounted on Pixie are read periodically every ONE second.
	if (HAL_GetTick() - time_BATTLE_SENSOR > 1000
 800193e:	f001 fcd7 	bl	80032f0 <HAL_GetTick>
 8001942:	4602      	mov	r2, r0
 8001944:	4b2d      	ldr	r3, [pc, #180]	; (80019fc <battle+0x338>)
 8001946:	681b      	ldr	r3, [r3, #0]
 8001948:	1ad3      	subs	r3, r2, r3
 800194a:	f5b3 7f7a 	cmp.w	r3, #1000	; 0x3e8
 800194e:	f240 8090 	bls.w	8001a72 <battle+0x3ae>
			&& BATTLE_WARNING_STATE != 1) {
 8001952:	4b29      	ldr	r3, [pc, #164]	; (80019f8 <battle+0x334>)
 8001954:	781b      	ldrb	r3, [r3, #0]
 8001956:	2b01      	cmp	r3, #1
 8001958:	f000 808b 	beq.w	8001a72 <battle+0x3ae>
		//memset(message_print, 0, strlen(message_print));
		snprintf(message_print, MESSAGE_SIZE,
				"3, T:%0.2f (deg C), P:%0.2f (Pa), H:%0.2f (%%RH), A:%0.2f (g), G:%0.2f:%0.2f (dps), M:%0.3f:%0.3f:%0.3f (Gauss) \r\n",
				sensor_data_t_battle.temperature_data,
 800195c:	4b1c      	ldr	r3, [pc, #112]	; (80019d0 <battle+0x30c>)
 800195e:	681b      	ldr	r3, [r3, #0]
		snprintf(message_print, MESSAGE_SIZE,
 8001960:	4618      	mov	r0, r3
 8001962:	f7fe fdf1 	bl	8000548 <__aeabi_f2d>
 8001966:	e9c7 0108 	strd	r0, r1, [r7, #32]
				sensor_data_t_battle.pressure_data,
 800196a:	4b19      	ldr	r3, [pc, #100]	; (80019d0 <battle+0x30c>)
 800196c:	689b      	ldr	r3, [r3, #8]
		snprintf(message_print, MESSAGE_SIZE,
 800196e:	4618      	mov	r0, r3
 8001970:	f7fe fdea 	bl	8000548 <__aeabi_f2d>
 8001974:	e9c7 0106 	strd	r0, r1, [r7, #24]
				sensor_data_t_battle.humidity_data,
 8001978:	4b15      	ldr	r3, [pc, #84]	; (80019d0 <battle+0x30c>)
 800197a:	685b      	ldr	r3, [r3, #4]
		snprintf(message_print, MESSAGE_SIZE,
 800197c:	4618      	mov	r0, r3
 800197e:	f7fe fde3 	bl	8000548 <__aeabi_f2d>
 8001982:	e9c7 0104 	strd	r0, r1, [r7, #16]
				// sensor_data_t_battle.accelerometer_data[0],
				// sensor_data_t_battle.accelerometer_data[1],
				sensor_data_t_battle.accelerometer_data[2],
 8001986:	4b12      	ldr	r3, [pc, #72]	; (80019d0 <battle+0x30c>)
 8001988:	6b5b      	ldr	r3, [r3, #52]	; 0x34
		snprintf(message_print, MESSAGE_SIZE,
 800198a:	4618      	mov	r0, r3
 800198c:	f7fe fddc 	bl	8000548 <__aeabi_f2d>
 8001990:	e9c7 0102 	strd	r0, r1, [r7, #8]
				sensor_data_t_battle.gyroscope_data[0],
 8001994:	4b0e      	ldr	r3, [pc, #56]	; (80019d0 <battle+0x30c>)
 8001996:	6c5b      	ldr	r3, [r3, #68]	; 0x44
		snprintf(message_print, MESSAGE_SIZE,
 8001998:	4618      	mov	r0, r3
 800199a:	f7fe fdd5 	bl	8000548 <__aeabi_f2d>
 800199e:	e9c7 0100 	strd	r0, r1, [r7]
				sensor_data_t_battle.gyroscope_data[1],
 80019a2:	4b0b      	ldr	r3, [pc, #44]	; (80019d0 <battle+0x30c>)
 80019a4:	6c9b      	ldr	r3, [r3, #72]	; 0x48
		snprintf(message_print, MESSAGE_SIZE,
 80019a6:	4618      	mov	r0, r3
 80019a8:	f7fe fdce 	bl	8000548 <__aeabi_f2d>
 80019ac:	4682      	mov	sl, r0
 80019ae:	468b      	mov	fp, r1
				// sensor_data_t_battle.gyroscope_data[2],
				sensor_data_t_battle.magnetometer_data[0],
 80019b0:	4b07      	ldr	r3, [pc, #28]	; (80019d0 <battle+0x30c>)
 80019b2:	699b      	ldr	r3, [r3, #24]
		snprintf(message_print, MESSAGE_SIZE,
 80019b4:	4618      	mov	r0, r3
 80019b6:	f7fe fdc7 	bl	8000548 <__aeabi_f2d>
 80019ba:	4680      	mov	r8, r0
 80019bc:	4689      	mov	r9, r1
				sensor_data_t_battle.magnetometer_data[1],
 80019be:	4b04      	ldr	r3, [pc, #16]	; (80019d0 <battle+0x30c>)
 80019c0:	69db      	ldr	r3, [r3, #28]
		snprintf(message_print, MESSAGE_SIZE,
 80019c2:	4618      	mov	r0, r3
 80019c4:	f7fe fdc0 	bl	8000548 <__aeabi_f2d>
 80019c8:	4604      	mov	r4, r0
 80019ca:	460d      	mov	r5, r1
 80019cc:	e018      	b.n	8001a00 <battle+0x33c>
 80019ce:	bf00      	nop
 80019d0:	200004f4 	.word	0x200004f4
 80019d4:	42c80000 	.word	0x42c80000
 80019d8:	20000504 	.word	0x20000504
 80019dc:	447a0000 	.word	0x447a0000
 80019e0:	2000052c 	.word	0x2000052c
 80019e4:	20000518 	.word	0x20000518
 80019e8:	48000c00 	.word	0x48000c00
 80019ec:	428c0000 	.word	0x428c0000
 80019f0:	47cd1400 	.word	0x47cd1400
 80019f4:	47afc800 	.word	0x47afc800
 80019f8:	2000034c 	.word	0x2000034c
 80019fc:	20000488 	.word	0x20000488
				sensor_data_t_battle.magnetometer_data[2]);
 8001a00:	4b40      	ldr	r3, [pc, #256]	; (8001b04 <battle+0x440>)
 8001a02:	6a1b      	ldr	r3, [r3, #32]
		snprintf(message_print, MESSAGE_SIZE,
 8001a04:	4618      	mov	r0, r3
 8001a06:	f7fe fd9f 	bl	8000548 <__aeabi_f2d>
 8001a0a:	4602      	mov	r2, r0
 8001a0c:	460b      	mov	r3, r1
 8001a0e:	e9cd 2310 	strd	r2, r3, [sp, #64]	; 0x40
 8001a12:	e9cd 450e 	strd	r4, r5, [sp, #56]	; 0x38
 8001a16:	e9cd 890c 	strd	r8, r9, [sp, #48]	; 0x30
 8001a1a:	e9cd ab0a 	strd	sl, fp, [sp, #40]	; 0x28
 8001a1e:	ed97 7b00 	vldr	d7, [r7]
 8001a22:	ed8d 7b08 	vstr	d7, [sp, #32]
 8001a26:	ed97 7b02 	vldr	d7, [r7, #8]
 8001a2a:	ed8d 7b06 	vstr	d7, [sp, #24]
 8001a2e:	ed97 7b04 	vldr	d7, [r7, #16]
 8001a32:	ed8d 7b04 	vstr	d7, [sp, #16]
 8001a36:	ed97 7b06 	vldr	d7, [r7, #24]
 8001a3a:	ed8d 7b02 	vstr	d7, [sp, #8]
 8001a3e:	ed97 7b08 	vldr	d7, [r7, #32]
 8001a42:	ed8d 7b00 	vstr	d7, [sp]
 8001a46:	4a30      	ldr	r2, [pc, #192]	; (8001b08 <battle+0x444>)
 8001a48:	f44f 7196 	mov.w	r1, #300	; 0x12c
 8001a4c:	482f      	ldr	r0, [pc, #188]	; (8001b0c <battle+0x448>)
 8001a4e:	f004 fbfd 	bl	800624c <sniprintf>
		HAL_UART_Transmit(&huart1, (uint8_t*) message_print,
				strlen(message_print), 0xFFFF);
 8001a52:	482e      	ldr	r0, [pc, #184]	; (8001b0c <battle+0x448>)
 8001a54:	f7fe fbbc 	bl	80001d0 <strlen>
 8001a58:	4603      	mov	r3, r0
		HAL_UART_Transmit(&huart1, (uint8_t*) message_print,
 8001a5a:	b29a      	uxth	r2, r3
 8001a5c:	f64f 73ff 	movw	r3, #65535	; 0xffff
 8001a60:	492a      	ldr	r1, [pc, #168]	; (8001b0c <battle+0x448>)
 8001a62:	482b      	ldr	r0, [pc, #172]	; (8001b10 <battle+0x44c>)
 8001a64:	f002 fec8 	bl	80047f8 <HAL_UART_Transmit>

		time_BATTLE_SENSOR = HAL_GetTick();
 8001a68:	f001 fc42 	bl	80032f0 <HAL_GetTick>
 8001a6c:	4603      	mov	r3, r0
 8001a6e:	4a29      	ldr	r2, [pc, #164]	; (8001b14 <battle+0x450>)
 8001a70:	6013      	str	r3, [r2, #0]
	}

	// Toggle WARNING LED every 1 second.
	if ((HAL_GetTick() - time_BATTLE_LED) > 1000) {
 8001a72:	f001 fc3d 	bl	80032f0 <HAL_GetTick>
 8001a76:	4602      	mov	r2, r0
 8001a78:	4b27      	ldr	r3, [pc, #156]	; (8001b18 <battle+0x454>)
 8001a7a:	681b      	ldr	r3, [r3, #0]
 8001a7c:	1ad3      	subs	r3, r2, r3
 8001a7e:	f5b3 7f7a 	cmp.w	r3, #1000	; 0x3e8
 8001a82:	d909      	bls.n	8001a98 <battle+0x3d4>
		HAL_GPIO_TogglePin(GPIOB, GPIO_PIN_14);
 8001a84:	f44f 4180 	mov.w	r1, #16384	; 0x4000
 8001a88:	4824      	ldr	r0, [pc, #144]	; (8001b1c <battle+0x458>)
 8001a8a:	f002 f81d 	bl	8003ac8 <HAL_GPIO_TogglePin>
		time_BATTLE_LED = HAL_GetTick(); // reset time_BATTLE_LED
 8001a8e:	f001 fc2f 	bl	80032f0 <HAL_GetTick>
 8001a92:	4603      	mov	r3, r0
 8001a94:	4a20      	ldr	r2, [pc, #128]	; (8001b18 <battle+0x454>)
 8001a96:	6013      	str	r3, [r2, #0]
	}

	// Self firing Fluxer every 5s.
	if (HAL_GetTick() - time_fluxer > 5000 && fluxer_battery > 1
 8001a98:	f001 fc2a 	bl	80032f0 <HAL_GetTick>
 8001a9c:	4602      	mov	r2, r0
 8001a9e:	4b20      	ldr	r3, [pc, #128]	; (8001b20 <battle+0x45c>)
 8001aa0:	681b      	ldr	r3, [r3, #0]
 8001aa2:	1ad3      	subs	r3, r2, r3
 8001aa4:	f241 3288 	movw	r2, #5000	; 0x1388
 8001aa8:	4293      	cmp	r3, r2
 8001aaa:	d925      	bls.n	8001af8 <battle+0x434>
 8001aac:	4b1d      	ldr	r3, [pc, #116]	; (8001b24 <battle+0x460>)
 8001aae:	781b      	ldrb	r3, [r3, #0]
 8001ab0:	2b01      	cmp	r3, #1
 8001ab2:	d921      	bls.n	8001af8 <battle+0x434>
			&& BATTLE_WARNING_STATE != 1) {
 8001ab4:	4b1c      	ldr	r3, [pc, #112]	; (8001b28 <battle+0x464>)
 8001ab6:	781b      	ldrb	r3, [r3, #0]
 8001ab8:	2b01      	cmp	r3, #1
 8001aba:	d01d      	beq.n	8001af8 <battle+0x434>

		fluxer_battery -= 2;
 8001abc:	4b19      	ldr	r3, [pc, #100]	; (8001b24 <battle+0x460>)
 8001abe:	781b      	ldrb	r3, [r3, #0]
 8001ac0:	3b02      	subs	r3, #2
 8001ac2:	b2da      	uxtb	r2, r3
 8001ac4:	4b17      	ldr	r3, [pc, #92]	; (8001b24 <battle+0x460>)
 8001ac6:	701a      	strb	r2, [r3, #0]

		time_fluxer = HAL_GetTick(); // reset time_fluxer
 8001ac8:	f001 fc12 	bl	80032f0 <HAL_GetTick>
 8001acc:	4603      	mov	r3, r0
 8001ace:	4a14      	ldr	r2, [pc, #80]	; (8001b20 <battle+0x45c>)
 8001ad0:	6013      	str	r3, [r2, #0]

		//memset(message_print, 0, strlen(message_print));
		snprintf(message_print, MESSAGE_SIZE, "5, Battery: %d/10 \r\n",
 8001ad2:	4b14      	ldr	r3, [pc, #80]	; (8001b24 <battle+0x460>)
 8001ad4:	781b      	ldrb	r3, [r3, #0]
 8001ad6:	4a15      	ldr	r2, [pc, #84]	; (8001b2c <battle+0x468>)
 8001ad8:	f44f 7196 	mov.w	r1, #300	; 0x12c
 8001adc:	480b      	ldr	r0, [pc, #44]	; (8001b0c <battle+0x448>)
 8001ade:	f004 fbb5 	bl	800624c <sniprintf>
				fluxer_battery);
		HAL_UART_Transmit(&huart1, (uint8_t*) message_print,
				strlen(message_print), 0xFFFF);
 8001ae2:	480a      	ldr	r0, [pc, #40]	; (8001b0c <battle+0x448>)
 8001ae4:	f7fe fb74 	bl	80001d0 <strlen>
 8001ae8:	4603      	mov	r3, r0
		HAL_UART_Transmit(&huart1, (uint8_t*) message_print,
 8001aea:	b29a      	uxth	r2, r3
 8001aec:	f64f 73ff 	movw	r3, #65535	; 0xffff
 8001af0:	4906      	ldr	r1, [pc, #24]	; (8001b0c <battle+0x448>)
 8001af2:	4807      	ldr	r0, [pc, #28]	; (8001b10 <battle+0x44c>)
 8001af4:	f002 fe80 	bl	80047f8 <HAL_UART_Transmit>
	 "BATTLE_WARNING_STATE enabled \r\n");
	 HAL_UART_Transmit(&huart1, (uint8_t*) message_print,
	 strlen(message_print), 0xFFFF);
	 BATTLE_WARNING_STATE = 1;
	 }*/
}
 8001af8:	bf00      	nop
 8001afa:	3730      	adds	r7, #48	; 0x30
 8001afc:	46bd      	mov	sp, r7
 8001afe:	e8bd 8fb0 	ldmia.w	sp!, {r4, r5, r7, r8, r9, sl, fp, pc}
 8001b02:	bf00      	nop
 8001b04:	200004f4 	.word	0x200004f4
 8001b08:	080085c4 	.word	0x080085c4
 8001b0c:	20000350 	.word	0x20000350
 8001b10:	200002c8 	.word	0x200002c8
 8001b14:	20000488 	.word	0x20000488
 8001b18:	20000494 	.word	0x20000494
 8001b1c:	48000400 	.word	0x48000400
 8001b20:	20000498 	.word	0x20000498
 8001b24:	20000001 	.word	0x20000001
 8001b28:	2000034c 	.word	0x2000034c
 8001b2c:	08008638 	.word	0x08008638

08001b30 <charge_fluxer_battery>:

static void charge_fluxer_battery(void) {
 8001b30:	b480      	push	{r7}
 8001b32:	af00      	add	r7, sp, #0
	// Fluxer recharging using PB.
	if (fluxer_battery <= 10 && BATTLE_WARNING_STATE != 1) {
 8001b34:	4b0d      	ldr	r3, [pc, #52]	; (8001b6c <charge_fluxer_battery+0x3c>)
 8001b36:	781b      	ldrb	r3, [r3, #0]
 8001b38:	2b0a      	cmp	r3, #10
 8001b3a:	d80d      	bhi.n	8001b58 <charge_fluxer_battery+0x28>
 8001b3c:	4b0c      	ldr	r3, [pc, #48]	; (8001b70 <charge_fluxer_battery+0x40>)
 8001b3e:	781b      	ldrb	r3, [r3, #0]
 8001b40:	2b01      	cmp	r3, #1
 8001b42:	d009      	beq.n	8001b58 <charge_fluxer_battery+0x28>
		fluxer_battery += 1;
 8001b44:	4b09      	ldr	r3, [pc, #36]	; (8001b6c <charge_fluxer_battery+0x3c>)
 8001b46:	781b      	ldrb	r3, [r3, #0]
 8001b48:	3301      	adds	r3, #1
 8001b4a:	b2da      	uxtb	r2, r3
 8001b4c:	4b07      	ldr	r3, [pc, #28]	; (8001b6c <charge_fluxer_battery+0x3c>)
 8001b4e:	701a      	strb	r2, [r3, #0]
		press = 0;
 8001b50:	4b08      	ldr	r3, [pc, #32]	; (8001b74 <charge_fluxer_battery+0x44>)
 8001b52:	2200      	movs	r2, #0
 8001b54:	701a      	strb	r2, [r3, #0]
 8001b56:	e003      	b.n	8001b60 <charge_fluxer_battery+0x30>
	} else {
		press = 0;
 8001b58:	4b06      	ldr	r3, [pc, #24]	; (8001b74 <charge_fluxer_battery+0x44>)
 8001b5a:	2200      	movs	r2, #0
 8001b5c:	701a      	strb	r2, [r3, #0]
	}
}
 8001b5e:	bf00      	nop
 8001b60:	bf00      	nop
 8001b62:	46bd      	mov	sp, r7
 8001b64:	f85d 7b04 	ldr.w	r7, [sp], #4
 8001b68:	4770      	bx	lr
 8001b6a:	bf00      	nop
 8001b6c:	20000001 	.word	0x20000001
 8001b70:	2000034c 	.word	0x2000034c
 8001b74:	20000349 	.word	0x20000349

08001b78 <battle_warning>:

static void battle_warning(void) {
 8001b78:	b580      	push	{r7, lr}
 8001b7a:	af00      	add	r7, sp, #0
	// Toggle WARNING LED every 3 seconds.
	if ((HAL_GetTick() - time_BATTLE_WARNING_LED) > 3000) {
 8001b7c:	f001 fbb8 	bl	80032f0 <HAL_GetTick>
 8001b80:	4602      	mov	r2, r0
 8001b82:	4b19      	ldr	r3, [pc, #100]	; (8001be8 <battle_warning+0x70>)
 8001b84:	681b      	ldr	r3, [r3, #0]
 8001b86:	1ad3      	subs	r3, r2, r3
 8001b88:	f640 32b8 	movw	r2, #3000	; 0xbb8
 8001b8c:	4293      	cmp	r3, r2
 8001b8e:	d909      	bls.n	8001ba4 <battle_warning+0x2c>
		HAL_GPIO_TogglePin(GPIOB, GPIO_PIN_14);
 8001b90:	f44f 4180 	mov.w	r1, #16384	; 0x4000
 8001b94:	4815      	ldr	r0, [pc, #84]	; (8001bec <battle_warning+0x74>)
 8001b96:	f001 ff97 	bl	8003ac8 <HAL_GPIO_TogglePin>
		time_BATTLE_WARNING_LED = HAL_GetTick(); // reset time_EXPLORATION_WARNING_LED
 8001b9a:	f001 fba9 	bl	80032f0 <HAL_GetTick>
 8001b9e:	4603      	mov	r3, r0
 8001ba0:	4a11      	ldr	r2, [pc, #68]	; (8001be8 <battle_warning+0x70>)
 8001ba2:	6013      	str	r3, [r2, #0]
	}

	// Warning Message sent every once a second
	if ((HAL_GetTick() - time_BATTLE_WARNING_MESSAGE) > 1000) {
 8001ba4:	f001 fba4 	bl	80032f0 <HAL_GetTick>
 8001ba8:	4602      	mov	r2, r0
 8001baa:	4b11      	ldr	r3, [pc, #68]	; (8001bf0 <battle_warning+0x78>)
 8001bac:	681b      	ldr	r3, [r3, #0]
 8001bae:	1ad3      	subs	r3, r2, r3
 8001bb0:	f5b3 7f7a 	cmp.w	r3, #1000	; 0x3e8
 8001bb4:	d915      	bls.n	8001be2 <battle_warning+0x6a>
		// send BATTLE mode: SOS
		//memset(message_print, 0, strlen(message_print));
		snprintf(message_print, MESSAGE_SIZE, "4, BATTLE mode: SOS \r\n");
 8001bb6:	4a0f      	ldr	r2, [pc, #60]	; (8001bf4 <battle_warning+0x7c>)
 8001bb8:	f44f 7196 	mov.w	r1, #300	; 0x12c
 8001bbc:	480e      	ldr	r0, [pc, #56]	; (8001bf8 <battle_warning+0x80>)
 8001bbe:	f004 fb45 	bl	800624c <sniprintf>
		HAL_UART_Transmit(&huart1, (uint8_t*) message_print,
				strlen(message_print), 0xFFFF);
 8001bc2:	480d      	ldr	r0, [pc, #52]	; (8001bf8 <battle_warning+0x80>)
 8001bc4:	f7fe fb04 	bl	80001d0 <strlen>
 8001bc8:	4603      	mov	r3, r0
		HAL_UART_Transmit(&huart1, (uint8_t*) message_print,
 8001bca:	b29a      	uxth	r2, r3
 8001bcc:	f64f 73ff 	movw	r3, #65535	; 0xffff
 8001bd0:	4909      	ldr	r1, [pc, #36]	; (8001bf8 <battle_warning+0x80>)
 8001bd2:	480a      	ldr	r0, [pc, #40]	; (8001bfc <battle_warning+0x84>)
 8001bd4:	f002 fe10 	bl	80047f8 <HAL_UART_Transmit>
		time_BATTLE_WARNING_MESSAGE = HAL_GetTick(); // reset time_EXPLORATION_WARNING_LED
 8001bd8:	f001 fb8a 	bl	80032f0 <HAL_GetTick>
 8001bdc:	4603      	mov	r3, r0
 8001bde:	4a04      	ldr	r2, [pc, #16]	; (8001bf0 <battle_warning+0x78>)
 8001be0:	6013      	str	r3, [r2, #0]
	}
}
 8001be2:	bf00      	nop
 8001be4:	bd80      	pop	{r7, pc}
 8001be6:	bf00      	nop
 8001be8:	2000048c 	.word	0x2000048c
 8001bec:	48000400 	.word	0x48000400
 8001bf0:	20000490 	.word	0x20000490
 8001bf4:	08008650 	.word	0x08008650
 8001bf8:	20000350 	.word	0x20000350
 8001bfc:	200002c8 	.word	0x200002c8

08001c00 <reset_sensor_warning_flags>:
/**
 * @brief  	Set the flags of various sensors to the default state
 * @note	For example, accflag = SAFE; gyroflag = SAFE; and so on ...
 * @retval	None
 */
void reset_sensor_warning_flags(void) {
 8001c00:	b480      	push	{r7}
 8001c02:	af00      	add	r7, sp, #0
	GYROSCOPE_Flag = SAFE;
 8001c04:	4b09      	ldr	r3, [pc, #36]	; (8001c2c <reset_sensor_warning_flags+0x2c>)
 8001c06:	2200      	movs	r2, #0
 8001c08:	701a      	strb	r2, [r3, #0]
	MAGNETOMETER_Flag = SAFE;
 8001c0a:	4b09      	ldr	r3, [pc, #36]	; (8001c30 <reset_sensor_warning_flags+0x30>)
 8001c0c:	2200      	movs	r2, #0
 8001c0e:	701a      	strb	r2, [r3, #0]
	PRESSURE_Flag = SAFE;
 8001c10:	4b08      	ldr	r3, [pc, #32]	; (8001c34 <reset_sensor_warning_flags+0x34>)
 8001c12:	2200      	movs	r2, #0
 8001c14:	701a      	strb	r2, [r3, #0]
	HUMIDITY_Flag = SAFE;
 8001c16:	4b08      	ldr	r3, [pc, #32]	; (8001c38 <reset_sensor_warning_flags+0x38>)
 8001c18:	2200      	movs	r2, #0
 8001c1a:	701a      	strb	r2, [r3, #0]
	IR_Flag = SAFE;
 8001c1c:	4b07      	ldr	r3, [pc, #28]	; (8001c3c <reset_sensor_warning_flags+0x3c>)
 8001c1e:	2200      	movs	r2, #0
 8001c20:	701a      	strb	r2, [r3, #0]
}
 8001c22:	bf00      	nop
 8001c24:	46bd      	mov	sp, r7
 8001c26:	f85d 7b04 	ldr.w	r7, [sp], #4
 8001c2a:	4770      	bx	lr
 8001c2c:	2000049c 	.word	0x2000049c
 8001c30:	2000049d 	.word	0x2000049d
 8001c34:	2000049e 	.word	0x2000049e
 8001c38:	2000049f 	.word	0x2000049f
 8001c3c:	200004a0 	.word	0x200004a0

08001c40 <MX_GPIO_Init>:

static void MX_GPIO_Init(void) //For LED and PB
{
 8001c40:	b580      	push	{r7, lr}
 8001c42:	b08a      	sub	sp, #40	; 0x28
 8001c44:	af00      	add	r7, sp, #0
	GPIO_InitTypeDef GPIO_InitStruct = { 0 };
 8001c46:	f107 0314 	add.w	r3, r7, #20
 8001c4a:	2200      	movs	r2, #0
 8001c4c:	601a      	str	r2, [r3, #0]
 8001c4e:	605a      	str	r2, [r3, #4]
 8001c50:	609a      	str	r2, [r3, #8]
 8001c52:	60da      	str	r2, [r3, #12]
 8001c54:	611a      	str	r2, [r3, #16]

	//GPIO Ports Clock Enable
	__HAL_RCC_GPIOA_CLK_ENABLE();// D8 Arduino Pinout
 8001c56:	4b33      	ldr	r3, [pc, #204]	; (8001d24 <MX_GPIO_Init+0xe4>)
 8001c58:	6cdb      	ldr	r3, [r3, #76]	; 0x4c
 8001c5a:	4a32      	ldr	r2, [pc, #200]	; (8001d24 <MX_GPIO_Init+0xe4>)
 8001c5c:	f043 0301 	orr.w	r3, r3, #1
 8001c60:	64d3      	str	r3, [r2, #76]	; 0x4c
 8001c62:	4b30      	ldr	r3, [pc, #192]	; (8001d24 <MX_GPIO_Init+0xe4>)
 8001c64:	6cdb      	ldr	r3, [r3, #76]	; 0x4c
 8001c66:	f003 0301 	and.w	r3, r3, #1
 8001c6a:	613b      	str	r3, [r7, #16]
 8001c6c:	693b      	ldr	r3, [r7, #16]
	__HAL_RCC_GPIOB_CLK_ENABLE(); // For LED
 8001c6e:	4b2d      	ldr	r3, [pc, #180]	; (8001d24 <MX_GPIO_Init+0xe4>)
 8001c70:	6cdb      	ldr	r3, [r3, #76]	; 0x4c
 8001c72:	4a2c      	ldr	r2, [pc, #176]	; (8001d24 <MX_GPIO_Init+0xe4>)
 8001c74:	f043 0302 	orr.w	r3, r3, #2
 8001c78:	64d3      	str	r3, [r2, #76]	; 0x4c
 8001c7a:	4b2a      	ldr	r3, [pc, #168]	; (8001d24 <MX_GPIO_Init+0xe4>)
 8001c7c:	6cdb      	ldr	r3, [r3, #76]	; 0x4c
 8001c7e:	f003 0302 	and.w	r3, r3, #2
 8001c82:	60fb      	str	r3, [r7, #12]
 8001c84:	68fb      	ldr	r3, [r7, #12]
	__HAL_RCC_GPIOC_CLK_ENABLE(); // For Push Button
 8001c86:	4b27      	ldr	r3, [pc, #156]	; (8001d24 <MX_GPIO_Init+0xe4>)
 8001c88:	6cdb      	ldr	r3, [r3, #76]	; 0x4c
 8001c8a:	4a26      	ldr	r2, [pc, #152]	; (8001d24 <MX_GPIO_Init+0xe4>)
 8001c8c:	f043 0304 	orr.w	r3, r3, #4
 8001c90:	64d3      	str	r3, [r2, #76]	; 0x4c
 8001c92:	4b24      	ldr	r3, [pc, #144]	; (8001d24 <MX_GPIO_Init+0xe4>)
 8001c94:	6cdb      	ldr	r3, [r3, #76]	; 0x4c
 8001c96:	f003 0304 	and.w	r3, r3, #4
 8001c9a:	60bb      	str	r3, [r7, #8]
 8001c9c:	68bb      	ldr	r3, [r7, #8]
	__HAL_RCC_GPIOD_CLK_ENABLE();
 8001c9e:	4b21      	ldr	r3, [pc, #132]	; (8001d24 <MX_GPIO_Init+0xe4>)
 8001ca0:	6cdb      	ldr	r3, [r3, #76]	; 0x4c
 8001ca2:	4a20      	ldr	r2, [pc, #128]	; (8001d24 <MX_GPIO_Init+0xe4>)
 8001ca4:	f043 0308 	orr.w	r3, r3, #8
 8001ca8:	64d3      	str	r3, [r2, #76]	; 0x4c
 8001caa:	4b1e      	ldr	r3, [pc, #120]	; (8001d24 <MX_GPIO_Init+0xe4>)
 8001cac:	6cdb      	ldr	r3, [r3, #76]	; 0x4c
 8001cae:	f003 0308 	and.w	r3, r3, #8
 8001cb2:	607b      	str	r3, [r7, #4]
 8001cb4:	687b      	ldr	r3, [r7, #4]

	//Configure GPIO pin Output Level // Pin Initialization
	HAL_GPIO_WritePin(GPIOB, LED2_Pin, GPIO_PIN_RESET);
 8001cb6:	2200      	movs	r2, #0
 8001cb8:	f44f 4180 	mov.w	r1, #16384	; 0x4000
 8001cbc:	481a      	ldr	r0, [pc, #104]	; (8001d28 <MX_GPIO_Init+0xe8>)
 8001cbe:	f001 feeb 	bl	8003a98 <HAL_GPIO_WritePin>

	//Configure GPIO pin LED2_Pin  // Pin Configuration
	GPIO_InitStruct.Pin = LED2_Pin;
 8001cc2:	f44f 4380 	mov.w	r3, #16384	; 0x4000
 8001cc6:	617b      	str	r3, [r7, #20]
	GPIO_InitStruct.Mode = GPIO_MODE_OUTPUT_PP;
 8001cc8:	2301      	movs	r3, #1
 8001cca:	61bb      	str	r3, [r7, #24]
	GPIO_InitStruct.Pull = GPIO_NOPULL;
 8001ccc:	2300      	movs	r3, #0
 8001cce:	61fb      	str	r3, [r7, #28]
	GPIO_InitStruct.Speed = GPIO_SPEED_FREQ_LOW;
 8001cd0:	2300      	movs	r3, #0
 8001cd2:	623b      	str	r3, [r7, #32]
	HAL_GPIO_Init(GPIOB, &GPIO_InitStruct);
 8001cd4:	f107 0314 	add.w	r3, r7, #20
 8001cd8:	4619      	mov	r1, r3
 8001cda:	4813      	ldr	r0, [pc, #76]	; (8001d28 <MX_GPIO_Init+0xe8>)
 8001cdc:	f001 fc26 	bl	800352c <HAL_GPIO_Init>

	// Configuration of BUTTON_EXTI13_Pin (GPIO-C Pin-13) as AF
	GPIO_InitStruct.Pin = BUTTON_EXTI13_Pin;
 8001ce0:	f44f 5300 	mov.w	r3, #8192	; 0x2000
 8001ce4:	617b      	str	r3, [r7, #20]
	GPIO_InitStruct.Mode = GPIO_MODE_IT_FALLING;
 8001ce6:	4b11      	ldr	r3, [pc, #68]	; (8001d2c <MX_GPIO_Init+0xec>)
 8001ce8:	61bb      	str	r3, [r7, #24]
	GPIO_InitStruct.Pull = GPIO_NOPULL;
 8001cea:	2300      	movs	r3, #0
 8001cec:	61fb      	str	r3, [r7, #28]
	HAL_GPIO_Init(GPIOC, &GPIO_InitStruct);
 8001cee:	f107 0314 	add.w	r3, r7, #20
 8001cf2:	4619      	mov	r1, r3
 8001cf4:	480e      	ldr	r0, [pc, #56]	; (8001d30 <MX_GPIO_Init+0xf0>)
 8001cf6:	f001 fc19 	bl	800352c <HAL_GPIO_Init>

	//Testing IR sensor - Configuration of D2 as input
	GPIO_InitStruct.Pin = ARD_D2_Pin;
 8001cfa:	f44f 4380 	mov.w	r3, #16384	; 0x4000
 8001cfe:	617b      	str	r3, [r7, #20]
	GPIO_InitStruct.Mode = GPIO_MODE_INPUT;
 8001d00:	2300      	movs	r3, #0
 8001d02:	61bb      	str	r3, [r7, #24]
	GPIO_InitStruct.Pull = GPIO_PULLUP; // Pull-UP
 8001d04:	2301      	movs	r3, #1
 8001d06:	61fb      	str	r3, [r7, #28]
	HAL_GPIO_Init(GPIOD, &GPIO_InitStruct);
 8001d08:	f107 0314 	add.w	r3, r7, #20
 8001d0c:	4619      	mov	r1, r3
 8001d0e:	4809      	ldr	r0, [pc, #36]	; (8001d34 <MX_GPIO_Init+0xf4>)
 8001d10:	f001 fc0c 	bl	800352c <HAL_GPIO_Init>
	//	GPIO_InitStruct.Mode = GPIO_MODE_INPUT;
	//	GPIO_InitStruct.Pull = GPIO_NOPULL; // Pull-down activation
	//	HAL_GPIO_Init(GPIOB, &GPIO_InitStruct); // PB2

	// Enable NVIC EXTI line 13
	HAL_NVIC_EnableIRQ(EXTI15_10_IRQn);
 8001d14:	2028      	movs	r0, #40	; 0x28
 8001d16:	f001 fbee 	bl	80034f6 <HAL_NVIC_EnableIRQ>
}
 8001d1a:	bf00      	nop
 8001d1c:	3728      	adds	r7, #40	; 0x28
 8001d1e:	46bd      	mov	sp, r7
 8001d20:	bd80      	pop	{r7, pc}
 8001d22:	bf00      	nop
 8001d24:	40021000 	.word	0x40021000
 8001d28:	48000400 	.word	0x48000400
 8001d2c:	10210000 	.word	0x10210000
 8001d30:	48000800 	.word	0x48000800
 8001d34:	48000c00 	.word	0x48000c00

08001d38 <UART1_Init>:
 *
 * @note
 *
 * @retval	None
 */
static void UART1_Init(void) {
 8001d38:	b580      	push	{r7, lr}
 8001d3a:	b086      	sub	sp, #24
 8001d3c:	af00      	add	r7, sp, #0
	/* Pin configuration for UART. BSP_COM_Init() can do this automatically */
	__HAL_RCC_GPIOB_CLK_ENABLE();
 8001d3e:	4b26      	ldr	r3, [pc, #152]	; (8001dd8 <UART1_Init+0xa0>)
 8001d40:	6cdb      	ldr	r3, [r3, #76]	; 0x4c
 8001d42:	4a25      	ldr	r2, [pc, #148]	; (8001dd8 <UART1_Init+0xa0>)
 8001d44:	f043 0302 	orr.w	r3, r3, #2
 8001d48:	64d3      	str	r3, [r2, #76]	; 0x4c
 8001d4a:	4b23      	ldr	r3, [pc, #140]	; (8001dd8 <UART1_Init+0xa0>)
 8001d4c:	6cdb      	ldr	r3, [r3, #76]	; 0x4c
 8001d4e:	f003 0302 	and.w	r3, r3, #2
 8001d52:	603b      	str	r3, [r7, #0]
 8001d54:	683b      	ldr	r3, [r7, #0]
	GPIO_InitTypeDef GPIO_InitStruct = { 0 };
 8001d56:	1d3b      	adds	r3, r7, #4
 8001d58:	2200      	movs	r2, #0
 8001d5a:	601a      	str	r2, [r3, #0]
 8001d5c:	605a      	str	r2, [r3, #4]
 8001d5e:	609a      	str	r2, [r3, #8]
 8001d60:	60da      	str	r2, [r3, #12]
 8001d62:	611a      	str	r2, [r3, #16]
	GPIO_InitStruct.Alternate = GPIO_AF7_USART1;
 8001d64:	2307      	movs	r3, #7
 8001d66:	617b      	str	r3, [r7, #20]
	GPIO_InitStruct.Pin = GPIO_PIN_7 | GPIO_PIN_6;
 8001d68:	23c0      	movs	r3, #192	; 0xc0
 8001d6a:	607b      	str	r3, [r7, #4]
	GPIO_InitStruct.Mode = GPIO_MODE_AF_PP;
 8001d6c:	2302      	movs	r3, #2
 8001d6e:	60bb      	str	r3, [r7, #8]
	GPIO_InitStruct.Pull = GPIO_NOPULL;
 8001d70:	2300      	movs	r3, #0
 8001d72:	60fb      	str	r3, [r7, #12]
	GPIO_InitStruct.Speed = GPIO_SPEED_FREQ_VERY_HIGH;
 8001d74:	2303      	movs	r3, #3
 8001d76:	613b      	str	r3, [r7, #16]
	HAL_GPIO_Init(GPIOB, &GPIO_InitStruct);
 8001d78:	1d3b      	adds	r3, r7, #4
 8001d7a:	4619      	mov	r1, r3
 8001d7c:	4817      	ldr	r0, [pc, #92]	; (8001ddc <UART1_Init+0xa4>)
 8001d7e:	f001 fbd5 	bl	800352c <HAL_GPIO_Init>

	/* Configuring UART1 */
	huart1.Instance = USART1;
 8001d82:	4b17      	ldr	r3, [pc, #92]	; (8001de0 <UART1_Init+0xa8>)
 8001d84:	4a17      	ldr	r2, [pc, #92]	; (8001de4 <UART1_Init+0xac>)
 8001d86:	601a      	str	r2, [r3, #0]
	huart1.Init.BaudRate = 115200;
 8001d88:	4b15      	ldr	r3, [pc, #84]	; (8001de0 <UART1_Init+0xa8>)
 8001d8a:	f44f 32e1 	mov.w	r2, #115200	; 0x1c200
 8001d8e:	605a      	str	r2, [r3, #4]
	huart1.Init.WordLength = UART_WORDLENGTH_8B;
 8001d90:	4b13      	ldr	r3, [pc, #76]	; (8001de0 <UART1_Init+0xa8>)
 8001d92:	2200      	movs	r2, #0
 8001d94:	609a      	str	r2, [r3, #8]
	huart1.Init.StopBits = UART_STOPBITS_1;
 8001d96:	4b12      	ldr	r3, [pc, #72]	; (8001de0 <UART1_Init+0xa8>)
 8001d98:	2200      	movs	r2, #0
 8001d9a:	60da      	str	r2, [r3, #12]
	huart1.Init.Parity = UART_PARITY_NONE;
 8001d9c:	4b10      	ldr	r3, [pc, #64]	; (8001de0 <UART1_Init+0xa8>)
 8001d9e:	2200      	movs	r2, #0
 8001da0:	611a      	str	r2, [r3, #16]
	huart1.Init.Mode = UART_MODE_TX_RX;
 8001da2:	4b0f      	ldr	r3, [pc, #60]	; (8001de0 <UART1_Init+0xa8>)
 8001da4:	220c      	movs	r2, #12
 8001da6:	615a      	str	r2, [r3, #20]
	huart1.Init.HwFlowCtl = UART_HWCONTROL_NONE;
 8001da8:	4b0d      	ldr	r3, [pc, #52]	; (8001de0 <UART1_Init+0xa8>)
 8001daa:	2200      	movs	r2, #0
 8001dac:	619a      	str	r2, [r3, #24]
	huart1.Init.OverSampling = UART_OVERSAMPLING_16;
 8001dae:	4b0c      	ldr	r3, [pc, #48]	; (8001de0 <UART1_Init+0xa8>)
 8001db0:	2200      	movs	r2, #0
 8001db2:	61da      	str	r2, [r3, #28]
	huart1.Init.OneBitSampling = UART_ONE_BIT_SAMPLE_DISABLE;
 8001db4:	4b0a      	ldr	r3, [pc, #40]	; (8001de0 <UART1_Init+0xa8>)
 8001db6:	2200      	movs	r2, #0
 8001db8:	621a      	str	r2, [r3, #32]
	huart1.AdvancedInit.AdvFeatureInit = UART_ADVFEATURE_NO_INIT;
 8001dba:	4b09      	ldr	r3, [pc, #36]	; (8001de0 <UART1_Init+0xa8>)
 8001dbc:	2200      	movs	r2, #0
 8001dbe:	625a      	str	r2, [r3, #36]	; 0x24
	if (HAL_UART_Init(&huart1) != HAL_OK) {
 8001dc0:	4807      	ldr	r0, [pc, #28]	; (8001de0 <UART1_Init+0xa8>)
 8001dc2:	f002 fccb 	bl	800475c <HAL_UART_Init>
 8001dc6:	4603      	mov	r3, r0
 8001dc8:	2b00      	cmp	r3, #0
 8001dca:	d000      	beq.n	8001dce <UART1_Init+0x96>
		while (1)
 8001dcc:	e7fe      	b.n	8001dcc <UART1_Init+0x94>
			;
	}
}
 8001dce:	bf00      	nop
 8001dd0:	3718      	adds	r7, #24
 8001dd2:	46bd      	mov	sp, r7
 8001dd4:	bd80      	pop	{r7, pc}
 8001dd6:	bf00      	nop
 8001dd8:	40021000 	.word	0x40021000
 8001ddc:	48000400 	.word	0x48000400
 8001de0:	200002c8 	.word	0x200002c8
 8001de4:	40013800 	.word	0x40013800

08001de8 <HAL_MspInit>:
/* USER CODE END 0 */
/**
  * Initializes the Global MSP.
  */
void HAL_MspInit(void)
{
 8001de8:	b480      	push	{r7}
 8001dea:	b083      	sub	sp, #12
 8001dec:	af00      	add	r7, sp, #0
  /* USER CODE BEGIN MspInit 0 */

  /* USER CODE END MspInit 0 */

  __HAL_RCC_SYSCFG_CLK_ENABLE();
 8001dee:	4b0f      	ldr	r3, [pc, #60]	; (8001e2c <HAL_MspInit+0x44>)
 8001df0:	6e1b      	ldr	r3, [r3, #96]	; 0x60
 8001df2:	4a0e      	ldr	r2, [pc, #56]	; (8001e2c <HAL_MspInit+0x44>)
 8001df4:	f043 0301 	orr.w	r3, r3, #1
 8001df8:	6613      	str	r3, [r2, #96]	; 0x60
 8001dfa:	4b0c      	ldr	r3, [pc, #48]	; (8001e2c <HAL_MspInit+0x44>)
 8001dfc:	6e1b      	ldr	r3, [r3, #96]	; 0x60
 8001dfe:	f003 0301 	and.w	r3, r3, #1
 8001e02:	607b      	str	r3, [r7, #4]
 8001e04:	687b      	ldr	r3, [r7, #4]
  __HAL_RCC_PWR_CLK_ENABLE();
 8001e06:	4b09      	ldr	r3, [pc, #36]	; (8001e2c <HAL_MspInit+0x44>)
 8001e08:	6d9b      	ldr	r3, [r3, #88]	; 0x58
 8001e0a:	4a08      	ldr	r2, [pc, #32]	; (8001e2c <HAL_MspInit+0x44>)
 8001e0c:	f043 5380 	orr.w	r3, r3, #268435456	; 0x10000000
 8001e10:	6593      	str	r3, [r2, #88]	; 0x58
 8001e12:	4b06      	ldr	r3, [pc, #24]	; (8001e2c <HAL_MspInit+0x44>)
 8001e14:	6d9b      	ldr	r3, [r3, #88]	; 0x58
 8001e16:	f003 5380 	and.w	r3, r3, #268435456	; 0x10000000
 8001e1a:	603b      	str	r3, [r7, #0]
 8001e1c:	683b      	ldr	r3, [r7, #0]
  /* System interrupt init*/

  /* USER CODE BEGIN MspInit 1 */

  /* USER CODE END MspInit 1 */
}
 8001e1e:	bf00      	nop
 8001e20:	370c      	adds	r7, #12
 8001e22:	46bd      	mov	sp, r7
 8001e24:	f85d 7b04 	ldr.w	r7, [sp], #4
 8001e28:	4770      	bx	lr
 8001e2a:	bf00      	nop
 8001e2c:	40021000 	.word	0x40021000

08001e30 <HAL_I2C_MspInit>:
* This function configures the hardware resources used in this example
* @param hi2c: I2C handle pointer
* @retval None
*/
void HAL_I2C_MspInit(I2C_HandleTypeDef* hi2c)
{
 8001e30:	b580      	push	{r7, lr}
 8001e32:	b08a      	sub	sp, #40	; 0x28
 8001e34:	af00      	add	r7, sp, #0
 8001e36:	6078      	str	r0, [r7, #4]
  GPIO_InitTypeDef GPIO_InitStruct = {0};
 8001e38:	f107 0314 	add.w	r3, r7, #20
 8001e3c:	2200      	movs	r2, #0
 8001e3e:	601a      	str	r2, [r3, #0]
 8001e40:	605a      	str	r2, [r3, #4]
 8001e42:	609a      	str	r2, [r3, #8]
 8001e44:	60da      	str	r2, [r3, #12]
 8001e46:	611a      	str	r2, [r3, #16]
  if(hi2c->Instance==I2C2)
 8001e48:	687b      	ldr	r3, [r7, #4]
 8001e4a:	681b      	ldr	r3, [r3, #0]
 8001e4c:	4a17      	ldr	r2, [pc, #92]	; (8001eac <HAL_I2C_MspInit+0x7c>)
 8001e4e:	4293      	cmp	r3, r2
 8001e50:	d128      	bne.n	8001ea4 <HAL_I2C_MspInit+0x74>
  {
  /* USER CODE BEGIN I2C2_MspInit 0 */

  /* USER CODE END I2C2_MspInit 0 */
  
    __HAL_RCC_GPIOB_CLK_ENABLE();
 8001e52:	4b17      	ldr	r3, [pc, #92]	; (8001eb0 <HAL_I2C_MspInit+0x80>)
 8001e54:	6cdb      	ldr	r3, [r3, #76]	; 0x4c
 8001e56:	4a16      	ldr	r2, [pc, #88]	; (8001eb0 <HAL_I2C_MspInit+0x80>)
 8001e58:	f043 0302 	orr.w	r3, r3, #2
 8001e5c:	64d3      	str	r3, [r2, #76]	; 0x4c
 8001e5e:	4b14      	ldr	r3, [pc, #80]	; (8001eb0 <HAL_I2C_MspInit+0x80>)
 8001e60:	6cdb      	ldr	r3, [r3, #76]	; 0x4c
 8001e62:	f003 0302 	and.w	r3, r3, #2
 8001e66:	613b      	str	r3, [r7, #16]
 8001e68:	693b      	ldr	r3, [r7, #16]
    /**I2C2 GPIO Configuration    
    PB10     ------> I2C2_SCL
    PB11     ------> I2C2_SDA 
    */
    GPIO_InitStruct.Pin = INTERNAL_I2C2_SCL_Pin|INTERNAL_I2C2_SDA_Pin;
 8001e6a:	f44f 6340 	mov.w	r3, #3072	; 0xc00
 8001e6e:	617b      	str	r3, [r7, #20]
    GPIO_InitStruct.Mode = GPIO_MODE_AF_OD;
 8001e70:	2312      	movs	r3, #18
 8001e72:	61bb      	str	r3, [r7, #24]
    GPIO_InitStruct.Pull = GPIO_PULLUP;
 8001e74:	2301      	movs	r3, #1
 8001e76:	61fb      	str	r3, [r7, #28]
    GPIO_InitStruct.Speed = GPIO_SPEED_FREQ_VERY_HIGH;
 8001e78:	2303      	movs	r3, #3
 8001e7a:	623b      	str	r3, [r7, #32]
    GPIO_InitStruct.Alternate = GPIO_AF4_I2C2;
 8001e7c:	2304      	movs	r3, #4
 8001e7e:	627b      	str	r3, [r7, #36]	; 0x24
    HAL_GPIO_Init(GPIOB, &GPIO_InitStruct);
 8001e80:	f107 0314 	add.w	r3, r7, #20
 8001e84:	4619      	mov	r1, r3
 8001e86:	480b      	ldr	r0, [pc, #44]	; (8001eb4 <HAL_I2C_MspInit+0x84>)
 8001e88:	f001 fb50 	bl	800352c <HAL_GPIO_Init>

    /* Peripheral clock enable */
    __HAL_RCC_I2C2_CLK_ENABLE();
 8001e8c:	4b08      	ldr	r3, [pc, #32]	; (8001eb0 <HAL_I2C_MspInit+0x80>)
 8001e8e:	6d9b      	ldr	r3, [r3, #88]	; 0x58
 8001e90:	4a07      	ldr	r2, [pc, #28]	; (8001eb0 <HAL_I2C_MspInit+0x80>)
 8001e92:	f443 0380 	orr.w	r3, r3, #4194304	; 0x400000
 8001e96:	6593      	str	r3, [r2, #88]	; 0x58
 8001e98:	4b05      	ldr	r3, [pc, #20]	; (8001eb0 <HAL_I2C_MspInit+0x80>)
 8001e9a:	6d9b      	ldr	r3, [r3, #88]	; 0x58
 8001e9c:	f403 0380 	and.w	r3, r3, #4194304	; 0x400000
 8001ea0:	60fb      	str	r3, [r7, #12]
 8001ea2:	68fb      	ldr	r3, [r7, #12]
  /* USER CODE BEGIN I2C2_MspInit 1 */

  /* USER CODE END I2C2_MspInit 1 */
  }

}
 8001ea4:	bf00      	nop
 8001ea6:	3728      	adds	r7, #40	; 0x28
 8001ea8:	46bd      	mov	sp, r7
 8001eaa:	bd80      	pop	{r7, pc}
 8001eac:	40005800 	.word	0x40005800
 8001eb0:	40021000 	.word	0x40021000
 8001eb4:	48000400 	.word	0x48000400

08001eb8 <HAL_I2C_MspDeInit>:
* This function freeze the hardware resources used in this example
* @param hi2c: I2C handle pointer
* @retval None
*/
void HAL_I2C_MspDeInit(I2C_HandleTypeDef* hi2c)
{
 8001eb8:	b580      	push	{r7, lr}
 8001eba:	b082      	sub	sp, #8
 8001ebc:	af00      	add	r7, sp, #0
 8001ebe:	6078      	str	r0, [r7, #4]
  if(hi2c->Instance==I2C2)
 8001ec0:	687b      	ldr	r3, [r7, #4]
 8001ec2:	681b      	ldr	r3, [r3, #0]
 8001ec4:	4a08      	ldr	r2, [pc, #32]	; (8001ee8 <HAL_I2C_MspDeInit+0x30>)
 8001ec6:	4293      	cmp	r3, r2
 8001ec8:	d10a      	bne.n	8001ee0 <HAL_I2C_MspDeInit+0x28>
  {
  /* USER CODE BEGIN I2C2_MspDeInit 0 */

  /* USER CODE END I2C2_MspDeInit 0 */
    /* Peripheral clock disable */
    __HAL_RCC_I2C2_CLK_DISABLE();
 8001eca:	4b08      	ldr	r3, [pc, #32]	; (8001eec <HAL_I2C_MspDeInit+0x34>)
 8001ecc:	6d9b      	ldr	r3, [r3, #88]	; 0x58
 8001ece:	4a07      	ldr	r2, [pc, #28]	; (8001eec <HAL_I2C_MspDeInit+0x34>)
 8001ed0:	f423 0380 	bic.w	r3, r3, #4194304	; 0x400000
 8001ed4:	6593      	str	r3, [r2, #88]	; 0x58
  
    /**I2C2 GPIO Configuration    
    PB10     ------> I2C2_SCL
    PB11     ------> I2C2_SDA 
    */
    HAL_GPIO_DeInit(GPIOB, INTERNAL_I2C2_SCL_Pin|INTERNAL_I2C2_SDA_Pin);
 8001ed6:	f44f 6140 	mov.w	r1, #3072	; 0xc00
 8001eda:	4805      	ldr	r0, [pc, #20]	; (8001ef0 <HAL_I2C_MspDeInit+0x38>)
 8001edc:	f001 fcd0 	bl	8003880 <HAL_GPIO_DeInit>
  /* USER CODE BEGIN I2C2_MspDeInit 1 */

  /* USER CODE END I2C2_MspDeInit 1 */
  }

}
 8001ee0:	bf00      	nop
 8001ee2:	3708      	adds	r7, #8
 8001ee4:	46bd      	mov	sp, r7
 8001ee6:	bd80      	pop	{r7, pc}
 8001ee8:	40005800 	.word	0x40005800
 8001eec:	40021000 	.word	0x40021000
 8001ef0:	48000400 	.word	0x48000400

08001ef4 <HAL_UART_MspInit>:
* This function configures the hardware resources used in this example
* @param huart: UART handle pointer
* @retval None
*/
void HAL_UART_MspInit(UART_HandleTypeDef* huart)
{
 8001ef4:	b580      	push	{r7, lr}
 8001ef6:	b08c      	sub	sp, #48	; 0x30
 8001ef8:	af00      	add	r7, sp, #0
 8001efa:	6078      	str	r0, [r7, #4]
  GPIO_InitTypeDef GPIO_InitStruct = {0};
 8001efc:	f107 031c 	add.w	r3, r7, #28
 8001f00:	2200      	movs	r2, #0
 8001f02:	601a      	str	r2, [r3, #0]
 8001f04:	605a      	str	r2, [r3, #4]
 8001f06:	609a      	str	r2, [r3, #8]
 8001f08:	60da      	str	r2, [r3, #12]
 8001f0a:	611a      	str	r2, [r3, #16]
  if(huart->Instance==USART1)
 8001f0c:	687b      	ldr	r3, [r7, #4]
 8001f0e:	681b      	ldr	r3, [r3, #0]
 8001f10:	4a2e      	ldr	r2, [pc, #184]	; (8001fcc <HAL_UART_MspInit+0xd8>)
 8001f12:	4293      	cmp	r3, r2
 8001f14:	d128      	bne.n	8001f68 <HAL_UART_MspInit+0x74>
  {
  /* USER CODE BEGIN USART1_MspInit 0 */

  /* USER CODE END USART1_MspInit 0 */
    /* Peripheral clock enable */
    __HAL_RCC_USART1_CLK_ENABLE();
 8001f16:	4b2e      	ldr	r3, [pc, #184]	; (8001fd0 <HAL_UART_MspInit+0xdc>)
 8001f18:	6e1b      	ldr	r3, [r3, #96]	; 0x60
 8001f1a:	4a2d      	ldr	r2, [pc, #180]	; (8001fd0 <HAL_UART_MspInit+0xdc>)
 8001f1c:	f443 4380 	orr.w	r3, r3, #16384	; 0x4000
 8001f20:	6613      	str	r3, [r2, #96]	; 0x60
 8001f22:	4b2b      	ldr	r3, [pc, #172]	; (8001fd0 <HAL_UART_MspInit+0xdc>)
 8001f24:	6e1b      	ldr	r3, [r3, #96]	; 0x60
 8001f26:	f403 4380 	and.w	r3, r3, #16384	; 0x4000
 8001f2a:	61bb      	str	r3, [r7, #24]
 8001f2c:	69bb      	ldr	r3, [r7, #24]
  
    __HAL_RCC_GPIOB_CLK_ENABLE();
 8001f2e:	4b28      	ldr	r3, [pc, #160]	; (8001fd0 <HAL_UART_MspInit+0xdc>)
 8001f30:	6cdb      	ldr	r3, [r3, #76]	; 0x4c
 8001f32:	4a27      	ldr	r2, [pc, #156]	; (8001fd0 <HAL_UART_MspInit+0xdc>)
 8001f34:	f043 0302 	orr.w	r3, r3, #2
 8001f38:	64d3      	str	r3, [r2, #76]	; 0x4c
 8001f3a:	4b25      	ldr	r3, [pc, #148]	; (8001fd0 <HAL_UART_MspInit+0xdc>)
 8001f3c:	6cdb      	ldr	r3, [r3, #76]	; 0x4c
 8001f3e:	f003 0302 	and.w	r3, r3, #2
 8001f42:	617b      	str	r3, [r7, #20]
 8001f44:	697b      	ldr	r3, [r7, #20]
    /**USART1 GPIO Configuration    
    PB6     ------> USART1_TX
    PB7     ------> USART1_RX 
    */
    GPIO_InitStruct.Pin = ST_LINK_UART1_TX_Pin|ST_LINK_UART1_RX_Pin;
 8001f46:	23c0      	movs	r3, #192	; 0xc0
 8001f48:	61fb      	str	r3, [r7, #28]
    GPIO_InitStruct.Mode = GPIO_MODE_AF_PP;
 8001f4a:	2302      	movs	r3, #2
 8001f4c:	623b      	str	r3, [r7, #32]
    GPIO_InitStruct.Pull = GPIO_NOPULL;
 8001f4e:	2300      	movs	r3, #0
 8001f50:	627b      	str	r3, [r7, #36]	; 0x24
    GPIO_InitStruct.Speed = GPIO_SPEED_FREQ_VERY_HIGH;
 8001f52:	2303      	movs	r3, #3
 8001f54:	62bb      	str	r3, [r7, #40]	; 0x28
    GPIO_InitStruct.Alternate = GPIO_AF7_USART1;
 8001f56:	2307      	movs	r3, #7
 8001f58:	62fb      	str	r3, [r7, #44]	; 0x2c
    HAL_GPIO_Init(GPIOB, &GPIO_InitStruct);
 8001f5a:	f107 031c 	add.w	r3, r7, #28
 8001f5e:	4619      	mov	r1, r3
 8001f60:	481c      	ldr	r0, [pc, #112]	; (8001fd4 <HAL_UART_MspInit+0xe0>)
 8001f62:	f001 fae3 	bl	800352c <HAL_GPIO_Init>
  /* USER CODE BEGIN USART3_MspInit 1 */

  /* USER CODE END USART3_MspInit 1 */
  }

}
 8001f66:	e02d      	b.n	8001fc4 <HAL_UART_MspInit+0xd0>
  else if(huart->Instance==USART3)
 8001f68:	687b      	ldr	r3, [r7, #4]
 8001f6a:	681b      	ldr	r3, [r3, #0]
 8001f6c:	4a1a      	ldr	r2, [pc, #104]	; (8001fd8 <HAL_UART_MspInit+0xe4>)
 8001f6e:	4293      	cmp	r3, r2
 8001f70:	d128      	bne.n	8001fc4 <HAL_UART_MspInit+0xd0>
    __HAL_RCC_USART3_CLK_ENABLE();
 8001f72:	4b17      	ldr	r3, [pc, #92]	; (8001fd0 <HAL_UART_MspInit+0xdc>)
 8001f74:	6d9b      	ldr	r3, [r3, #88]	; 0x58
 8001f76:	4a16      	ldr	r2, [pc, #88]	; (8001fd0 <HAL_UART_MspInit+0xdc>)
 8001f78:	f443 2380 	orr.w	r3, r3, #262144	; 0x40000
 8001f7c:	6593      	str	r3, [r2, #88]	; 0x58
 8001f7e:	4b14      	ldr	r3, [pc, #80]	; (8001fd0 <HAL_UART_MspInit+0xdc>)
 8001f80:	6d9b      	ldr	r3, [r3, #88]	; 0x58
 8001f82:	f403 2380 	and.w	r3, r3, #262144	; 0x40000
 8001f86:	613b      	str	r3, [r7, #16]
 8001f88:	693b      	ldr	r3, [r7, #16]
    __HAL_RCC_GPIOD_CLK_ENABLE();
 8001f8a:	4b11      	ldr	r3, [pc, #68]	; (8001fd0 <HAL_UART_MspInit+0xdc>)
 8001f8c:	6cdb      	ldr	r3, [r3, #76]	; 0x4c
 8001f8e:	4a10      	ldr	r2, [pc, #64]	; (8001fd0 <HAL_UART_MspInit+0xdc>)
 8001f90:	f043 0308 	orr.w	r3, r3, #8
 8001f94:	64d3      	str	r3, [r2, #76]	; 0x4c
 8001f96:	4b0e      	ldr	r3, [pc, #56]	; (8001fd0 <HAL_UART_MspInit+0xdc>)
 8001f98:	6cdb      	ldr	r3, [r3, #76]	; 0x4c
 8001f9a:	f003 0308 	and.w	r3, r3, #8
 8001f9e:	60fb      	str	r3, [r7, #12]
 8001fa0:	68fb      	ldr	r3, [r7, #12]
    GPIO_InitStruct.Pin = INTERNAL_UART3_TX_Pin|INTERNAL_UART3_RX_Pin;
 8001fa2:	f44f 7340 	mov.w	r3, #768	; 0x300
 8001fa6:	61fb      	str	r3, [r7, #28]
    GPIO_InitStruct.Mode = GPIO_MODE_AF_PP;
 8001fa8:	2302      	movs	r3, #2
 8001faa:	623b      	str	r3, [r7, #32]
    GPIO_InitStruct.Pull = GPIO_NOPULL;
 8001fac:	2300      	movs	r3, #0
 8001fae:	627b      	str	r3, [r7, #36]	; 0x24
    GPIO_InitStruct.Speed = GPIO_SPEED_FREQ_VERY_HIGH;
 8001fb0:	2303      	movs	r3, #3
 8001fb2:	62bb      	str	r3, [r7, #40]	; 0x28
    GPIO_InitStruct.Alternate = GPIO_AF7_USART3;
 8001fb4:	2307      	movs	r3, #7
 8001fb6:	62fb      	str	r3, [r7, #44]	; 0x2c
    HAL_GPIO_Init(GPIOD, &GPIO_InitStruct);
 8001fb8:	f107 031c 	add.w	r3, r7, #28
 8001fbc:	4619      	mov	r1, r3
 8001fbe:	4807      	ldr	r0, [pc, #28]	; (8001fdc <HAL_UART_MspInit+0xe8>)
 8001fc0:	f001 fab4 	bl	800352c <HAL_GPIO_Init>
}
 8001fc4:	bf00      	nop
 8001fc6:	3730      	adds	r7, #48	; 0x30
 8001fc8:	46bd      	mov	sp, r7
 8001fca:	bd80      	pop	{r7, pc}
 8001fcc:	40013800 	.word	0x40013800
 8001fd0:	40021000 	.word	0x40021000
 8001fd4:	48000400 	.word	0x48000400
 8001fd8:	40004800 	.word	0x40004800
 8001fdc:	48000c00 	.word	0x48000c00

08001fe0 <NMI_Handler>:
/******************************************************************************/
/**
  * @brief This function handles Non maskable interrupt.
  */
void NMI_Handler(void)
{
 8001fe0:	b480      	push	{r7}
 8001fe2:	af00      	add	r7, sp, #0

  /* USER CODE END NonMaskableInt_IRQn 0 */
  /* USER CODE BEGIN NonMaskableInt_IRQn 1 */

  /* USER CODE END NonMaskableInt_IRQn 1 */
}
 8001fe4:	bf00      	nop
 8001fe6:	46bd      	mov	sp, r7
 8001fe8:	f85d 7b04 	ldr.w	r7, [sp], #4
 8001fec:	4770      	bx	lr

08001fee <HardFault_Handler>:

/**
  * @brief This function handles Hard fault interrupt.
  */
void HardFault_Handler(void)
{
 8001fee:	b480      	push	{r7}
 8001ff0:	af00      	add	r7, sp, #0
  /* USER CODE BEGIN HardFault_IRQn 0 */

  /* USER CODE END HardFault_IRQn 0 */
  while (1)
 8001ff2:	e7fe      	b.n	8001ff2 <HardFault_Handler+0x4>

08001ff4 <MemManage_Handler>:

/**
  * @brief This function handles Memory management fault.
  */
void MemManage_Handler(void)
{
 8001ff4:	b480      	push	{r7}
 8001ff6:	af00      	add	r7, sp, #0
  /* USER CODE BEGIN MemoryManagement_IRQn 0 */

  /* USER CODE END MemoryManagement_IRQn 0 */
  while (1)
 8001ff8:	e7fe      	b.n	8001ff8 <MemManage_Handler+0x4>

08001ffa <BusFault_Handler>:

/**
  * @brief This function handles Prefetch fault, memory access fault.
  */
void BusFault_Handler(void)
{
 8001ffa:	b480      	push	{r7}
 8001ffc:	af00      	add	r7, sp, #0
  /* USER CODE BEGIN BusFault_IRQn 0 */

  /* USER CODE END BusFault_IRQn 0 */
  while (1)
 8001ffe:	e7fe      	b.n	8001ffe <BusFault_Handler+0x4>

08002000 <UsageFault_Handler>:

/**
  * @brief This function handles Undefined instruction or illegal state.
  */
void UsageFault_Handler(void)
{
 8002000:	b480      	push	{r7}
 8002002:	af00      	add	r7, sp, #0
  /* USER CODE BEGIN UsageFault_IRQn 0 */

  /* USER CODE END UsageFault_IRQn 0 */
  while (1)
 8002004:	e7fe      	b.n	8002004 <UsageFault_Handler+0x4>

08002006 <SVC_Handler>:

/**
  * @brief This function handles System service call via SWI instruction.
  */
void SVC_Handler(void)
{
 8002006:	b480      	push	{r7}
 8002008:	af00      	add	r7, sp, #0

  /* USER CODE END SVCall_IRQn 0 */
  /* USER CODE BEGIN SVCall_IRQn 1 */

  /* USER CODE END SVCall_IRQn 1 */
}
 800200a:	bf00      	nop
 800200c:	46bd      	mov	sp, r7
 800200e:	f85d 7b04 	ldr.w	r7, [sp], #4
 8002012:	4770      	bx	lr

08002014 <DebugMon_Handler>:

/**
  * @brief This function handles Debug monitor.
  */
void DebugMon_Handler(void)
{
 8002014:	b480      	push	{r7}
 8002016:	af00      	add	r7, sp, #0

  /* USER CODE END DebugMonitor_IRQn 0 */
  /* USER CODE BEGIN DebugMonitor_IRQn 1 */

  /* USER CODE END DebugMonitor_IRQn 1 */
}
 8002018:	bf00      	nop
 800201a:	46bd      	mov	sp, r7
 800201c:	f85d 7b04 	ldr.w	r7, [sp], #4
 8002020:	4770      	bx	lr

08002022 <PendSV_Handler>:

/**
  * @brief This function handles Pendable request for system service.
  */
void PendSV_Handler(void)
{
 8002022:	b480      	push	{r7}
 8002024:	af00      	add	r7, sp, #0

  /* USER CODE END PendSV_IRQn 0 */
  /* USER CODE BEGIN PendSV_IRQn 1 */

  /* USER CODE END PendSV_IRQn 1 */
}
 8002026:	bf00      	nop
 8002028:	46bd      	mov	sp, r7
 800202a:	f85d 7b04 	ldr.w	r7, [sp], #4
 800202e:	4770      	bx	lr

08002030 <SysTick_Handler>:

/**
  * @brief This function handles System tick timer.
  */
void SysTick_Handler(void)
{
 8002030:	b580      	push	{r7, lr}
 8002032:	af00      	add	r7, sp, #0
  /* USER CODE BEGIN SysTick_IRQn 0 */

  /* USER CODE END SysTick_IRQn 0 */
  HAL_IncTick();
 8002034:	f001 f94a 	bl	80032cc <HAL_IncTick>
  /* USER CODE BEGIN SysTick_IRQn 1 */

  /* USER CODE END SysTick_IRQn 1 */
}
 8002038:	bf00      	nop
 800203a:	bd80      	pop	{r7, pc}

0800203c <EXTI9_5_IRQHandler>:

/**
  * @brief This function handles EXTI line[9:5] interrupts.
  */
void EXTI9_5_IRQHandler(void)
{
 800203c:	b580      	push	{r7, lr}
 800203e:	af00      	add	r7, sp, #0
  /* USER CODE BEGIN EXTI9_5_IRQn 0 */

  /* USER CODE END EXTI9_5_IRQn 0 */
  HAL_GPIO_EXTI_IRQHandler(GPIO_PIN_5);
 8002040:	2020      	movs	r0, #32
 8002042:	f001 fd5b 	bl	8003afc <HAL_GPIO_EXTI_IRQHandler>
  HAL_GPIO_EXTI_IRQHandler(GPIO_PIN_6);
 8002046:	2040      	movs	r0, #64	; 0x40
 8002048:	f001 fd58 	bl	8003afc <HAL_GPIO_EXTI_IRQHandler>
  HAL_GPIO_EXTI_IRQHandler(GPIO_PIN_7);
 800204c:	2080      	movs	r0, #128	; 0x80
 800204e:	f001 fd55 	bl	8003afc <HAL_GPIO_EXTI_IRQHandler>
  HAL_GPIO_EXTI_IRQHandler(GPIO_PIN_8);
 8002052:	f44f 7080 	mov.w	r0, #256	; 0x100
 8002056:	f001 fd51 	bl	8003afc <HAL_GPIO_EXTI_IRQHandler>
  /* USER CODE BEGIN EXTI9_5_IRQn 1 */

  /* USER CODE END EXTI9_5_IRQn 1 */
}
 800205a:	bf00      	nop
 800205c:	bd80      	pop	{r7, pc}

0800205e <EXTI15_10_IRQHandler>:

/**
  * @brief This function handles EXTI line[15:10] interrupts.
  */
void EXTI15_10_IRQHandler(void)
{
 800205e:	b580      	push	{r7, lr}
 8002060:	af00      	add	r7, sp, #0
  /* USER CODE BEGIN EXTI15_10_IRQn 0 */

  /* USER CODE END EXTI15_10_IRQn 0 */
  HAL_GPIO_EXTI_IRQHandler(GPIO_PIN_10);
 8002062:	f44f 6080 	mov.w	r0, #1024	; 0x400
 8002066:	f001 fd49 	bl	8003afc <HAL_GPIO_EXTI_IRQHandler>
  HAL_GPIO_EXTI_IRQHandler(GPIO_PIN_11);
 800206a:	f44f 6000 	mov.w	r0, #2048	; 0x800
 800206e:	f001 fd45 	bl	8003afc <HAL_GPIO_EXTI_IRQHandler>
  HAL_GPIO_EXTI_IRQHandler(GPIO_PIN_13);
 8002072:	f44f 5000 	mov.w	r0, #8192	; 0x2000
 8002076:	f001 fd41 	bl	8003afc <HAL_GPIO_EXTI_IRQHandler>
  HAL_GPIO_EXTI_IRQHandler(GPIO_PIN_14);
 800207a:	f44f 4080 	mov.w	r0, #16384	; 0x4000
 800207e:	f001 fd3d 	bl	8003afc <HAL_GPIO_EXTI_IRQHandler>
  HAL_GPIO_EXTI_IRQHandler(GPIO_PIN_15);
 8002082:	f44f 4000 	mov.w	r0, #32768	; 0x8000
 8002086:	f001 fd39 	bl	8003afc <HAL_GPIO_EXTI_IRQHandler>
  /* USER CODE BEGIN EXTI15_10_IRQn 1 */

  /* USER CODE END EXTI15_10_IRQn 1 */
}
 800208a:	bf00      	nop
 800208c:	bd80      	pop	{r7, pc}
	...

08002090 <_sbrk>:
/**
 _sbrk
 Increase program data space. Malloc and related functions depend on this
**/
caddr_t _sbrk(int incr)
{
 8002090:	b580      	push	{r7, lr}
 8002092:	b084      	sub	sp, #16
 8002094:	af00      	add	r7, sp, #0
 8002096:	6078      	str	r0, [r7, #4]
	extern char end asm("end");
	static char *heap_end;
	char *prev_heap_end;

	if (heap_end == 0)
 8002098:	4b11      	ldr	r3, [pc, #68]	; (80020e0 <_sbrk+0x50>)
 800209a:	681b      	ldr	r3, [r3, #0]
 800209c:	2b00      	cmp	r3, #0
 800209e:	d102      	bne.n	80020a6 <_sbrk+0x16>
		heap_end = &end;
 80020a0:	4b0f      	ldr	r3, [pc, #60]	; (80020e0 <_sbrk+0x50>)
 80020a2:	4a10      	ldr	r2, [pc, #64]	; (80020e4 <_sbrk+0x54>)
 80020a4:	601a      	str	r2, [r3, #0]

	prev_heap_end = heap_end;
 80020a6:	4b0e      	ldr	r3, [pc, #56]	; (80020e0 <_sbrk+0x50>)
 80020a8:	681b      	ldr	r3, [r3, #0]
 80020aa:	60fb      	str	r3, [r7, #12]
	if (heap_end + incr > stack_ptr)
 80020ac:	4b0c      	ldr	r3, [pc, #48]	; (80020e0 <_sbrk+0x50>)
 80020ae:	681a      	ldr	r2, [r3, #0]
 80020b0:	687b      	ldr	r3, [r7, #4]
 80020b2:	4413      	add	r3, r2
 80020b4:	466a      	mov	r2, sp
 80020b6:	4293      	cmp	r3, r2
 80020b8:	d907      	bls.n	80020ca <_sbrk+0x3a>
	{
		errno = ENOMEM;
 80020ba:	f003 fa7f 	bl	80055bc <__errno>
 80020be:	4603      	mov	r3, r0
 80020c0:	220c      	movs	r2, #12
 80020c2:	601a      	str	r2, [r3, #0]
		return (caddr_t) -1;
 80020c4:	f04f 33ff 	mov.w	r3, #4294967295
 80020c8:	e006      	b.n	80020d8 <_sbrk+0x48>
	}

	heap_end += incr;
 80020ca:	4b05      	ldr	r3, [pc, #20]	; (80020e0 <_sbrk+0x50>)
 80020cc:	681a      	ldr	r2, [r3, #0]
 80020ce:	687b      	ldr	r3, [r7, #4]
 80020d0:	4413      	add	r3, r2
 80020d2:	4a03      	ldr	r2, [pc, #12]	; (80020e0 <_sbrk+0x50>)
 80020d4:	6013      	str	r3, [r2, #0]

	return (caddr_t) prev_heap_end;
 80020d6:	68fb      	ldr	r3, [r7, #12]
}
 80020d8:	4618      	mov	r0, r3
 80020da:	3710      	adds	r7, #16
 80020dc:	46bd      	mov	sp, r7
 80020de:	bd80      	pop	{r7, pc}
 80020e0:	20000544 	.word	0x20000544
 80020e4:	20000660 	.word	0x20000660

080020e8 <SystemInit>:
  * @param  None
  * @retval None
  */

void SystemInit(void)
{
 80020e8:	b480      	push	{r7}
 80020ea:	af00      	add	r7, sp, #0
  /* FPU settings ------------------------------------------------------------*/
  #if (__FPU_PRESENT == 1) && (__FPU_USED == 1)
    SCB->CPACR |= ((3UL << 10*2)|(3UL << 11*2));  /* set CP10 and CP11 Full Access */
 80020ec:	4b17      	ldr	r3, [pc, #92]	; (800214c <SystemInit+0x64>)
 80020ee:	f8d3 3088 	ldr.w	r3, [r3, #136]	; 0x88
 80020f2:	4a16      	ldr	r2, [pc, #88]	; (800214c <SystemInit+0x64>)
 80020f4:	f443 0370 	orr.w	r3, r3, #15728640	; 0xf00000
 80020f8:	f8c2 3088 	str.w	r3, [r2, #136]	; 0x88
  #endif

  /* Reset the RCC clock configuration to the default reset state ------------*/
  /* Set MSION bit */
  RCC->CR |= RCC_CR_MSION;
 80020fc:	4b14      	ldr	r3, [pc, #80]	; (8002150 <SystemInit+0x68>)
 80020fe:	681b      	ldr	r3, [r3, #0]
 8002100:	4a13      	ldr	r2, [pc, #76]	; (8002150 <SystemInit+0x68>)
 8002102:	f043 0301 	orr.w	r3, r3, #1
 8002106:	6013      	str	r3, [r2, #0]

  /* Reset CFGR register */
  RCC->CFGR = 0x00000000U;
 8002108:	4b11      	ldr	r3, [pc, #68]	; (8002150 <SystemInit+0x68>)
 800210a:	2200      	movs	r2, #0
 800210c:	609a      	str	r2, [r3, #8]

  /* Reset HSEON, CSSON , HSION, and PLLON bits */
  RCC->CR &= 0xEAF6FFFFU;
 800210e:	4b10      	ldr	r3, [pc, #64]	; (8002150 <SystemInit+0x68>)
 8002110:	681b      	ldr	r3, [r3, #0]
 8002112:	4a0f      	ldr	r2, [pc, #60]	; (8002150 <SystemInit+0x68>)
 8002114:	f023 53a8 	bic.w	r3, r3, #352321536	; 0x15000000
 8002118:	f423 2310 	bic.w	r3, r3, #589824	; 0x90000
 800211c:	6013      	str	r3, [r2, #0]

  /* Reset PLLCFGR register */
  RCC->PLLCFGR = 0x00001000U;
 800211e:	4b0c      	ldr	r3, [pc, #48]	; (8002150 <SystemInit+0x68>)
 8002120:	f44f 5280 	mov.w	r2, #4096	; 0x1000
 8002124:	60da      	str	r2, [r3, #12]

  /* Reset HSEBYP bit */
  RCC->CR &= 0xFFFBFFFFU;
 8002126:	4b0a      	ldr	r3, [pc, #40]	; (8002150 <SystemInit+0x68>)
 8002128:	681b      	ldr	r3, [r3, #0]
 800212a:	4a09      	ldr	r2, [pc, #36]	; (8002150 <SystemInit+0x68>)
 800212c:	f423 2380 	bic.w	r3, r3, #262144	; 0x40000
 8002130:	6013      	str	r3, [r2, #0]

  /* Disable all interrupts */
  RCC->CIER = 0x00000000U;
 8002132:	4b07      	ldr	r3, [pc, #28]	; (8002150 <SystemInit+0x68>)
 8002134:	2200      	movs	r2, #0
 8002136:	619a      	str	r2, [r3, #24]

  /* Configure the Vector Table location add offset address ------------------*/
#ifdef VECT_TAB_SRAM
  SCB->VTOR = SRAM_BASE | VECT_TAB_OFFSET; /* Vector Table Relocation in Internal SRAM */
#else
  SCB->VTOR = FLASH_BASE | VECT_TAB_OFFSET; /* Vector Table Relocation in Internal FLASH */
 8002138:	4b04      	ldr	r3, [pc, #16]	; (800214c <SystemInit+0x64>)
 800213a:	f04f 6200 	mov.w	r2, #134217728	; 0x8000000
 800213e:	609a      	str	r2, [r3, #8]
#endif
}
 8002140:	bf00      	nop
 8002142:	46bd      	mov	sp, r7
 8002144:	f85d 7b04 	ldr.w	r7, [sp], #4
 8002148:	4770      	bx	lr
 800214a:	bf00      	nop
 800214c:	e000ed00 	.word	0xe000ed00
 8002150:	40021000 	.word	0x40021000

08002154 <Reset_Handler>:

    .section	.text.Reset_Handler
	.weak	Reset_Handler
	.type	Reset_Handler, %function
Reset_Handler:
  ldr   sp, =_estack    /* Set stack pointer */
 8002154:	f8df d034 	ldr.w	sp, [pc, #52]	; 800218c <LoopForever+0x2>

/* Copy the data segment initializers from flash to SRAM */
  movs	r1, #0
 8002158:	2100      	movs	r1, #0
  b	LoopCopyDataInit
 800215a:	e003      	b.n	8002164 <LoopCopyDataInit>

0800215c <CopyDataInit>:

CopyDataInit:
	ldr	r3, =_sidata
 800215c:	4b0c      	ldr	r3, [pc, #48]	; (8002190 <LoopForever+0x6>)
	ldr	r3, [r3, r1]
 800215e:	585b      	ldr	r3, [r3, r1]
	str	r3, [r0, r1]
 8002160:	5043      	str	r3, [r0, r1]
	adds	r1, r1, #4
 8002162:	3104      	adds	r1, #4

08002164 <LoopCopyDataInit>:

LoopCopyDataInit:
	ldr	r0, =_sdata
 8002164:	480b      	ldr	r0, [pc, #44]	; (8002194 <LoopForever+0xa>)
	ldr	r3, =_edata
 8002166:	4b0c      	ldr	r3, [pc, #48]	; (8002198 <LoopForever+0xe>)
	adds	r2, r0, r1
 8002168:	1842      	adds	r2, r0, r1
	cmp	r2, r3
 800216a:	429a      	cmp	r2, r3
	bcc	CopyDataInit
 800216c:	d3f6      	bcc.n	800215c <CopyDataInit>
	ldr	r2, =_sbss
 800216e:	4a0b      	ldr	r2, [pc, #44]	; (800219c <LoopForever+0x12>)
	b	LoopFillZerobss
 8002170:	e002      	b.n	8002178 <LoopFillZerobss>

08002172 <FillZerobss>:
/* Zero fill the bss segment. */
FillZerobss:
	movs	r3, #0
 8002172:	2300      	movs	r3, #0
	str	r3, [r2], #4
 8002174:	f842 3b04 	str.w	r3, [r2], #4

08002178 <LoopFillZerobss>:

LoopFillZerobss:
	ldr	r3, = _ebss
 8002178:	4b09      	ldr	r3, [pc, #36]	; (80021a0 <LoopForever+0x16>)
	cmp	r2, r3
 800217a:	429a      	cmp	r2, r3
	bcc	FillZerobss
 800217c:	d3f9      	bcc.n	8002172 <FillZerobss>

/* Call the clock system intitialization function.*/
    bl  SystemInit
 800217e:	f7ff ffb3 	bl	80020e8 <SystemInit>
/* Call static constructors */
    bl __libc_init_array
 8002182:	f003 fb17 	bl	80057b4 <__libc_init_array>
/* Call the application's entry point.*/
	bl	main
 8002186:	f7fe fec9 	bl	8000f1c <main>

0800218a <LoopForever>:

LoopForever:
    b LoopForever
 800218a:	e7fe      	b.n	800218a <LoopForever>
  ldr   sp, =_estack    /* Set stack pointer */
 800218c:	20018000 	.word	0x20018000
	ldr	r3, =_sidata
 8002190:	08008a88 	.word	0x08008a88
	ldr	r0, =_sdata
 8002194:	20000000 	.word	0x20000000
	ldr	r3, =_edata
 8002198:	200002a4 	.word	0x200002a4
	ldr	r2, =_sbss
 800219c:	200002a4 	.word	0x200002a4
	ldr	r3, = _ebss
 80021a0:	20000660 	.word	0x20000660

080021a4 <ADC1_2_IRQHandler>:
 * @retval : None
*/
    .section	.text.Default_Handler,"ax",%progbits
Default_Handler:
Infinite_Loop:
	b	Infinite_Loop
 80021a4:	e7fe      	b.n	80021a4 <ADC1_2_IRQHandler>
	...

080021a8 <I2Cx_MspInit>:
  * @brief  Initializes I2C MSP.
  * @param  i2c_handler : I2C handler
  * @retval None
  */
static void I2Cx_MspInit(I2C_HandleTypeDef *i2c_handler)
{
 80021a8:	b580      	push	{r7, lr}
 80021aa:	b08a      	sub	sp, #40	; 0x28
 80021ac:	af00      	add	r7, sp, #0
 80021ae:	6078      	str	r0, [r7, #4]
  GPIO_InitTypeDef  gpio_init_structure;

  /*** Configure the GPIOs ***/
  /* Enable GPIO clock */
  DISCOVERY_I2Cx_SCL_SDA_GPIO_CLK_ENABLE();
 80021b0:	4b27      	ldr	r3, [pc, #156]	; (8002250 <I2Cx_MspInit+0xa8>)
 80021b2:	6cdb      	ldr	r3, [r3, #76]	; 0x4c
 80021b4:	4a26      	ldr	r2, [pc, #152]	; (8002250 <I2Cx_MspInit+0xa8>)
 80021b6:	f043 0302 	orr.w	r3, r3, #2
 80021ba:	64d3      	str	r3, [r2, #76]	; 0x4c
 80021bc:	4b24      	ldr	r3, [pc, #144]	; (8002250 <I2Cx_MspInit+0xa8>)
 80021be:	6cdb      	ldr	r3, [r3, #76]	; 0x4c
 80021c0:	f003 0302 	and.w	r3, r3, #2
 80021c4:	613b      	str	r3, [r7, #16]
 80021c6:	693b      	ldr	r3, [r7, #16]

  /* Configure I2C Tx, Rx as alternate function */
  gpio_init_structure.Pin = DISCOVERY_I2Cx_SCL_PIN | DISCOVERY_I2Cx_SDA_PIN;
 80021c8:	f44f 6340 	mov.w	r3, #3072	; 0xc00
 80021cc:	617b      	str	r3, [r7, #20]
  gpio_init_structure.Mode = GPIO_MODE_AF_OD;
 80021ce:	2312      	movs	r3, #18
 80021d0:	61bb      	str	r3, [r7, #24]
  gpio_init_structure.Pull = GPIO_PULLUP;
 80021d2:	2301      	movs	r3, #1
 80021d4:	61fb      	str	r3, [r7, #28]
  gpio_init_structure.Speed = GPIO_SPEED_FREQ_VERY_HIGH;
 80021d6:	2303      	movs	r3, #3
 80021d8:	623b      	str	r3, [r7, #32]
  gpio_init_structure.Alternate = DISCOVERY_I2Cx_SCL_SDA_AF;
 80021da:	2304      	movs	r3, #4
 80021dc:	627b      	str	r3, [r7, #36]	; 0x24
  HAL_GPIO_Init(DISCOVERY_I2Cx_SCL_SDA_GPIO_PORT, &gpio_init_structure);
 80021de:	f107 0314 	add.w	r3, r7, #20
 80021e2:	4619      	mov	r1, r3
 80021e4:	481b      	ldr	r0, [pc, #108]	; (8002254 <I2Cx_MspInit+0xac>)
 80021e6:	f001 f9a1 	bl	800352c <HAL_GPIO_Init>

  HAL_GPIO_Init(DISCOVERY_I2Cx_SCL_SDA_GPIO_PORT, &gpio_init_structure);
 80021ea:	f107 0314 	add.w	r3, r7, #20
 80021ee:	4619      	mov	r1, r3
 80021f0:	4818      	ldr	r0, [pc, #96]	; (8002254 <I2Cx_MspInit+0xac>)
 80021f2:	f001 f99b 	bl	800352c <HAL_GPIO_Init>

  /*** Configure the I2C peripheral ***/
  /* Enable I2C clock */
  DISCOVERY_I2Cx_CLK_ENABLE();
 80021f6:	4b16      	ldr	r3, [pc, #88]	; (8002250 <I2Cx_MspInit+0xa8>)
 80021f8:	6d9b      	ldr	r3, [r3, #88]	; 0x58
 80021fa:	4a15      	ldr	r2, [pc, #84]	; (8002250 <I2Cx_MspInit+0xa8>)
 80021fc:	f443 0380 	orr.w	r3, r3, #4194304	; 0x400000
 8002200:	6593      	str	r3, [r2, #88]	; 0x58
 8002202:	4b13      	ldr	r3, [pc, #76]	; (8002250 <I2Cx_MspInit+0xa8>)
 8002204:	6d9b      	ldr	r3, [r3, #88]	; 0x58
 8002206:	f403 0380 	and.w	r3, r3, #4194304	; 0x400000
 800220a:	60fb      	str	r3, [r7, #12]
 800220c:	68fb      	ldr	r3, [r7, #12]

  /* Force the I2C peripheral clock reset */
  DISCOVERY_I2Cx_FORCE_RESET();
 800220e:	4b10      	ldr	r3, [pc, #64]	; (8002250 <I2Cx_MspInit+0xa8>)
 8002210:	6b9b      	ldr	r3, [r3, #56]	; 0x38
 8002212:	4a0f      	ldr	r2, [pc, #60]	; (8002250 <I2Cx_MspInit+0xa8>)
 8002214:	f443 0380 	orr.w	r3, r3, #4194304	; 0x400000
 8002218:	6393      	str	r3, [r2, #56]	; 0x38

  /* Release the I2C peripheral clock reset */
  DISCOVERY_I2Cx_RELEASE_RESET();
 800221a:	4b0d      	ldr	r3, [pc, #52]	; (8002250 <I2Cx_MspInit+0xa8>)
 800221c:	6b9b      	ldr	r3, [r3, #56]	; 0x38
 800221e:	4a0c      	ldr	r2, [pc, #48]	; (8002250 <I2Cx_MspInit+0xa8>)
 8002220:	f423 0380 	bic.w	r3, r3, #4194304	; 0x400000
 8002224:	6393      	str	r3, [r2, #56]	; 0x38

  /* Enable and set I2Cx Interrupt to a lower priority */
  HAL_NVIC_SetPriority(DISCOVERY_I2Cx_EV_IRQn, 0x0F, 0);
 8002226:	2200      	movs	r2, #0
 8002228:	210f      	movs	r1, #15
 800222a:	2021      	movs	r0, #33	; 0x21
 800222c:	f001 f947 	bl	80034be <HAL_NVIC_SetPriority>
  HAL_NVIC_EnableIRQ(DISCOVERY_I2Cx_EV_IRQn);
 8002230:	2021      	movs	r0, #33	; 0x21
 8002232:	f001 f960 	bl	80034f6 <HAL_NVIC_EnableIRQ>

  /* Enable and set I2Cx Interrupt to a lower priority */
  HAL_NVIC_SetPriority(DISCOVERY_I2Cx_ER_IRQn, 0x0F, 0);
 8002236:	2200      	movs	r2, #0
 8002238:	210f      	movs	r1, #15
 800223a:	2022      	movs	r0, #34	; 0x22
 800223c:	f001 f93f 	bl	80034be <HAL_NVIC_SetPriority>
  HAL_NVIC_EnableIRQ(DISCOVERY_I2Cx_ER_IRQn);
 8002240:	2022      	movs	r0, #34	; 0x22
 8002242:	f001 f958 	bl	80034f6 <HAL_NVIC_EnableIRQ>
}
 8002246:	bf00      	nop
 8002248:	3728      	adds	r7, #40	; 0x28
 800224a:	46bd      	mov	sp, r7
 800224c:	bd80      	pop	{r7, pc}
 800224e:	bf00      	nop
 8002250:	40021000 	.word	0x40021000
 8002254:	48000400 	.word	0x48000400

08002258 <I2Cx_Init>:
  * @brief  Initializes I2C HAL.
  * @param  i2c_handler : I2C handler
  * @retval None
  */
static void I2Cx_Init(I2C_HandleTypeDef *i2c_handler)
{
 8002258:	b580      	push	{r7, lr}
 800225a:	b082      	sub	sp, #8
 800225c:	af00      	add	r7, sp, #0
 800225e:	6078      	str	r0, [r7, #4]
  /* I2C configuration */
  i2c_handler->Instance              = DISCOVERY_I2Cx;
 8002260:	687b      	ldr	r3, [r7, #4]
 8002262:	4a12      	ldr	r2, [pc, #72]	; (80022ac <I2Cx_Init+0x54>)
 8002264:	601a      	str	r2, [r3, #0]
  i2c_handler->Init.Timing           = DISCOVERY_I2Cx_TIMING;
 8002266:	687b      	ldr	r3, [r7, #4]
 8002268:	4a11      	ldr	r2, [pc, #68]	; (80022b0 <I2Cx_Init+0x58>)
 800226a:	605a      	str	r2, [r3, #4]
  i2c_handler->Init.OwnAddress1      = 0;
 800226c:	687b      	ldr	r3, [r7, #4]
 800226e:	2200      	movs	r2, #0
 8002270:	609a      	str	r2, [r3, #8]
  i2c_handler->Init.AddressingMode   = I2C_ADDRESSINGMODE_7BIT;
 8002272:	687b      	ldr	r3, [r7, #4]
 8002274:	2201      	movs	r2, #1
 8002276:	60da      	str	r2, [r3, #12]
  i2c_handler->Init.DualAddressMode  = I2C_DUALADDRESS_DISABLE;
 8002278:	687b      	ldr	r3, [r7, #4]
 800227a:	2200      	movs	r2, #0
 800227c:	611a      	str	r2, [r3, #16]
  i2c_handler->Init.OwnAddress2      = 0;
 800227e:	687b      	ldr	r3, [r7, #4]
 8002280:	2200      	movs	r2, #0
 8002282:	615a      	str	r2, [r3, #20]
  i2c_handler->Init.GeneralCallMode  = I2C_GENERALCALL_DISABLE;
 8002284:	687b      	ldr	r3, [r7, #4]
 8002286:	2200      	movs	r2, #0
 8002288:	61da      	str	r2, [r3, #28]
  i2c_handler->Init.NoStretchMode    = I2C_NOSTRETCH_DISABLE;
 800228a:	687b      	ldr	r3, [r7, #4]
 800228c:	2200      	movs	r2, #0
 800228e:	621a      	str	r2, [r3, #32]

  /* Init the I2C */
  I2Cx_MspInit(i2c_handler);
 8002290:	6878      	ldr	r0, [r7, #4]
 8002292:	f7ff ff89 	bl	80021a8 <I2Cx_MspInit>
  HAL_I2C_Init(i2c_handler);
 8002296:	6878      	ldr	r0, [r7, #4]
 8002298:	f001 fc48 	bl	8003b2c <HAL_I2C_Init>
  
  /**Configure Analogue filter */
  HAL_I2CEx_ConfigAnalogFilter(i2c_handler, I2C_ANALOGFILTER_ENABLE);  
 800229c:	2100      	movs	r1, #0
 800229e:	6878      	ldr	r0, [r7, #4]
 80022a0:	f002 f94c 	bl	800453c <HAL_I2CEx_ConfigAnalogFilter>
}
 80022a4:	bf00      	nop
 80022a6:	3708      	adds	r7, #8
 80022a8:	46bd      	mov	sp, r7
 80022aa:	bd80      	pop	{r7, pc}
 80022ac:	40005800 	.word	0x40005800
 80022b0:	00702681 	.word	0x00702681

080022b4 <I2Cx_ReadMultiple>:
  * @param  Buffer: Pointer to data buffer
  * @param  Length: Length of the data
  * @retval HAL status
  */
static HAL_StatusTypeDef I2Cx_ReadMultiple(I2C_HandleTypeDef *i2c_handler, uint8_t Addr, uint16_t Reg, uint16_t MemAddress, uint8_t *Buffer, uint16_t Length)
{
 80022b4:	b580      	push	{r7, lr}
 80022b6:	b08a      	sub	sp, #40	; 0x28
 80022b8:	af04      	add	r7, sp, #16
 80022ba:	60f8      	str	r0, [r7, #12]
 80022bc:	4608      	mov	r0, r1
 80022be:	4611      	mov	r1, r2
 80022c0:	461a      	mov	r2, r3
 80022c2:	4603      	mov	r3, r0
 80022c4:	72fb      	strb	r3, [r7, #11]
 80022c6:	460b      	mov	r3, r1
 80022c8:	813b      	strh	r3, [r7, #8]
 80022ca:	4613      	mov	r3, r2
 80022cc:	80fb      	strh	r3, [r7, #6]
  HAL_StatusTypeDef status = HAL_OK;
 80022ce:	2300      	movs	r3, #0
 80022d0:	75fb      	strb	r3, [r7, #23]

  status = HAL_I2C_Mem_Read(i2c_handler, Addr, (uint16_t)Reg, MemAddress, Buffer, Length, 1000);
 80022d2:	7afb      	ldrb	r3, [r7, #11]
 80022d4:	b299      	uxth	r1, r3
 80022d6:	88f8      	ldrh	r0, [r7, #6]
 80022d8:	893a      	ldrh	r2, [r7, #8]
 80022da:	f44f 737a 	mov.w	r3, #1000	; 0x3e8
 80022de:	9302      	str	r3, [sp, #8]
 80022e0:	8cbb      	ldrh	r3, [r7, #36]	; 0x24
 80022e2:	9301      	str	r3, [sp, #4]
 80022e4:	6a3b      	ldr	r3, [r7, #32]
 80022e6:	9300      	str	r3, [sp, #0]
 80022e8:	4603      	mov	r3, r0
 80022ea:	68f8      	ldr	r0, [r7, #12]
 80022ec:	f001 fdf0 	bl	8003ed0 <HAL_I2C_Mem_Read>
 80022f0:	4603      	mov	r3, r0
 80022f2:	75fb      	strb	r3, [r7, #23]

  /* Check the communication status */
  if(status != HAL_OK)
 80022f4:	7dfb      	ldrb	r3, [r7, #23]
 80022f6:	2b00      	cmp	r3, #0
 80022f8:	d004      	beq.n	8002304 <I2Cx_ReadMultiple+0x50>
  {
    /* I2C error occured */
    I2Cx_Error(i2c_handler, Addr);
 80022fa:	7afb      	ldrb	r3, [r7, #11]
 80022fc:	4619      	mov	r1, r3
 80022fe:	68f8      	ldr	r0, [r7, #12]
 8002300:	f000 f832 	bl	8002368 <I2Cx_Error>
  }
  return status;
 8002304:	7dfb      	ldrb	r3, [r7, #23]
}
 8002306:	4618      	mov	r0, r3
 8002308:	3718      	adds	r7, #24
 800230a:	46bd      	mov	sp, r7
 800230c:	bd80      	pop	{r7, pc}

0800230e <I2Cx_WriteMultiple>:
  * @param  Buffer: The target register value to be written
  * @param  Length: buffer size to be written
  * @retval HAL status
  */
static HAL_StatusTypeDef I2Cx_WriteMultiple(I2C_HandleTypeDef *i2c_handler, uint8_t Addr, uint16_t Reg, uint16_t MemAddress, uint8_t *Buffer, uint16_t Length)
{
 800230e:	b580      	push	{r7, lr}
 8002310:	b08a      	sub	sp, #40	; 0x28
 8002312:	af04      	add	r7, sp, #16
 8002314:	60f8      	str	r0, [r7, #12]
 8002316:	4608      	mov	r0, r1
 8002318:	4611      	mov	r1, r2
 800231a:	461a      	mov	r2, r3
 800231c:	4603      	mov	r3, r0
 800231e:	72fb      	strb	r3, [r7, #11]
 8002320:	460b      	mov	r3, r1
 8002322:	813b      	strh	r3, [r7, #8]
 8002324:	4613      	mov	r3, r2
 8002326:	80fb      	strh	r3, [r7, #6]
  HAL_StatusTypeDef status = HAL_OK;
 8002328:	2300      	movs	r3, #0
 800232a:	75fb      	strb	r3, [r7, #23]

  status = HAL_I2C_Mem_Write(i2c_handler, Addr, (uint16_t)Reg, MemAddress, Buffer, Length, 1000);
 800232c:	7afb      	ldrb	r3, [r7, #11]
 800232e:	b299      	uxth	r1, r3
 8002330:	88f8      	ldrh	r0, [r7, #6]
 8002332:	893a      	ldrh	r2, [r7, #8]
 8002334:	f44f 737a 	mov.w	r3, #1000	; 0x3e8
 8002338:	9302      	str	r3, [sp, #8]
 800233a:	8cbb      	ldrh	r3, [r7, #36]	; 0x24
 800233c:	9301      	str	r3, [sp, #4]
 800233e:	6a3b      	ldr	r3, [r7, #32]
 8002340:	9300      	str	r3, [sp, #0]
 8002342:	4603      	mov	r3, r0
 8002344:	68f8      	ldr	r0, [r7, #12]
 8002346:	f001 fcaf 	bl	8003ca8 <HAL_I2C_Mem_Write>
 800234a:	4603      	mov	r3, r0
 800234c:	75fb      	strb	r3, [r7, #23]

  /* Check the communication status */
  if(status != HAL_OK)
 800234e:	7dfb      	ldrb	r3, [r7, #23]
 8002350:	2b00      	cmp	r3, #0
 8002352:	d004      	beq.n	800235e <I2Cx_WriteMultiple+0x50>
  {
    /* Re-Initiaize the I2C Bus */
    I2Cx_Error(i2c_handler, Addr);
 8002354:	7afb      	ldrb	r3, [r7, #11]
 8002356:	4619      	mov	r1, r3
 8002358:	68f8      	ldr	r0, [r7, #12]
 800235a:	f000 f805 	bl	8002368 <I2Cx_Error>
  }
  return status;
 800235e:	7dfb      	ldrb	r3, [r7, #23]
}
 8002360:	4618      	mov	r0, r3
 8002362:	3718      	adds	r7, #24
 8002364:	46bd      	mov	sp, r7
 8002366:	bd80      	pop	{r7, pc}

08002368 <I2Cx_Error>:
  * @param  i2c_handler : I2C handler
  * @param  Addr: I2C Address
  * @retval None
  */
static void I2Cx_Error(I2C_HandleTypeDef *i2c_handler, uint8_t Addr)
{
 8002368:	b580      	push	{r7, lr}
 800236a:	b082      	sub	sp, #8
 800236c:	af00      	add	r7, sp, #0
 800236e:	6078      	str	r0, [r7, #4]
 8002370:	460b      	mov	r3, r1
 8002372:	70fb      	strb	r3, [r7, #3]
  /* De-initialize the I2C communication bus */
  HAL_I2C_DeInit(i2c_handler);
 8002374:	6878      	ldr	r0, [r7, #4]
 8002376:	f001 fc68 	bl	8003c4a <HAL_I2C_DeInit>
  
  /* Re-Initialize the I2C communication bus */
  I2Cx_Init(i2c_handler);
 800237a:	6878      	ldr	r0, [r7, #4]
 800237c:	f7ff ff6c 	bl	8002258 <I2Cx_Init>
}
 8002380:	bf00      	nop
 8002382:	3708      	adds	r7, #8
 8002384:	46bd      	mov	sp, r7
 8002386:	bd80      	pop	{r7, pc}

08002388 <SENSOR_IO_Init>:
/**
  * @brief  Initializes Sensors low level.
  * @retval None
  */
void SENSOR_IO_Init(void)
{
 8002388:	b580      	push	{r7, lr}
 800238a:	af00      	add	r7, sp, #0
  I2Cx_Init(&hI2cHandler);
 800238c:	4802      	ldr	r0, [pc, #8]	; (8002398 <SENSOR_IO_Init+0x10>)
 800238e:	f7ff ff63 	bl	8002258 <I2Cx_Init>
}
 8002392:	bf00      	nop
 8002394:	bd80      	pop	{r7, pc}
 8002396:	bf00      	nop
 8002398:	20000548 	.word	0x20000548

0800239c <SENSOR_IO_Write>:
  * @param  Reg: Reg address
  * @param  Value: Data to be written
  * @retval None
  */
void SENSOR_IO_Write(uint8_t Addr, uint8_t Reg, uint8_t Value)
{
 800239c:	b580      	push	{r7, lr}
 800239e:	b084      	sub	sp, #16
 80023a0:	af02      	add	r7, sp, #8
 80023a2:	4603      	mov	r3, r0
 80023a4:	71fb      	strb	r3, [r7, #7]
 80023a6:	460b      	mov	r3, r1
 80023a8:	71bb      	strb	r3, [r7, #6]
 80023aa:	4613      	mov	r3, r2
 80023ac:	717b      	strb	r3, [r7, #5]
  I2Cx_WriteMultiple(&hI2cHandler, Addr, (uint16_t)Reg, I2C_MEMADD_SIZE_8BIT,(uint8_t*)&Value, 1);
 80023ae:	79bb      	ldrb	r3, [r7, #6]
 80023b0:	b29a      	uxth	r2, r3
 80023b2:	79f9      	ldrb	r1, [r7, #7]
 80023b4:	2301      	movs	r3, #1
 80023b6:	9301      	str	r3, [sp, #4]
 80023b8:	1d7b      	adds	r3, r7, #5
 80023ba:	9300      	str	r3, [sp, #0]
 80023bc:	2301      	movs	r3, #1
 80023be:	4803      	ldr	r0, [pc, #12]	; (80023cc <SENSOR_IO_Write+0x30>)
 80023c0:	f7ff ffa5 	bl	800230e <I2Cx_WriteMultiple>
}
 80023c4:	bf00      	nop
 80023c6:	3708      	adds	r7, #8
 80023c8:	46bd      	mov	sp, r7
 80023ca:	bd80      	pop	{r7, pc}
 80023cc:	20000548 	.word	0x20000548

080023d0 <SENSOR_IO_Read>:
  * @param  Addr: I2C address
  * @param  Reg: Reg address
  * @retval Data to be read
  */
uint8_t SENSOR_IO_Read(uint8_t Addr, uint8_t Reg)
{
 80023d0:	b580      	push	{r7, lr}
 80023d2:	b086      	sub	sp, #24
 80023d4:	af02      	add	r7, sp, #8
 80023d6:	4603      	mov	r3, r0
 80023d8:	460a      	mov	r2, r1
 80023da:	71fb      	strb	r3, [r7, #7]
 80023dc:	4613      	mov	r3, r2
 80023de:	71bb      	strb	r3, [r7, #6]
  uint8_t read_value = 0;
 80023e0:	2300      	movs	r3, #0
 80023e2:	73fb      	strb	r3, [r7, #15]

  I2Cx_ReadMultiple(&hI2cHandler, Addr, Reg, I2C_MEMADD_SIZE_8BIT, (uint8_t*)&read_value, 1);
 80023e4:	79bb      	ldrb	r3, [r7, #6]
 80023e6:	b29a      	uxth	r2, r3
 80023e8:	79f9      	ldrb	r1, [r7, #7]
 80023ea:	2301      	movs	r3, #1
 80023ec:	9301      	str	r3, [sp, #4]
 80023ee:	f107 030f 	add.w	r3, r7, #15
 80023f2:	9300      	str	r3, [sp, #0]
 80023f4:	2301      	movs	r3, #1
 80023f6:	4804      	ldr	r0, [pc, #16]	; (8002408 <SENSOR_IO_Read+0x38>)
 80023f8:	f7ff ff5c 	bl	80022b4 <I2Cx_ReadMultiple>

  return read_value;
 80023fc:	7bfb      	ldrb	r3, [r7, #15]
}
 80023fe:	4618      	mov	r0, r3
 8002400:	3710      	adds	r7, #16
 8002402:	46bd      	mov	sp, r7
 8002404:	bd80      	pop	{r7, pc}
 8002406:	bf00      	nop
 8002408:	20000548 	.word	0x20000548

0800240c <SENSOR_IO_ReadMultiple>:
  * @param  Buffer: Pointer to data buffer
  * @param  Length: Length of the data
  * @retval HAL status
  */
uint16_t SENSOR_IO_ReadMultiple(uint8_t Addr, uint8_t Reg, uint8_t *Buffer, uint16_t Length)
{
 800240c:	b580      	push	{r7, lr}
 800240e:	b084      	sub	sp, #16
 8002410:	af02      	add	r7, sp, #8
 8002412:	603a      	str	r2, [r7, #0]
 8002414:	461a      	mov	r2, r3
 8002416:	4603      	mov	r3, r0
 8002418:	71fb      	strb	r3, [r7, #7]
 800241a:	460b      	mov	r3, r1
 800241c:	71bb      	strb	r3, [r7, #6]
 800241e:	4613      	mov	r3, r2
 8002420:	80bb      	strh	r3, [r7, #4]
 return I2Cx_ReadMultiple(&hI2cHandler, Addr, (uint16_t)Reg, I2C_MEMADD_SIZE_8BIT, Buffer, Length);
 8002422:	79bb      	ldrb	r3, [r7, #6]
 8002424:	b29a      	uxth	r2, r3
 8002426:	79f9      	ldrb	r1, [r7, #7]
 8002428:	88bb      	ldrh	r3, [r7, #4]
 800242a:	9301      	str	r3, [sp, #4]
 800242c:	683b      	ldr	r3, [r7, #0]
 800242e:	9300      	str	r3, [sp, #0]
 8002430:	2301      	movs	r3, #1
 8002432:	4804      	ldr	r0, [pc, #16]	; (8002444 <SENSOR_IO_ReadMultiple+0x38>)
 8002434:	f7ff ff3e 	bl	80022b4 <I2Cx_ReadMultiple>
 8002438:	4603      	mov	r3, r0
 800243a:	b29b      	uxth	r3, r3
}
 800243c:	4618      	mov	r0, r3
 800243e:	3708      	adds	r7, #8
 8002440:	46bd      	mov	sp, r7
 8002442:	bd80      	pop	{r7, pc}
 8002444:	20000548 	.word	0x20000548

08002448 <BSP_ACCELERO_Init>:
/**
  * @brief  Initialize the ACCELERO.
  * @retval ACCELERO_OK or ACCELERO_ERROR
  */
ACCELERO_StatusTypeDef BSP_ACCELERO_Init(void)
{  
 8002448:	b580      	push	{r7, lr}
 800244a:	b084      	sub	sp, #16
 800244c:	af00      	add	r7, sp, #0
  ACCELERO_StatusTypeDef ret = ACCELERO_OK;
 800244e:	2300      	movs	r3, #0
 8002450:	73fb      	strb	r3, [r7, #15]
  uint16_t ctrl = 0x0000;
 8002452:	2300      	movs	r3, #0
 8002454:	81bb      	strh	r3, [r7, #12]
  ACCELERO_InitTypeDef LSM6DSL_InitStructure;

  if(Lsm6dslAccDrv.ReadID() != LSM6DSL_ACC_GYRO_WHO_AM_I)
 8002456:	4b19      	ldr	r3, [pc, #100]	; (80024bc <BSP_ACCELERO_Init+0x74>)
 8002458:	689b      	ldr	r3, [r3, #8]
 800245a:	4798      	blx	r3
 800245c:	4603      	mov	r3, r0
 800245e:	2b6a      	cmp	r3, #106	; 0x6a
 8002460:	d002      	beq.n	8002468 <BSP_ACCELERO_Init+0x20>
  {
    ret = ACCELERO_ERROR;
 8002462:	2301      	movs	r3, #1
 8002464:	73fb      	strb	r3, [r7, #15]
 8002466:	e024      	b.n	80024b2 <BSP_ACCELERO_Init+0x6a>
  }
  else
  {
    /* Initialize the ACCELERO accelerometer driver structure */
    AccelerometerDrv = &Lsm6dslAccDrv;
 8002468:	4b15      	ldr	r3, [pc, #84]	; (80024c0 <BSP_ACCELERO_Init+0x78>)
 800246a:	4a14      	ldr	r2, [pc, #80]	; (80024bc <BSP_ACCELERO_Init+0x74>)
 800246c:	601a      	str	r2, [r3, #0]
  
    /* MEMS configuration ------------------------------------------------------*/
    /* Fill the ACCELERO accelerometer structure */
    LSM6DSL_InitStructure.AccOutput_DataRate = LSM6DSL_ODR_52Hz;
 800246e:	2330      	movs	r3, #48	; 0x30
 8002470:	717b      	strb	r3, [r7, #5]
    LSM6DSL_InitStructure.Axes_Enable = 0;
 8002472:	2300      	movs	r3, #0
 8002474:	71bb      	strb	r3, [r7, #6]
    LSM6DSL_InitStructure.AccFull_Scale = LSM6DSL_ACC_FULLSCALE_2G;
 8002476:	2300      	movs	r3, #0
 8002478:	72bb      	strb	r3, [r7, #10]
    LSM6DSL_InitStructure.BlockData_Update = LSM6DSL_BDU_BLOCK_UPDATE;
 800247a:	2340      	movs	r3, #64	; 0x40
 800247c:	723b      	strb	r3, [r7, #8]
    LSM6DSL_InitStructure.High_Resolution = 0;
 800247e:	2300      	movs	r3, #0
 8002480:	71fb      	strb	r3, [r7, #7]
    LSM6DSL_InitStructure.Communication_Mode = 0;
 8002482:	2300      	movs	r3, #0
 8002484:	72fb      	strb	r3, [r7, #11]
        
    /* Configure MEMS: data rate, full scale  */
    ctrl =  (LSM6DSL_InitStructure.AccOutput_DataRate | LSM6DSL_InitStructure.AccFull_Scale);
 8002486:	797a      	ldrb	r2, [r7, #5]
 8002488:	7abb      	ldrb	r3, [r7, #10]
 800248a:	4313      	orrs	r3, r2
 800248c:	b2db      	uxtb	r3, r3
 800248e:	81bb      	strh	r3, [r7, #12]
    
    /* Configure MEMS: BDU and Auto-increment for multi read/write */
    ctrl |= ((LSM6DSL_InitStructure.BlockData_Update | LSM6DSL_ACC_GYRO_IF_INC_ENABLED) << 8);
 8002490:	7a3b      	ldrb	r3, [r7, #8]
 8002492:	f043 0304 	orr.w	r3, r3, #4
 8002496:	b2db      	uxtb	r3, r3
 8002498:	021b      	lsls	r3, r3, #8
 800249a:	b21a      	sxth	r2, r3
 800249c:	f9b7 300c 	ldrsh.w	r3, [r7, #12]
 80024a0:	4313      	orrs	r3, r2
 80024a2:	b21b      	sxth	r3, r3
 80024a4:	81bb      	strh	r3, [r7, #12]

    /* Configure the ACCELERO accelerometer main parameters */
    AccelerometerDrv->Init(ctrl);
 80024a6:	4b06      	ldr	r3, [pc, #24]	; (80024c0 <BSP_ACCELERO_Init+0x78>)
 80024a8:	681b      	ldr	r3, [r3, #0]
 80024aa:	681b      	ldr	r3, [r3, #0]
 80024ac:	89ba      	ldrh	r2, [r7, #12]
 80024ae:	4610      	mov	r0, r2
 80024b0:	4798      	blx	r3
  }  

  return ret;
 80024b2:	7bfb      	ldrb	r3, [r7, #15]
}
 80024b4:	4618      	mov	r0, r3
 80024b6:	3710      	adds	r7, #16
 80024b8:	46bd      	mov	sp, r7
 80024ba:	bd80      	pop	{r7, pc}
 80024bc:	20000064 	.word	0x20000064
 80024c0:	20000594 	.word	0x20000594

080024c4 <BSP_ACCELERO_AccGetXYZ>:
  * @param  pDataXYZ Pointer on 3 angular accelerations table with  
  *                  pDataXYZ[0] = X axis, pDataXYZ[1] = Y axis, pDataXYZ[2] = Z axis
  * @retval None
  */
void BSP_ACCELERO_AccGetXYZ(int16_t *pDataXYZ)
{
 80024c4:	b580      	push	{r7, lr}
 80024c6:	b082      	sub	sp, #8
 80024c8:	af00      	add	r7, sp, #0
 80024ca:	6078      	str	r0, [r7, #4]
  if(AccelerometerDrv != NULL)
 80024cc:	4b08      	ldr	r3, [pc, #32]	; (80024f0 <BSP_ACCELERO_AccGetXYZ+0x2c>)
 80024ce:	681b      	ldr	r3, [r3, #0]
 80024d0:	2b00      	cmp	r3, #0
 80024d2:	d009      	beq.n	80024e8 <BSP_ACCELERO_AccGetXYZ+0x24>
  {
    if(AccelerometerDrv->GetXYZ != NULL)
 80024d4:	4b06      	ldr	r3, [pc, #24]	; (80024f0 <BSP_ACCELERO_AccGetXYZ+0x2c>)
 80024d6:	681b      	ldr	r3, [r3, #0]
 80024d8:	6b1b      	ldr	r3, [r3, #48]	; 0x30
 80024da:	2b00      	cmp	r3, #0
 80024dc:	d004      	beq.n	80024e8 <BSP_ACCELERO_AccGetXYZ+0x24>
    {   
      AccelerometerDrv->GetXYZ(pDataXYZ);
 80024de:	4b04      	ldr	r3, [pc, #16]	; (80024f0 <BSP_ACCELERO_AccGetXYZ+0x2c>)
 80024e0:	681b      	ldr	r3, [r3, #0]
 80024e2:	6b1b      	ldr	r3, [r3, #48]	; 0x30
 80024e4:	6878      	ldr	r0, [r7, #4]
 80024e6:	4798      	blx	r3
    }
  }
}
 80024e8:	bf00      	nop
 80024ea:	3708      	adds	r7, #8
 80024ec:	46bd      	mov	sp, r7
 80024ee:	bd80      	pop	{r7, pc}
 80024f0:	20000594 	.word	0x20000594

080024f4 <BSP_GYRO_Init>:
/**
  * @brief  Initialize Gyroscope.
  * @retval GYRO_OK or GYRO_ERROR
  */
uint8_t BSP_GYRO_Init(void)
{  
 80024f4:	b580      	push	{r7, lr}
 80024f6:	b084      	sub	sp, #16
 80024f8:	af00      	add	r7, sp, #0
  uint8_t ret = GYRO_ERROR;
 80024fa:	2301      	movs	r3, #1
 80024fc:	73fb      	strb	r3, [r7, #15]
  uint16_t ctrl = 0x0000;
 80024fe:	2300      	movs	r3, #0
 8002500:	81bb      	strh	r3, [r7, #12]
  GYRO_InitTypeDef LSM6DSL_InitStructure;

  if(Lsm6dslGyroDrv.ReadID() != LSM6DSL_ACC_GYRO_WHO_AM_I)
 8002502:	4b1b      	ldr	r3, [pc, #108]	; (8002570 <BSP_GYRO_Init+0x7c>)
 8002504:	689b      	ldr	r3, [r3, #8]
 8002506:	4798      	blx	r3
 8002508:	4603      	mov	r3, r0
 800250a:	2b6a      	cmp	r3, #106	; 0x6a
 800250c:	d002      	beq.n	8002514 <BSP_GYRO_Init+0x20>
  {
    ret = GYRO_ERROR;
 800250e:	2301      	movs	r3, #1
 8002510:	73fb      	strb	r3, [r7, #15]
 8002512:	e028      	b.n	8002566 <BSP_GYRO_Init+0x72>
  }
  else
  {
    /* Initialize the gyroscope driver structure */
    GyroscopeDrv = &Lsm6dslGyroDrv;
 8002514:	4b17      	ldr	r3, [pc, #92]	; (8002574 <BSP_GYRO_Init+0x80>)
 8002516:	4a16      	ldr	r2, [pc, #88]	; (8002570 <BSP_GYRO_Init+0x7c>)
 8002518:	601a      	str	r2, [r3, #0]

    /* Configure Mems : data rate, power mode, full scale and axes */
    LSM6DSL_InitStructure.Power_Mode = 0;
 800251a:	2300      	movs	r3, #0
 800251c:	713b      	strb	r3, [r7, #4]
    LSM6DSL_InitStructure.Output_DataRate = LSM6DSL_ODR_52Hz;
 800251e:	2330      	movs	r3, #48	; 0x30
 8002520:	717b      	strb	r3, [r7, #5]
    LSM6DSL_InitStructure.Axes_Enable = 0;
 8002522:	2300      	movs	r3, #0
 8002524:	71bb      	strb	r3, [r7, #6]
    LSM6DSL_InitStructure.Band_Width = 0;
 8002526:	2300      	movs	r3, #0
 8002528:	71fb      	strb	r3, [r7, #7]
    LSM6DSL_InitStructure.BlockData_Update = LSM6DSL_BDU_BLOCK_UPDATE;
 800252a:	2340      	movs	r3, #64	; 0x40
 800252c:	723b      	strb	r3, [r7, #8]
    LSM6DSL_InitStructure.Endianness = 0;
 800252e:	2300      	movs	r3, #0
 8002530:	727b      	strb	r3, [r7, #9]
    LSM6DSL_InitStructure.Full_Scale = LSM6DSL_GYRO_FS_2000; 
 8002532:	230c      	movs	r3, #12
 8002534:	72bb      	strb	r3, [r7, #10]

    /* Configure MEMS: data rate, full scale  */
    ctrl = (LSM6DSL_InitStructure.Full_Scale | LSM6DSL_InitStructure.Output_DataRate);
 8002536:	7aba      	ldrb	r2, [r7, #10]
 8002538:	797b      	ldrb	r3, [r7, #5]
 800253a:	4313      	orrs	r3, r2
 800253c:	b2db      	uxtb	r3, r3
 800253e:	81bb      	strh	r3, [r7, #12]

    /* Configure MEMS: BDU and Auto-increment for multi read/write */
    ctrl |= ((LSM6DSL_InitStructure.BlockData_Update | LSM6DSL_ACC_GYRO_IF_INC_ENABLED) << 8);
 8002540:	7a3b      	ldrb	r3, [r7, #8]
 8002542:	f043 0304 	orr.w	r3, r3, #4
 8002546:	b2db      	uxtb	r3, r3
 8002548:	021b      	lsls	r3, r3, #8
 800254a:	b21a      	sxth	r2, r3
 800254c:	f9b7 300c 	ldrsh.w	r3, [r7, #12]
 8002550:	4313      	orrs	r3, r2
 8002552:	b21b      	sxth	r3, r3
 8002554:	81bb      	strh	r3, [r7, #12]

    /* Initialize component */
    GyroscopeDrv->Init(ctrl);
 8002556:	4b07      	ldr	r3, [pc, #28]	; (8002574 <BSP_GYRO_Init+0x80>)
 8002558:	681b      	ldr	r3, [r3, #0]
 800255a:	681b      	ldr	r3, [r3, #0]
 800255c:	89ba      	ldrh	r2, [r7, #12]
 800255e:	4610      	mov	r0, r2
 8002560:	4798      	blx	r3
    
    ret = GYRO_OK;
 8002562:	2300      	movs	r3, #0
 8002564:	73fb      	strb	r3, [r7, #15]
  }
  
  return ret;
 8002566:	7bfb      	ldrb	r3, [r7, #15]
}
 8002568:	4618      	mov	r0, r3
 800256a:	3710      	adds	r7, #16
 800256c:	46bd      	mov	sp, r7
 800256e:	bd80      	pop	{r7, pc}
 8002570:	20000098 	.word	0x20000098
 8002574:	20000598 	.word	0x20000598

08002578 <BSP_GYRO_GetXYZ>:
/**
  * @brief  Get XYZ angular acceleration from the Gyroscope.
  * @param  pfData: pointer on floating array         
  */
void BSP_GYRO_GetXYZ(float* pfData)
{
 8002578:	b580      	push	{r7, lr}
 800257a:	b082      	sub	sp, #8
 800257c:	af00      	add	r7, sp, #0
 800257e:	6078      	str	r0, [r7, #4]
  if(GyroscopeDrv != NULL)
 8002580:	4b08      	ldr	r3, [pc, #32]	; (80025a4 <BSP_GYRO_GetXYZ+0x2c>)
 8002582:	681b      	ldr	r3, [r3, #0]
 8002584:	2b00      	cmp	r3, #0
 8002586:	d009      	beq.n	800259c <BSP_GYRO_GetXYZ+0x24>
  {
    if(GyroscopeDrv->GetXYZ!= NULL)
 8002588:	4b06      	ldr	r3, [pc, #24]	; (80025a4 <BSP_GYRO_GetXYZ+0x2c>)
 800258a:	681b      	ldr	r3, [r3, #0]
 800258c:	6b1b      	ldr	r3, [r3, #48]	; 0x30
 800258e:	2b00      	cmp	r3, #0
 8002590:	d004      	beq.n	800259c <BSP_GYRO_GetXYZ+0x24>
    {
      GyroscopeDrv->GetXYZ(pfData);
 8002592:	4b04      	ldr	r3, [pc, #16]	; (80025a4 <BSP_GYRO_GetXYZ+0x2c>)
 8002594:	681b      	ldr	r3, [r3, #0]
 8002596:	6b1b      	ldr	r3, [r3, #48]	; 0x30
 8002598:	6878      	ldr	r0, [r7, #4]
 800259a:	4798      	blx	r3
    }
  }
}
 800259c:	bf00      	nop
 800259e:	3708      	adds	r7, #8
 80025a0:	46bd      	mov	sp, r7
 80025a2:	bd80      	pop	{r7, pc}
 80025a4:	20000598 	.word	0x20000598

080025a8 <BSP_HSENSOR_Init>:
/**
  * @brief  Initializes peripherals used by the I2C Humidity Sensor driver.
  * @retval HSENSOR status
  */
uint32_t BSP_HSENSOR_Init(void)
{
 80025a8:	b580      	push	{r7, lr}
 80025aa:	b082      	sub	sp, #8
 80025ac:	af00      	add	r7, sp, #0
  uint32_t ret;
  
  if(HTS221_H_Drv.ReadID(HTS221_I2C_ADDRESS) != HTS221_WHO_AM_I_VAL)
 80025ae:	4b0c      	ldr	r3, [pc, #48]	; (80025e0 <BSP_HSENSOR_Init+0x38>)
 80025b0:	685b      	ldr	r3, [r3, #4]
 80025b2:	20be      	movs	r0, #190	; 0xbe
 80025b4:	4798      	blx	r3
 80025b6:	4603      	mov	r3, r0
 80025b8:	2bbc      	cmp	r3, #188	; 0xbc
 80025ba:	d002      	beq.n	80025c2 <BSP_HSENSOR_Init+0x1a>
  {
    ret = HSENSOR_ERROR;
 80025bc:	2301      	movs	r3, #1
 80025be:	607b      	str	r3, [r7, #4]
 80025c0:	e009      	b.n	80025d6 <BSP_HSENSOR_Init+0x2e>
  }
  else
  {
    Hsensor_drv = &HTS221_H_Drv;
 80025c2:	4b08      	ldr	r3, [pc, #32]	; (80025e4 <BSP_HSENSOR_Init+0x3c>)
 80025c4:	4a06      	ldr	r2, [pc, #24]	; (80025e0 <BSP_HSENSOR_Init+0x38>)
 80025c6:	601a      	str	r2, [r3, #0]
    /* HSENSOR Init */   
    Hsensor_drv->Init(HTS221_I2C_ADDRESS);
 80025c8:	4b06      	ldr	r3, [pc, #24]	; (80025e4 <BSP_HSENSOR_Init+0x3c>)
 80025ca:	681b      	ldr	r3, [r3, #0]
 80025cc:	681b      	ldr	r3, [r3, #0]
 80025ce:	20be      	movs	r0, #190	; 0xbe
 80025d0:	4798      	blx	r3
    ret = HSENSOR_OK;
 80025d2:	2300      	movs	r3, #0
 80025d4:	607b      	str	r3, [r7, #4]
  }
  
  return ret;
 80025d6:	687b      	ldr	r3, [r7, #4]
}
 80025d8:	4618      	mov	r0, r3
 80025da:	3708      	adds	r7, #8
 80025dc:	46bd      	mov	sp, r7
 80025de:	bd80      	pop	{r7, pc}
 80025e0:	20000008 	.word	0x20000008
 80025e4:	2000059c 	.word	0x2000059c

080025e8 <BSP_HSENSOR_ReadHumidity>:
/**
  * @brief  Read Humidity register of HTS221.
  * @retval HTS221 measured humidity value.
  */
float BSP_HSENSOR_ReadHumidity(void)
{ 
 80025e8:	b580      	push	{r7, lr}
 80025ea:	af00      	add	r7, sp, #0
  return Hsensor_drv->ReadHumidity(HTS221_I2C_ADDRESS);
 80025ec:	4b04      	ldr	r3, [pc, #16]	; (8002600 <BSP_HSENSOR_ReadHumidity+0x18>)
 80025ee:	681b      	ldr	r3, [r3, #0]
 80025f0:	689b      	ldr	r3, [r3, #8]
 80025f2:	20be      	movs	r0, #190	; 0xbe
 80025f4:	4798      	blx	r3
 80025f6:	eef0 7a40 	vmov.f32	s15, s0
}
 80025fa:	eeb0 0a67 	vmov.f32	s0, s15
 80025fe:	bd80      	pop	{r7, pc}
 8002600:	2000059c 	.word	0x2000059c

08002604 <BSP_MAGNETO_Init>:
/**
 * @brief Initialize a magnetometer sensor
 * @retval COMPONENT_ERROR in case of failure
 */
MAGNETO_StatusTypeDef BSP_MAGNETO_Init(void)
{
 8002604:	b580      	push	{r7, lr}
 8002606:	b082      	sub	sp, #8
 8002608:	af00      	add	r7, sp, #0
  MAGNETO_StatusTypeDef ret = MAGNETO_OK;
 800260a:	2300      	movs	r3, #0
 800260c:	71fb      	strb	r3, [r7, #7]
  MAGNETO_InitTypeDef LIS3MDL_InitStructureMag;

  if(Lis3mdlMagDrv.ReadID() != I_AM_LIS3MDL)
 800260e:	4b11      	ldr	r3, [pc, #68]	; (8002654 <BSP_MAGNETO_Init+0x50>)
 8002610:	689b      	ldr	r3, [r3, #8]
 8002612:	4798      	blx	r3
 8002614:	4603      	mov	r3, r0
 8002616:	2b3d      	cmp	r3, #61	; 0x3d
 8002618:	d002      	beq.n	8002620 <BSP_MAGNETO_Init+0x1c>
  {
    ret = MAGNETO_ERROR;
 800261a:	2301      	movs	r3, #1
 800261c:	71fb      	strb	r3, [r7, #7]
 800261e:	e013      	b.n	8002648 <BSP_MAGNETO_Init+0x44>
  }
  else
  {
    /* Initialize the MAGNETO magnetometer driver structure */
    MagnetoDrv = &Lis3mdlMagDrv;
 8002620:	4b0d      	ldr	r3, [pc, #52]	; (8002658 <BSP_MAGNETO_Init+0x54>)
 8002622:	4a0c      	ldr	r2, [pc, #48]	; (8002654 <BSP_MAGNETO_Init+0x50>)
 8002624:	601a      	str	r2, [r3, #0]
    
    /* MEMS configuration ------------------------------------------------------*/
    /* Fill the MAGNETO magnetometer structure */
    LIS3MDL_InitStructureMag.Register1 = LIS3MDL_MAG_TEMPSENSOR_DISABLE | LIS3MDL_MAG_OM_XY_HIGH | LIS3MDL_MAG_ODR_40_HZ;
 8002626:	2358      	movs	r3, #88	; 0x58
 8002628:	703b      	strb	r3, [r7, #0]
    LIS3MDL_InitStructureMag.Register2 = LIS3MDL_MAG_FS_4_GA | LIS3MDL_MAG_REBOOT_DEFAULT | LIS3MDL_MAG_SOFT_RESET_DEFAULT;
 800262a:	2300      	movs	r3, #0
 800262c:	707b      	strb	r3, [r7, #1]
    LIS3MDL_InitStructureMag.Register3 = LIS3MDL_MAG_CONFIG_NORMAL_MODE | LIS3MDL_MAG_CONTINUOUS_MODE;
 800262e:	2300      	movs	r3, #0
 8002630:	70bb      	strb	r3, [r7, #2]
    LIS3MDL_InitStructureMag.Register4 = LIS3MDL_MAG_OM_Z_HIGH | LIS3MDL_MAG_BLE_LSB;
 8002632:	2308      	movs	r3, #8
 8002634:	70fb      	strb	r3, [r7, #3]
    LIS3MDL_InitStructureMag.Register5 = LIS3MDL_MAG_BDU_MSBLSB;
 8002636:	2340      	movs	r3, #64	; 0x40
 8002638:	713b      	strb	r3, [r7, #4]
    /* Configure the MAGNETO magnetometer main parameters */
    MagnetoDrv->Init(LIS3MDL_InitStructureMag);
 800263a:	4b07      	ldr	r3, [pc, #28]	; (8002658 <BSP_MAGNETO_Init+0x54>)
 800263c:	681b      	ldr	r3, [r3, #0]
 800263e:	681b      	ldr	r3, [r3, #0]
 8002640:	463a      	mov	r2, r7
 8002642:	e892 0003 	ldmia.w	r2, {r0, r1}
 8002646:	4798      	blx	r3
  } 

  return ret;  
 8002648:	79fb      	ldrb	r3, [r7, #7]
}
 800264a:	4618      	mov	r0, r3
 800264c:	3708      	adds	r7, #8
 800264e:	46bd      	mov	sp, r7
 8002650:	bd80      	pop	{r7, pc}
 8002652:	bf00      	nop
 8002654:	20000024 	.word	0x20000024
 8002658:	200005a0 	.word	0x200005a0

0800265c <BSP_MAGNETO_GetXYZ>:
  * @brief  Get XYZ magnetometer values.
  * @param  pDataXYZ Pointer on 3 magnetometer values table with
  *                  pDataXYZ[0] = X axis, pDataXYZ[1] = Y axis, pDataXYZ[2] = Z axis 
  */
void BSP_MAGNETO_GetXYZ(int16_t *pDataXYZ)
{
 800265c:	b580      	push	{r7, lr}
 800265e:	b082      	sub	sp, #8
 8002660:	af00      	add	r7, sp, #0
 8002662:	6078      	str	r0, [r7, #4]
  if(MagnetoDrv != NULL)
 8002664:	4b08      	ldr	r3, [pc, #32]	; (8002688 <BSP_MAGNETO_GetXYZ+0x2c>)
 8002666:	681b      	ldr	r3, [r3, #0]
 8002668:	2b00      	cmp	r3, #0
 800266a:	d009      	beq.n	8002680 <BSP_MAGNETO_GetXYZ+0x24>
  {
    if(MagnetoDrv->GetXYZ != NULL)
 800266c:	4b06      	ldr	r3, [pc, #24]	; (8002688 <BSP_MAGNETO_GetXYZ+0x2c>)
 800266e:	681b      	ldr	r3, [r3, #0]
 8002670:	6b1b      	ldr	r3, [r3, #48]	; 0x30
 8002672:	2b00      	cmp	r3, #0
 8002674:	d004      	beq.n	8002680 <BSP_MAGNETO_GetXYZ+0x24>
    {   
      MagnetoDrv->GetXYZ(pDataXYZ);
 8002676:	4b04      	ldr	r3, [pc, #16]	; (8002688 <BSP_MAGNETO_GetXYZ+0x2c>)
 8002678:	681b      	ldr	r3, [r3, #0]
 800267a:	6b1b      	ldr	r3, [r3, #48]	; 0x30
 800267c:	6878      	ldr	r0, [r7, #4]
 800267e:	4798      	blx	r3
    }
  }
}
 8002680:	bf00      	nop
 8002682:	3708      	adds	r7, #8
 8002684:	46bd      	mov	sp, r7
 8002686:	bd80      	pop	{r7, pc}
 8002688:	200005a0 	.word	0x200005a0

0800268c <BSP_PSENSOR_Init>:
/**
  * @brief  Initializes peripherals used by the I2C Pressure Sensor driver.
  * @retval PSENSOR status
  */
uint32_t BSP_PSENSOR_Init(void)
{
 800268c:	b580      	push	{r7, lr}
 800268e:	b082      	sub	sp, #8
 8002690:	af00      	add	r7, sp, #0
  uint32_t ret;
   
  if(LPS22HB_P_Drv.ReadID(LPS22HB_I2C_ADDRESS) != LPS22HB_WHO_AM_I_VAL)
 8002692:	4b0c      	ldr	r3, [pc, #48]	; (80026c4 <BSP_PSENSOR_Init+0x38>)
 8002694:	685b      	ldr	r3, [r3, #4]
 8002696:	20ba      	movs	r0, #186	; 0xba
 8002698:	4798      	blx	r3
 800269a:	4603      	mov	r3, r0
 800269c:	2bb1      	cmp	r3, #177	; 0xb1
 800269e:	d002      	beq.n	80026a6 <BSP_PSENSOR_Init+0x1a>
  {
    ret = PSENSOR_ERROR;
 80026a0:	2301      	movs	r3, #1
 80026a2:	607b      	str	r3, [r7, #4]
 80026a4:	e009      	b.n	80026ba <BSP_PSENSOR_Init+0x2e>
  }
  else
  {
     Psensor_drv = &LPS22HB_P_Drv;
 80026a6:	4b08      	ldr	r3, [pc, #32]	; (80026c8 <BSP_PSENSOR_Init+0x3c>)
 80026a8:	4a06      	ldr	r2, [pc, #24]	; (80026c4 <BSP_PSENSOR_Init+0x38>)
 80026aa:	601a      	str	r2, [r3, #0]
     
    /* PSENSOR Init */   
    Psensor_drv->Init(LPS22HB_I2C_ADDRESS);
 80026ac:	4b06      	ldr	r3, [pc, #24]	; (80026c8 <BSP_PSENSOR_Init+0x3c>)
 80026ae:	681b      	ldr	r3, [r3, #0]
 80026b0:	681b      	ldr	r3, [r3, #0]
 80026b2:	20ba      	movs	r0, #186	; 0xba
 80026b4:	4798      	blx	r3
    ret = PSENSOR_OK;
 80026b6:	2300      	movs	r3, #0
 80026b8:	607b      	str	r3, [r7, #4]
  }
  
  return ret;
 80026ba:	687b      	ldr	r3, [r7, #4]
}
 80026bc:	4618      	mov	r0, r3
 80026be:	3708      	adds	r7, #8
 80026c0:	46bd      	mov	sp, r7
 80026c2:	bd80      	pop	{r7, pc}
 80026c4:	20000058 	.word	0x20000058
 80026c8:	200005a4 	.word	0x200005a4

080026cc <BSP_PSENSOR_ReadPressure>:
/**
  * @brief  Read Pressure register of LPS22HB.
  * @retval LPS22HB measured pressure value.
  */
float BSP_PSENSOR_ReadPressure(void)
{ 
 80026cc:	b580      	push	{r7, lr}
 80026ce:	af00      	add	r7, sp, #0
  return Psensor_drv->ReadPressure(LPS22HB_I2C_ADDRESS);
 80026d0:	4b04      	ldr	r3, [pc, #16]	; (80026e4 <BSP_PSENSOR_ReadPressure+0x18>)
 80026d2:	681b      	ldr	r3, [r3, #0]
 80026d4:	689b      	ldr	r3, [r3, #8]
 80026d6:	20ba      	movs	r0, #186	; 0xba
 80026d8:	4798      	blx	r3
 80026da:	eef0 7a40 	vmov.f32	s15, s0
}
 80026de:	eeb0 0a67 	vmov.f32	s0, s15
 80026e2:	bd80      	pop	{r7, pc}
 80026e4:	200005a4 	.word	0x200005a4

080026e8 <BSP_TSENSOR_Init>:
/**
  * @brief  Initializes peripherals used by the I2C Temperature Sensor driver.
  * @retval TSENSOR status
  */
uint32_t BSP_TSENSOR_Init(void)
{  
 80026e8:	b580      	push	{r7, lr}
 80026ea:	b082      	sub	sp, #8
 80026ec:	af00      	add	r7, sp, #0
  uint8_t ret = TSENSOR_ERROR;
 80026ee:	2301      	movs	r3, #1
 80026f0:	71fb      	strb	r3, [r7, #7]

#ifdef USE_LPS22HB_TEMP
  tsensor_drv = &LPS22HB_T_Drv;
#else /* USE_HTS221_TEMP */
  tsensor_drv = &HTS221_T_Drv; 
 80026f2:	4b09      	ldr	r3, [pc, #36]	; (8002718 <BSP_TSENSOR_Init+0x30>)
 80026f4:	4a09      	ldr	r2, [pc, #36]	; (800271c <BSP_TSENSOR_Init+0x34>)
 80026f6:	601a      	str	r2, [r3, #0]
#endif

  /* Low level init */
  SENSOR_IO_Init();
 80026f8:	f7ff fe46 	bl	8002388 <SENSOR_IO_Init>

  /* TSENSOR Init */   
  tsensor_drv->Init(TSENSOR_I2C_ADDRESS, NULL);
 80026fc:	4b06      	ldr	r3, [pc, #24]	; (8002718 <BSP_TSENSOR_Init+0x30>)
 80026fe:	681b      	ldr	r3, [r3, #0]
 8002700:	681b      	ldr	r3, [r3, #0]
 8002702:	2100      	movs	r1, #0
 8002704:	20be      	movs	r0, #190	; 0xbe
 8002706:	4798      	blx	r3

  ret = TSENSOR_OK;
 8002708:	2300      	movs	r3, #0
 800270a:	71fb      	strb	r3, [r7, #7]
  
  return ret;
 800270c:	79fb      	ldrb	r3, [r7, #7]
}
 800270e:	4618      	mov	r0, r3
 8002710:	3708      	adds	r7, #8
 8002712:	46bd      	mov	sp, r7
 8002714:	bd80      	pop	{r7, pc}
 8002716:	bf00      	nop
 8002718:	200005a8 	.word	0x200005a8
 800271c:	20000014 	.word	0x20000014

08002720 <BSP_TSENSOR_ReadTemp>:
/**
  * @brief  Read Temperature register of TS751.
  * @retval STTS751 measured temperature value.
  */
float BSP_TSENSOR_ReadTemp(void)
{ 
 8002720:	b580      	push	{r7, lr}
 8002722:	af00      	add	r7, sp, #0
  return tsensor_drv->ReadTemp(TSENSOR_I2C_ADDRESS);
 8002724:	4b04      	ldr	r3, [pc, #16]	; (8002738 <BSP_TSENSOR_ReadTemp+0x18>)
 8002726:	681b      	ldr	r3, [r3, #0]
 8002728:	68db      	ldr	r3, [r3, #12]
 800272a:	20be      	movs	r0, #190	; 0xbe
 800272c:	4798      	blx	r3
 800272e:	eef0 7a40 	vmov.f32	s15, s0
}
 8002732:	eeb0 0a67 	vmov.f32	s0, s15
 8002736:	bd80      	pop	{r7, pc}
 8002738:	200005a8 	.word	0x200005a8

0800273c <HTS221_H_Init>:
  */
/**
  * @brief  Set HTS221 humidity sensor Initialization.
  */
void HTS221_H_Init(uint16_t DeviceAddr)
{
 800273c:	b580      	push	{r7, lr}
 800273e:	b084      	sub	sp, #16
 8002740:	af00      	add	r7, sp, #0
 8002742:	4603      	mov	r3, r0
 8002744:	80fb      	strh	r3, [r7, #6]
  uint8_t tmp;
  
  /* Read CTRL_REG1 */
  tmp = SENSOR_IO_Read(DeviceAddr, HTS221_CTRL_REG1);
 8002746:	88fb      	ldrh	r3, [r7, #6]
 8002748:	b2db      	uxtb	r3, r3
 800274a:	2120      	movs	r1, #32
 800274c:	4618      	mov	r0, r3
 800274e:	f7ff fe3f 	bl	80023d0 <SENSOR_IO_Read>
 8002752:	4603      	mov	r3, r0
 8002754:	73fb      	strb	r3, [r7, #15]
  
  /* Enable BDU */
  tmp &= ~HTS221_BDU_MASK;
 8002756:	7bfb      	ldrb	r3, [r7, #15]
 8002758:	f023 0304 	bic.w	r3, r3, #4
 800275c:	73fb      	strb	r3, [r7, #15]
  tmp |= (1 << HTS221_BDU_BIT);
 800275e:	7bfb      	ldrb	r3, [r7, #15]
 8002760:	f043 0304 	orr.w	r3, r3, #4
 8002764:	73fb      	strb	r3, [r7, #15]
  
  /* Set default ODR */
  tmp &= ~HTS221_ODR_MASK;
 8002766:	7bfb      	ldrb	r3, [r7, #15]
 8002768:	f023 0303 	bic.w	r3, r3, #3
 800276c:	73fb      	strb	r3, [r7, #15]
  tmp |= (uint8_t)0x01; /* Set ODR to 1Hz */
 800276e:	7bfb      	ldrb	r3, [r7, #15]
 8002770:	f043 0301 	orr.w	r3, r3, #1
 8002774:	73fb      	strb	r3, [r7, #15]
  
  /* Activate the device */
  tmp |= HTS221_PD_MASK;
 8002776:	7bfb      	ldrb	r3, [r7, #15]
 8002778:	f063 037f 	orn	r3, r3, #127	; 0x7f
 800277c:	73fb      	strb	r3, [r7, #15]
  
  /* Apply settings to CTRL_REG1 */
  SENSOR_IO_Write(DeviceAddr, HTS221_CTRL_REG1, tmp);
 800277e:	88fb      	ldrh	r3, [r7, #6]
 8002780:	b2db      	uxtb	r3, r3
 8002782:	7bfa      	ldrb	r2, [r7, #15]
 8002784:	2120      	movs	r1, #32
 8002786:	4618      	mov	r0, r3
 8002788:	f7ff fe08 	bl	800239c <SENSOR_IO_Write>
}
 800278c:	bf00      	nop
 800278e:	3710      	adds	r7, #16
 8002790:	46bd      	mov	sp, r7
 8002792:	bd80      	pop	{r7, pc}

08002794 <HTS221_H_ReadID>:
/**
  * @brief  Read HTS221 ID.
  * @retval ID 
  */
uint8_t HTS221_H_ReadID(uint16_t DeviceAddr)
{  
 8002794:	b580      	push	{r7, lr}
 8002796:	b084      	sub	sp, #16
 8002798:	af00      	add	r7, sp, #0
 800279a:	4603      	mov	r3, r0
 800279c:	80fb      	strh	r3, [r7, #6]
  uint8_t ctrl = 0x00;
 800279e:	2300      	movs	r3, #0
 80027a0:	73fb      	strb	r3, [r7, #15]
 
  /* IO interface initialization */
  SENSOR_IO_Init(); 
 80027a2:	f7ff fdf1 	bl	8002388 <SENSOR_IO_Init>
  
  /* Read value at Who am I register address */
  ctrl = SENSOR_IO_Read(DeviceAddr, HTS221_WHO_AM_I_REG);
 80027a6:	88fb      	ldrh	r3, [r7, #6]
 80027a8:	b2db      	uxtb	r3, r3
 80027aa:	210f      	movs	r1, #15
 80027ac:	4618      	mov	r0, r3
 80027ae:	f7ff fe0f 	bl	80023d0 <SENSOR_IO_Read>
 80027b2:	4603      	mov	r3, r0
 80027b4:	73fb      	strb	r3, [r7, #15]
  
  return ctrl;
 80027b6:	7bfb      	ldrb	r3, [r7, #15]
}
 80027b8:	4618      	mov	r0, r3
 80027ba:	3710      	adds	r7, #16
 80027bc:	46bd      	mov	sp, r7
 80027be:	bd80      	pop	{r7, pc}

080027c0 <HTS221_H_ReadHumidity>:
/**
  * @brief  Read humidity value of HTS221
  * @retval humidity value;
  */
float HTS221_H_ReadHumidity(uint16_t DeviceAddr)
{
 80027c0:	b580      	push	{r7, lr}
 80027c2:	b088      	sub	sp, #32
 80027c4:	af00      	add	r7, sp, #0
 80027c6:	4603      	mov	r3, r0
 80027c8:	80fb      	strh	r3, [r7, #6]
  int16_t H0_T0_out, H1_T0_out, H_T_out;
  int16_t H0_rh, H1_rh;
  uint8_t buffer[2];
  float tmp_f;

  SENSOR_IO_ReadMultiple(DeviceAddr, (HTS221_H0_RH_X2 | 0x80), buffer, 2);
 80027ca:	88fb      	ldrh	r3, [r7, #6]
 80027cc:	b2d8      	uxtb	r0, r3
 80027ce:	f107 020c 	add.w	r2, r7, #12
 80027d2:	2302      	movs	r3, #2
 80027d4:	21b0      	movs	r1, #176	; 0xb0
 80027d6:	f7ff fe19 	bl	800240c <SENSOR_IO_ReadMultiple>

  H0_rh = buffer[0] >> 1;
 80027da:	7b3b      	ldrb	r3, [r7, #12]
 80027dc:	085b      	lsrs	r3, r3, #1
 80027de:	b2db      	uxtb	r3, r3
 80027e0:	83fb      	strh	r3, [r7, #30]
  H1_rh = buffer[1] >> 1;
 80027e2:	7b7b      	ldrb	r3, [r7, #13]
 80027e4:	085b      	lsrs	r3, r3, #1
 80027e6:	b2db      	uxtb	r3, r3
 80027e8:	83bb      	strh	r3, [r7, #28]

  SENSOR_IO_ReadMultiple(DeviceAddr, (HTS221_H0_T0_OUT_L | 0x80), buffer, 2);
 80027ea:	88fb      	ldrh	r3, [r7, #6]
 80027ec:	b2d8      	uxtb	r0, r3
 80027ee:	f107 020c 	add.w	r2, r7, #12
 80027f2:	2302      	movs	r3, #2
 80027f4:	21b6      	movs	r1, #182	; 0xb6
 80027f6:	f7ff fe09 	bl	800240c <SENSOR_IO_ReadMultiple>

  H0_T0_out = (((uint16_t)buffer[1]) << 8) | (uint16_t)buffer[0];
 80027fa:	7b7b      	ldrb	r3, [r7, #13]
 80027fc:	021b      	lsls	r3, r3, #8
 80027fe:	b21a      	sxth	r2, r3
 8002800:	7b3b      	ldrb	r3, [r7, #12]
 8002802:	b21b      	sxth	r3, r3
 8002804:	4313      	orrs	r3, r2
 8002806:	837b      	strh	r3, [r7, #26]

  SENSOR_IO_ReadMultiple(DeviceAddr, (HTS221_H1_T0_OUT_L | 0x80), buffer, 2);
 8002808:	88fb      	ldrh	r3, [r7, #6]
 800280a:	b2d8      	uxtb	r0, r3
 800280c:	f107 020c 	add.w	r2, r7, #12
 8002810:	2302      	movs	r3, #2
 8002812:	21ba      	movs	r1, #186	; 0xba
 8002814:	f7ff fdfa 	bl	800240c <SENSOR_IO_ReadMultiple>

  H1_T0_out = (((uint16_t)buffer[1]) << 8) | (uint16_t)buffer[0];
 8002818:	7b7b      	ldrb	r3, [r7, #13]
 800281a:	021b      	lsls	r3, r3, #8
 800281c:	b21a      	sxth	r2, r3
 800281e:	7b3b      	ldrb	r3, [r7, #12]
 8002820:	b21b      	sxth	r3, r3
 8002822:	4313      	orrs	r3, r2
 8002824:	833b      	strh	r3, [r7, #24]

  SENSOR_IO_ReadMultiple(DeviceAddr, (HTS221_HR_OUT_L_REG | 0x80), buffer, 2);
 8002826:	88fb      	ldrh	r3, [r7, #6]
 8002828:	b2d8      	uxtb	r0, r3
 800282a:	f107 020c 	add.w	r2, r7, #12
 800282e:	2302      	movs	r3, #2
 8002830:	21a8      	movs	r1, #168	; 0xa8
 8002832:	f7ff fdeb 	bl	800240c <SENSOR_IO_ReadMultiple>

  H_T_out = (((uint16_t)buffer[1]) << 8) | (uint16_t)buffer[0];
 8002836:	7b7b      	ldrb	r3, [r7, #13]
 8002838:	021b      	lsls	r3, r3, #8
 800283a:	b21a      	sxth	r2, r3
 800283c:	7b3b      	ldrb	r3, [r7, #12]
 800283e:	b21b      	sxth	r3, r3
 8002840:	4313      	orrs	r3, r2
 8002842:	82fb      	strh	r3, [r7, #22]

  tmp_f = (float)(H_T_out - H0_T0_out) * (float)(H1_rh - H0_rh) / (float)(H1_T0_out - H0_T0_out)  +  H0_rh;
 8002844:	f9b7 2016 	ldrsh.w	r2, [r7, #22]
 8002848:	f9b7 301a 	ldrsh.w	r3, [r7, #26]
 800284c:	1ad3      	subs	r3, r2, r3
 800284e:	ee07 3a90 	vmov	s15, r3
 8002852:	eeb8 7ae7 	vcvt.f32.s32	s14, s15
 8002856:	f9b7 201c 	ldrsh.w	r2, [r7, #28]
 800285a:	f9b7 301e 	ldrsh.w	r3, [r7, #30]
 800285e:	1ad3      	subs	r3, r2, r3
 8002860:	ee07 3a90 	vmov	s15, r3
 8002864:	eef8 7ae7 	vcvt.f32.s32	s15, s15
 8002868:	ee67 6a27 	vmul.f32	s13, s14, s15
 800286c:	f9b7 2018 	ldrsh.w	r2, [r7, #24]
 8002870:	f9b7 301a 	ldrsh.w	r3, [r7, #26]
 8002874:	1ad3      	subs	r3, r2, r3
 8002876:	ee07 3a90 	vmov	s15, r3
 800287a:	eef8 7ae7 	vcvt.f32.s32	s15, s15
 800287e:	ee86 7aa7 	vdiv.f32	s14, s13, s15
 8002882:	f9b7 301e 	ldrsh.w	r3, [r7, #30]
 8002886:	ee07 3a90 	vmov	s15, r3
 800288a:	eef8 7ae7 	vcvt.f32.s32	s15, s15
 800288e:	ee77 7a27 	vadd.f32	s15, s14, s15
 8002892:	edc7 7a04 	vstr	s15, [r7, #16]
  tmp_f *= 10.0f;
 8002896:	edd7 7a04 	vldr	s15, [r7, #16]
 800289a:	eeb2 7a04 	vmov.f32	s14, #36	; 0x41200000  10.0
 800289e:	ee67 7a87 	vmul.f32	s15, s15, s14
 80028a2:	edc7 7a04 	vstr	s15, [r7, #16]

  tmp_f = ( tmp_f > 1000.0f ) ? 1000.0f
        : ( tmp_f <    0.0f ) ?    0.0f
 80028a6:	edd7 7a04 	vldr	s15, [r7, #16]
 80028aa:	ed9f 7a11 	vldr	s14, [pc, #68]	; 80028f0 <HTS221_H_ReadHumidity+0x130>
 80028ae:	eef4 7ac7 	vcmpe.f32	s15, s14
 80028b2:	eef1 fa10 	vmrs	APSR_nzcv, fpscr
 80028b6:	dd01      	ble.n	80028bc <HTS221_H_ReadHumidity+0xfc>
 80028b8:	4b0e      	ldr	r3, [pc, #56]	; (80028f4 <HTS221_H_ReadHumidity+0x134>)
 80028ba:	e00a      	b.n	80028d2 <HTS221_H_ReadHumidity+0x112>
        : tmp_f;
 80028bc:	edd7 7a04 	vldr	s15, [r7, #16]
 80028c0:	eef5 7ac0 	vcmpe.f32	s15, #0.0
 80028c4:	eef1 fa10 	vmrs	APSR_nzcv, fpscr
 80028c8:	d502      	bpl.n	80028d0 <HTS221_H_ReadHumidity+0x110>
 80028ca:	f04f 0300 	mov.w	r3, #0
 80028ce:	e000      	b.n	80028d2 <HTS221_H_ReadHumidity+0x112>
 80028d0:	693b      	ldr	r3, [r7, #16]
  tmp_f = ( tmp_f > 1000.0f ) ? 1000.0f
 80028d2:	613b      	str	r3, [r7, #16]

  return (tmp_f / 10.0f);
 80028d4:	edd7 7a04 	vldr	s15, [r7, #16]
 80028d8:	eeb2 7a04 	vmov.f32	s14, #36	; 0x41200000  10.0
 80028dc:	eec7 6a87 	vdiv.f32	s13, s15, s14
 80028e0:	eef0 7a66 	vmov.f32	s15, s13
}
 80028e4:	eeb0 0a67 	vmov.f32	s0, s15
 80028e8:	3720      	adds	r7, #32
 80028ea:	46bd      	mov	sp, r7
 80028ec:	bd80      	pop	{r7, pc}
 80028ee:	bf00      	nop
 80028f0:	447a0000 	.word	0x447a0000
 80028f4:	447a0000 	.word	0x447a0000

080028f8 <HTS221_T_Init>:
  * @param  DeviceAddr: I2C device address
  * @param  InitStruct: pointer to a TSENSOR_InitTypeDef structure 
  *         that contains the configuration setting for the HTS221.
  */
void HTS221_T_Init(uint16_t DeviceAddr, TSENSOR_InitTypeDef *pInitStruct)
{  
 80028f8:	b580      	push	{r7, lr}
 80028fa:	b084      	sub	sp, #16
 80028fc:	af00      	add	r7, sp, #0
 80028fe:	4603      	mov	r3, r0
 8002900:	6039      	str	r1, [r7, #0]
 8002902:	80fb      	strh	r3, [r7, #6]
  uint8_t tmp;
  
  /* Read CTRL_REG1 */
  tmp = SENSOR_IO_Read(DeviceAddr, HTS221_CTRL_REG1);
 8002904:	88fb      	ldrh	r3, [r7, #6]
 8002906:	b2db      	uxtb	r3, r3
 8002908:	2120      	movs	r1, #32
 800290a:	4618      	mov	r0, r3
 800290c:	f7ff fd60 	bl	80023d0 <SENSOR_IO_Read>
 8002910:	4603      	mov	r3, r0
 8002912:	73fb      	strb	r3, [r7, #15]
  
  /* Enable BDU */
  tmp &= ~HTS221_BDU_MASK;
 8002914:	7bfb      	ldrb	r3, [r7, #15]
 8002916:	f023 0304 	bic.w	r3, r3, #4
 800291a:	73fb      	strb	r3, [r7, #15]
  tmp |= (1 << HTS221_BDU_BIT);
 800291c:	7bfb      	ldrb	r3, [r7, #15]
 800291e:	f043 0304 	orr.w	r3, r3, #4
 8002922:	73fb      	strb	r3, [r7, #15]
  
  /* Set default ODR */
  tmp &= ~HTS221_ODR_MASK;
 8002924:	7bfb      	ldrb	r3, [r7, #15]
 8002926:	f023 0303 	bic.w	r3, r3, #3
 800292a:	73fb      	strb	r3, [r7, #15]
  tmp |= (uint8_t)0x01; /* Set ODR to 1Hz */
 800292c:	7bfb      	ldrb	r3, [r7, #15]
 800292e:	f043 0301 	orr.w	r3, r3, #1
 8002932:	73fb      	strb	r3, [r7, #15]
  
  /* Activate the device */
  tmp |= HTS221_PD_MASK;
 8002934:	7bfb      	ldrb	r3, [r7, #15]
 8002936:	f063 037f 	orn	r3, r3, #127	; 0x7f
 800293a:	73fb      	strb	r3, [r7, #15]
  
  /* Apply settings to CTRL_REG1 */
  SENSOR_IO_Write(DeviceAddr, HTS221_CTRL_REG1, tmp);
 800293c:	88fb      	ldrh	r3, [r7, #6]
 800293e:	b2db      	uxtb	r3, r3
 8002940:	7bfa      	ldrb	r2, [r7, #15]
 8002942:	2120      	movs	r1, #32
 8002944:	4618      	mov	r0, r3
 8002946:	f7ff fd29 	bl	800239c <SENSOR_IO_Write>
}
 800294a:	bf00      	nop
 800294c:	3710      	adds	r7, #16
 800294e:	46bd      	mov	sp, r7
 8002950:	bd80      	pop	{r7, pc}

08002952 <HTS221_T_ReadTemp>:
  * @brief  Read temperature value of HTS221
  * @param  DeviceAddr: I2C device address
  * @retval temperature value
  */
float HTS221_T_ReadTemp(uint16_t DeviceAddr)
{
 8002952:	b580      	push	{r7, lr}
 8002954:	b088      	sub	sp, #32
 8002956:	af00      	add	r7, sp, #0
 8002958:	4603      	mov	r3, r0
 800295a:	80fb      	strh	r3, [r7, #6]
  int16_t T0_out, T1_out, T_out, T0_degC_x8_u16, T1_degC_x8_u16;
  int16_t T0_degC, T1_degC;
  uint8_t buffer[4], tmp;
  float tmp_f;

  SENSOR_IO_ReadMultiple(DeviceAddr, (HTS221_T0_DEGC_X8 | 0x80), buffer, 2);
 800295c:	88fb      	ldrh	r3, [r7, #6]
 800295e:	b2d8      	uxtb	r0, r3
 8002960:	f107 0208 	add.w	r2, r7, #8
 8002964:	2302      	movs	r3, #2
 8002966:	21b2      	movs	r1, #178	; 0xb2
 8002968:	f7ff fd50 	bl	800240c <SENSOR_IO_ReadMultiple>
  tmp = SENSOR_IO_Read(DeviceAddr, HTS221_T0_T1_DEGC_H2);
 800296c:	88fb      	ldrh	r3, [r7, #6]
 800296e:	b2db      	uxtb	r3, r3
 8002970:	2135      	movs	r1, #53	; 0x35
 8002972:	4618      	mov	r0, r3
 8002974:	f7ff fd2c 	bl	80023d0 <SENSOR_IO_Read>
 8002978:	4603      	mov	r3, r0
 800297a:	77fb      	strb	r3, [r7, #31]

  T0_degC_x8_u16 = (((uint16_t)(tmp & 0x03)) << 8) | ((uint16_t)buffer[0]);
 800297c:	7ffb      	ldrb	r3, [r7, #31]
 800297e:	021b      	lsls	r3, r3, #8
 8002980:	b21b      	sxth	r3, r3
 8002982:	f403 7340 	and.w	r3, r3, #768	; 0x300
 8002986:	b21a      	sxth	r2, r3
 8002988:	7a3b      	ldrb	r3, [r7, #8]
 800298a:	b21b      	sxth	r3, r3
 800298c:	4313      	orrs	r3, r2
 800298e:	83bb      	strh	r3, [r7, #28]
  T1_degC_x8_u16 = (((uint16_t)(tmp & 0x0C)) << 6) | ((uint16_t)buffer[1]);
 8002990:	7ffb      	ldrb	r3, [r7, #31]
 8002992:	019b      	lsls	r3, r3, #6
 8002994:	b21b      	sxth	r3, r3
 8002996:	f403 7340 	and.w	r3, r3, #768	; 0x300
 800299a:	b21a      	sxth	r2, r3
 800299c:	7a7b      	ldrb	r3, [r7, #9]
 800299e:	b21b      	sxth	r3, r3
 80029a0:	4313      	orrs	r3, r2
 80029a2:	837b      	strh	r3, [r7, #26]
  T0_degC = T0_degC_x8_u16 >> 3;
 80029a4:	f9b7 301c 	ldrsh.w	r3, [r7, #28]
 80029a8:	10db      	asrs	r3, r3, #3
 80029aa:	833b      	strh	r3, [r7, #24]
  T1_degC = T1_degC_x8_u16 >> 3;
 80029ac:	f9b7 301a 	ldrsh.w	r3, [r7, #26]
 80029b0:	10db      	asrs	r3, r3, #3
 80029b2:	82fb      	strh	r3, [r7, #22]

  SENSOR_IO_ReadMultiple(DeviceAddr, (HTS221_T0_OUT_L | 0x80), buffer, 4);
 80029b4:	88fb      	ldrh	r3, [r7, #6]
 80029b6:	b2d8      	uxtb	r0, r3
 80029b8:	f107 0208 	add.w	r2, r7, #8
 80029bc:	2304      	movs	r3, #4
 80029be:	21bc      	movs	r1, #188	; 0xbc
 80029c0:	f7ff fd24 	bl	800240c <SENSOR_IO_ReadMultiple>

  T0_out = (((uint16_t)buffer[1]) << 8) | (uint16_t)buffer[0];
 80029c4:	7a7b      	ldrb	r3, [r7, #9]
 80029c6:	021b      	lsls	r3, r3, #8
 80029c8:	b21a      	sxth	r2, r3
 80029ca:	7a3b      	ldrb	r3, [r7, #8]
 80029cc:	b21b      	sxth	r3, r3
 80029ce:	4313      	orrs	r3, r2
 80029d0:	82bb      	strh	r3, [r7, #20]
  T1_out = (((uint16_t)buffer[3]) << 8) | (uint16_t)buffer[2];
 80029d2:	7afb      	ldrb	r3, [r7, #11]
 80029d4:	021b      	lsls	r3, r3, #8
 80029d6:	b21a      	sxth	r2, r3
 80029d8:	7abb      	ldrb	r3, [r7, #10]
 80029da:	b21b      	sxth	r3, r3
 80029dc:	4313      	orrs	r3, r2
 80029de:	827b      	strh	r3, [r7, #18]

  SENSOR_IO_ReadMultiple(DeviceAddr, (HTS221_TEMP_OUT_L_REG | 0x80), buffer, 2);
 80029e0:	88fb      	ldrh	r3, [r7, #6]
 80029e2:	b2d8      	uxtb	r0, r3
 80029e4:	f107 0208 	add.w	r2, r7, #8
 80029e8:	2302      	movs	r3, #2
 80029ea:	21aa      	movs	r1, #170	; 0xaa
 80029ec:	f7ff fd0e 	bl	800240c <SENSOR_IO_ReadMultiple>

  T_out = (((uint16_t)buffer[1]) << 8) | (uint16_t)buffer[0];
 80029f0:	7a7b      	ldrb	r3, [r7, #9]
 80029f2:	021b      	lsls	r3, r3, #8
 80029f4:	b21a      	sxth	r2, r3
 80029f6:	7a3b      	ldrb	r3, [r7, #8]
 80029f8:	b21b      	sxth	r3, r3
 80029fa:	4313      	orrs	r3, r2
 80029fc:	823b      	strh	r3, [r7, #16]

  tmp_f = (float)(T_out - T0_out) * (float)(T1_degC - T0_degC) / (float)(T1_out - T0_out)  +  T0_degC;
 80029fe:	f9b7 2010 	ldrsh.w	r2, [r7, #16]
 8002a02:	f9b7 3014 	ldrsh.w	r3, [r7, #20]
 8002a06:	1ad3      	subs	r3, r2, r3
 8002a08:	ee07 3a90 	vmov	s15, r3
 8002a0c:	eeb8 7ae7 	vcvt.f32.s32	s14, s15
 8002a10:	f9b7 2016 	ldrsh.w	r2, [r7, #22]
 8002a14:	f9b7 3018 	ldrsh.w	r3, [r7, #24]
 8002a18:	1ad3      	subs	r3, r2, r3
 8002a1a:	ee07 3a90 	vmov	s15, r3
 8002a1e:	eef8 7ae7 	vcvt.f32.s32	s15, s15
 8002a22:	ee67 6a27 	vmul.f32	s13, s14, s15
 8002a26:	f9b7 2012 	ldrsh.w	r2, [r7, #18]
 8002a2a:	f9b7 3014 	ldrsh.w	r3, [r7, #20]
 8002a2e:	1ad3      	subs	r3, r2, r3
 8002a30:	ee07 3a90 	vmov	s15, r3
 8002a34:	eef8 7ae7 	vcvt.f32.s32	s15, s15
 8002a38:	ee86 7aa7 	vdiv.f32	s14, s13, s15
 8002a3c:	f9b7 3018 	ldrsh.w	r3, [r7, #24]
 8002a40:	ee07 3a90 	vmov	s15, r3
 8002a44:	eef8 7ae7 	vcvt.f32.s32	s15, s15
 8002a48:	ee77 7a27 	vadd.f32	s15, s14, s15
 8002a4c:	edc7 7a03 	vstr	s15, [r7, #12]

  return tmp_f;
 8002a50:	68fb      	ldr	r3, [r7, #12]
 8002a52:	ee07 3a90 	vmov	s15, r3
}
 8002a56:	eeb0 0a67 	vmov.f32	s0, s15
 8002a5a:	3720      	adds	r7, #32
 8002a5c:	46bd      	mov	sp, r7
 8002a5e:	bd80      	pop	{r7, pc}

08002a60 <LIS3MDL_MagInit>:
  * @brief  Set LIS3MDL Magnetometer Initialization.
  * @param  LIS3MDL_InitStruct: pointer to a LIS3MDL_MagInitTypeDef structure 
  *         that contains the configuration setting for the LIS3MDL.
  */
void LIS3MDL_MagInit(MAGNETO_InitTypeDef LIS3MDL_InitStruct)
{  
 8002a60:	b580      	push	{r7, lr}
 8002a62:	b082      	sub	sp, #8
 8002a64:	af00      	add	r7, sp, #0
 8002a66:	463b      	mov	r3, r7
 8002a68:	e883 0003 	stmia.w	r3, {r0, r1}
  SENSOR_IO_Write(LIS3MDL_MAG_I2C_ADDRESS_HIGH, LIS3MDL_MAG_CTRL_REG1, LIS3MDL_InitStruct.Register1);
 8002a6c:	783b      	ldrb	r3, [r7, #0]
 8002a6e:	461a      	mov	r2, r3
 8002a70:	2120      	movs	r1, #32
 8002a72:	203c      	movs	r0, #60	; 0x3c
 8002a74:	f7ff fc92 	bl	800239c <SENSOR_IO_Write>
  SENSOR_IO_Write(LIS3MDL_MAG_I2C_ADDRESS_HIGH, LIS3MDL_MAG_CTRL_REG2, LIS3MDL_InitStruct.Register2);
 8002a78:	787b      	ldrb	r3, [r7, #1]
 8002a7a:	461a      	mov	r2, r3
 8002a7c:	2121      	movs	r1, #33	; 0x21
 8002a7e:	203c      	movs	r0, #60	; 0x3c
 8002a80:	f7ff fc8c 	bl	800239c <SENSOR_IO_Write>
  SENSOR_IO_Write(LIS3MDL_MAG_I2C_ADDRESS_HIGH, LIS3MDL_MAG_CTRL_REG3, LIS3MDL_InitStruct.Register3);
 8002a84:	78bb      	ldrb	r3, [r7, #2]
 8002a86:	461a      	mov	r2, r3
 8002a88:	2122      	movs	r1, #34	; 0x22
 8002a8a:	203c      	movs	r0, #60	; 0x3c
 8002a8c:	f7ff fc86 	bl	800239c <SENSOR_IO_Write>
  SENSOR_IO_Write(LIS3MDL_MAG_I2C_ADDRESS_HIGH, LIS3MDL_MAG_CTRL_REG4, LIS3MDL_InitStruct.Register4);
 8002a90:	78fb      	ldrb	r3, [r7, #3]
 8002a92:	461a      	mov	r2, r3
 8002a94:	2123      	movs	r1, #35	; 0x23
 8002a96:	203c      	movs	r0, #60	; 0x3c
 8002a98:	f7ff fc80 	bl	800239c <SENSOR_IO_Write>
  SENSOR_IO_Write(LIS3MDL_MAG_I2C_ADDRESS_HIGH, LIS3MDL_MAG_CTRL_REG5, LIS3MDL_InitStruct.Register5);
 8002a9c:	793b      	ldrb	r3, [r7, #4]
 8002a9e:	461a      	mov	r2, r3
 8002aa0:	2124      	movs	r1, #36	; 0x24
 8002aa2:	203c      	movs	r0, #60	; 0x3c
 8002aa4:	f7ff fc7a 	bl	800239c <SENSOR_IO_Write>
}
 8002aa8:	bf00      	nop
 8002aaa:	3708      	adds	r7, #8
 8002aac:	46bd      	mov	sp, r7
 8002aae:	bd80      	pop	{r7, pc}

08002ab0 <LIS3MDL_MagDeInit>:

/**
  * @brief  LIS3MDL Magnetometer De-initialization.
  */
void LIS3MDL_MagDeInit(void)
{
 8002ab0:	b580      	push	{r7, lr}
 8002ab2:	b082      	sub	sp, #8
 8002ab4:	af00      	add	r7, sp, #0
  uint8_t ctrl = 0x00;
 8002ab6:	2300      	movs	r3, #0
 8002ab8:	71fb      	strb	r3, [r7, #7]
  
  /* Read control register 1 value */
  ctrl = SENSOR_IO_Read(LIS3MDL_MAG_I2C_ADDRESS_HIGH, LIS3MDL_MAG_CTRL_REG3);
 8002aba:	2122      	movs	r1, #34	; 0x22
 8002abc:	203c      	movs	r0, #60	; 0x3c
 8002abe:	f7ff fc87 	bl	80023d0 <SENSOR_IO_Read>
 8002ac2:	4603      	mov	r3, r0
 8002ac4:	71fb      	strb	r3, [r7, #7]

  /* Clear Selection Mode bits */
  ctrl &= ~(LIS3MDL_MAG_SELECTION_MODE);
 8002ac6:	79fb      	ldrb	r3, [r7, #7]
 8002ac8:	f023 0303 	bic.w	r3, r3, #3
 8002acc:	71fb      	strb	r3, [r7, #7]

  /* Set Power down */
  ctrl |= LIS3MDL_MAG_POWERDOWN2_MODE;
 8002ace:	79fb      	ldrb	r3, [r7, #7]
 8002ad0:	f043 0303 	orr.w	r3, r3, #3
 8002ad4:	71fb      	strb	r3, [r7, #7]
  
  /* write back control register */
  SENSOR_IO_Write(LIS3MDL_MAG_I2C_ADDRESS_HIGH, LIS3MDL_MAG_CTRL_REG3, ctrl);  
 8002ad6:	79fb      	ldrb	r3, [r7, #7]
 8002ad8:	461a      	mov	r2, r3
 8002ada:	2122      	movs	r1, #34	; 0x22
 8002adc:	203c      	movs	r0, #60	; 0x3c
 8002ade:	f7ff fc5d 	bl	800239c <SENSOR_IO_Write>
}
 8002ae2:	bf00      	nop
 8002ae4:	3708      	adds	r7, #8
 8002ae6:	46bd      	mov	sp, r7
 8002ae8:	bd80      	pop	{r7, pc}

08002aea <LIS3MDL_MagReadID>:
/**
  * @brief  Read LIS3MDL ID.
  * @retval ID 
  */
uint8_t LIS3MDL_MagReadID(void)
{
 8002aea:	b580      	push	{r7, lr}
 8002aec:	af00      	add	r7, sp, #0
  /* IO interface initialization */
  SENSOR_IO_Init();  
 8002aee:	f7ff fc4b 	bl	8002388 <SENSOR_IO_Init>
  /* Read value at Who am I register address */
  return (SENSOR_IO_Read(LIS3MDL_MAG_I2C_ADDRESS_HIGH, LIS3MDL_MAG_WHO_AM_I_REG));
 8002af2:	210f      	movs	r1, #15
 8002af4:	203c      	movs	r0, #60	; 0x3c
 8002af6:	f7ff fc6b 	bl	80023d0 <SENSOR_IO_Read>
 8002afa:	4603      	mov	r3, r0
}
 8002afc:	4618      	mov	r0, r3
 8002afe:	bd80      	pop	{r7, pc}

08002b00 <LIS3MDL_MagLowPower>:
/**
  * @brief  Set/Unset Magnetometer in low power mode.
  * @param  status 0 means disable Low Power Mode, otherwise Low Power Mode is enabled
  */
void LIS3MDL_MagLowPower(uint16_t status)
{  
 8002b00:	b580      	push	{r7, lr}
 8002b02:	b084      	sub	sp, #16
 8002b04:	af00      	add	r7, sp, #0
 8002b06:	4603      	mov	r3, r0
 8002b08:	80fb      	strh	r3, [r7, #6]
  uint8_t ctrl = 0;
 8002b0a:	2300      	movs	r3, #0
 8002b0c:	73fb      	strb	r3, [r7, #15]
  
  /* Read control register 1 value */
  ctrl = SENSOR_IO_Read(LIS3MDL_MAG_I2C_ADDRESS_HIGH, LIS3MDL_MAG_CTRL_REG3);
 8002b0e:	2122      	movs	r1, #34	; 0x22
 8002b10:	203c      	movs	r0, #60	; 0x3c
 8002b12:	f7ff fc5d 	bl	80023d0 <SENSOR_IO_Read>
 8002b16:	4603      	mov	r3, r0
 8002b18:	73fb      	strb	r3, [r7, #15]

  /* Clear Low Power Mode bit */
  ctrl &= ~(0x20);
 8002b1a:	7bfb      	ldrb	r3, [r7, #15]
 8002b1c:	f023 0320 	bic.w	r3, r3, #32
 8002b20:	73fb      	strb	r3, [r7, #15]

  /* Set Low Power Mode */
  if(status)
 8002b22:	88fb      	ldrh	r3, [r7, #6]
 8002b24:	2b00      	cmp	r3, #0
 8002b26:	d003      	beq.n	8002b30 <LIS3MDL_MagLowPower+0x30>
  {
    ctrl |= LIS3MDL_MAG_CONFIG_LOWPOWER_MODE;
 8002b28:	7bfb      	ldrb	r3, [r7, #15]
 8002b2a:	f043 0320 	orr.w	r3, r3, #32
 8002b2e:	73fb      	strb	r3, [r7, #15]
  {
    ctrl |= LIS3MDL_MAG_CONFIG_NORMAL_MODE;
  }
  
  /* write back control register */
  SENSOR_IO_Write(LIS3MDL_MAG_I2C_ADDRESS_HIGH, LIS3MDL_MAG_CTRL_REG3, ctrl);  
 8002b30:	7bfb      	ldrb	r3, [r7, #15]
 8002b32:	461a      	mov	r2, r3
 8002b34:	2122      	movs	r1, #34	; 0x22
 8002b36:	203c      	movs	r0, #60	; 0x3c
 8002b38:	f7ff fc30 	bl	800239c <SENSOR_IO_Write>
}
 8002b3c:	bf00      	nop
 8002b3e:	3710      	adds	r7, #16
 8002b40:	46bd      	mov	sp, r7
 8002b42:	bd80      	pop	{r7, pc}

08002b44 <LIS3MDL_MagReadXYZ>:
/**
  * @brief  Read X, Y & Z Magnetometer values 
  * @param  pData: Data out pointer
  */
void LIS3MDL_MagReadXYZ(int16_t* pData)
{
 8002b44:	b580      	push	{r7, lr}
 8002b46:	b088      	sub	sp, #32
 8002b48:	af00      	add	r7, sp, #0
 8002b4a:	6078      	str	r0, [r7, #4]
  int16_t pnRawData[3];
  uint8_t ctrlm= 0;
 8002b4c:	2300      	movs	r3, #0
 8002b4e:	75fb      	strb	r3, [r7, #23]
  uint8_t buffer[6];
  uint8_t i = 0;
 8002b50:	2300      	movs	r3, #0
 8002b52:	77fb      	strb	r3, [r7, #31]
  float sensitivity = 0;
 8002b54:	f04f 0300 	mov.w	r3, #0
 8002b58:	61bb      	str	r3, [r7, #24]
  
  /* Read the magnetometer control register content */
  ctrlm = SENSOR_IO_Read(LIS3MDL_MAG_I2C_ADDRESS_HIGH, LIS3MDL_MAG_CTRL_REG2);
 8002b5a:	2121      	movs	r1, #33	; 0x21
 8002b5c:	203c      	movs	r0, #60	; 0x3c
 8002b5e:	f7ff fc37 	bl	80023d0 <SENSOR_IO_Read>
 8002b62:	4603      	mov	r3, r0
 8002b64:	75fb      	strb	r3, [r7, #23]
  
  /* Read output register X, Y & Z acceleration */
  SENSOR_IO_ReadMultiple(LIS3MDL_MAG_I2C_ADDRESS_HIGH, (LIS3MDL_MAG_OUTX_L | 0x80), buffer, 6);
 8002b66:	f107 0208 	add.w	r2, r7, #8
 8002b6a:	2306      	movs	r3, #6
 8002b6c:	21a8      	movs	r1, #168	; 0xa8
 8002b6e:	203c      	movs	r0, #60	; 0x3c
 8002b70:	f7ff fc4c 	bl	800240c <SENSOR_IO_ReadMultiple>
  
  for(i=0; i<3; i++)
 8002b74:	2300      	movs	r3, #0
 8002b76:	77fb      	strb	r3, [r7, #31]
 8002b78:	e01c      	b.n	8002bb4 <LIS3MDL_MagReadXYZ+0x70>
  {
    pnRawData[i]=((((uint16_t)buffer[2*i+1]) << 8) + (uint16_t)buffer[2*i]);
 8002b7a:	7ffb      	ldrb	r3, [r7, #31]
 8002b7c:	005b      	lsls	r3, r3, #1
 8002b7e:	3301      	adds	r3, #1
 8002b80:	3320      	adds	r3, #32
 8002b82:	443b      	add	r3, r7
 8002b84:	f813 3c18 	ldrb.w	r3, [r3, #-24]
 8002b88:	b29b      	uxth	r3, r3
 8002b8a:	021b      	lsls	r3, r3, #8
 8002b8c:	b29a      	uxth	r2, r3
 8002b8e:	7ffb      	ldrb	r3, [r7, #31]
 8002b90:	005b      	lsls	r3, r3, #1
 8002b92:	3320      	adds	r3, #32
 8002b94:	443b      	add	r3, r7
 8002b96:	f813 3c18 	ldrb.w	r3, [r3, #-24]
 8002b9a:	b29b      	uxth	r3, r3
 8002b9c:	4413      	add	r3, r2
 8002b9e:	b29a      	uxth	r2, r3
 8002ba0:	7ffb      	ldrb	r3, [r7, #31]
 8002ba2:	b212      	sxth	r2, r2
 8002ba4:	005b      	lsls	r3, r3, #1
 8002ba6:	3320      	adds	r3, #32
 8002ba8:	443b      	add	r3, r7
 8002baa:	f823 2c10 	strh.w	r2, [r3, #-16]
  for(i=0; i<3; i++)
 8002bae:	7ffb      	ldrb	r3, [r7, #31]
 8002bb0:	3301      	adds	r3, #1
 8002bb2:	77fb      	strb	r3, [r7, #31]
 8002bb4:	7ffb      	ldrb	r3, [r7, #31]
 8002bb6:	2b02      	cmp	r3, #2
 8002bb8:	d9df      	bls.n	8002b7a <LIS3MDL_MagReadXYZ+0x36>
  }
  
  /* Normal mode */
  /* Switch the sensitivity value set in the CRTL_REG2 */
  switch(ctrlm & 0x60)
 8002bba:	7dfb      	ldrb	r3, [r7, #23]
 8002bbc:	f003 0360 	and.w	r3, r3, #96	; 0x60
 8002bc0:	2b60      	cmp	r3, #96	; 0x60
 8002bc2:	d013      	beq.n	8002bec <LIS3MDL_MagReadXYZ+0xa8>
 8002bc4:	2b60      	cmp	r3, #96	; 0x60
 8002bc6:	dc14      	bgt.n	8002bf2 <LIS3MDL_MagReadXYZ+0xae>
 8002bc8:	2b40      	cmp	r3, #64	; 0x40
 8002bca:	d00c      	beq.n	8002be6 <LIS3MDL_MagReadXYZ+0xa2>
 8002bcc:	2b40      	cmp	r3, #64	; 0x40
 8002bce:	dc10      	bgt.n	8002bf2 <LIS3MDL_MagReadXYZ+0xae>
 8002bd0:	2b00      	cmp	r3, #0
 8002bd2:	d002      	beq.n	8002bda <LIS3MDL_MagReadXYZ+0x96>
 8002bd4:	2b20      	cmp	r3, #32
 8002bd6:	d003      	beq.n	8002be0 <LIS3MDL_MagReadXYZ+0x9c>
 8002bd8:	e00b      	b.n	8002bf2 <LIS3MDL_MagReadXYZ+0xae>
  {
  case LIS3MDL_MAG_FS_4_GA:
    sensitivity = LIS3MDL_MAG_SENSITIVITY_FOR_FS_4GA;
 8002bda:	4b19      	ldr	r3, [pc, #100]	; (8002c40 <LIS3MDL_MagReadXYZ+0xfc>)
 8002bdc:	61bb      	str	r3, [r7, #24]
    break;
 8002bde:	e008      	b.n	8002bf2 <LIS3MDL_MagReadXYZ+0xae>
  case LIS3MDL_MAG_FS_8_GA:
    sensitivity = LIS3MDL_MAG_SENSITIVITY_FOR_FS_8GA;
 8002be0:	4b18      	ldr	r3, [pc, #96]	; (8002c44 <LIS3MDL_MagReadXYZ+0x100>)
 8002be2:	61bb      	str	r3, [r7, #24]
    break;
 8002be4:	e005      	b.n	8002bf2 <LIS3MDL_MagReadXYZ+0xae>
  case LIS3MDL_MAG_FS_12_GA:
    sensitivity = LIS3MDL_MAG_SENSITIVITY_FOR_FS_12GA;
 8002be6:	4b18      	ldr	r3, [pc, #96]	; (8002c48 <LIS3MDL_MagReadXYZ+0x104>)
 8002be8:	61bb      	str	r3, [r7, #24]
    break;
 8002bea:	e002      	b.n	8002bf2 <LIS3MDL_MagReadXYZ+0xae>
  case LIS3MDL_MAG_FS_16_GA:
    sensitivity = LIS3MDL_MAG_SENSITIVITY_FOR_FS_16GA;
 8002bec:	4b17      	ldr	r3, [pc, #92]	; (8002c4c <LIS3MDL_MagReadXYZ+0x108>)
 8002bee:	61bb      	str	r3, [r7, #24]
    break;    
 8002bf0:	bf00      	nop
  }
  
  /* Obtain the mGauss value for the three axis */
  for(i=0; i<3; i++)
 8002bf2:	2300      	movs	r3, #0
 8002bf4:	77fb      	strb	r3, [r7, #31]
 8002bf6:	e01a      	b.n	8002c2e <LIS3MDL_MagReadXYZ+0xea>
  {
    pData[i]=( int16_t )(pnRawData[i] * sensitivity);
 8002bf8:	7ffb      	ldrb	r3, [r7, #31]
 8002bfa:	005b      	lsls	r3, r3, #1
 8002bfc:	3320      	adds	r3, #32
 8002bfe:	443b      	add	r3, r7
 8002c00:	f933 3c10 	ldrsh.w	r3, [r3, #-16]
 8002c04:	ee07 3a90 	vmov	s15, r3
 8002c08:	eeb8 7ae7 	vcvt.f32.s32	s14, s15
 8002c0c:	edd7 7a06 	vldr	s15, [r7, #24]
 8002c10:	ee67 7a27 	vmul.f32	s15, s14, s15
 8002c14:	7ffb      	ldrb	r3, [r7, #31]
 8002c16:	005b      	lsls	r3, r3, #1
 8002c18:	687a      	ldr	r2, [r7, #4]
 8002c1a:	4413      	add	r3, r2
 8002c1c:	eefd 7ae7 	vcvt.s32.f32	s15, s15
 8002c20:	ee17 2a90 	vmov	r2, s15
 8002c24:	b212      	sxth	r2, r2
 8002c26:	801a      	strh	r2, [r3, #0]
  for(i=0; i<3; i++)
 8002c28:	7ffb      	ldrb	r3, [r7, #31]
 8002c2a:	3301      	adds	r3, #1
 8002c2c:	77fb      	strb	r3, [r7, #31]
 8002c2e:	7ffb      	ldrb	r3, [r7, #31]
 8002c30:	2b02      	cmp	r3, #2
 8002c32:	d9e1      	bls.n	8002bf8 <LIS3MDL_MagReadXYZ+0xb4>
  }
}
 8002c34:	bf00      	nop
 8002c36:	bf00      	nop
 8002c38:	3720      	adds	r7, #32
 8002c3a:	46bd      	mov	sp, r7
 8002c3c:	bd80      	pop	{r7, pc}
 8002c3e:	bf00      	nop
 8002c40:	3e0f5c29 	.word	0x3e0f5c29
 8002c44:	3e947ae1 	.word	0x3e947ae1
 8002c48:	3edc28f6 	.word	0x3edc28f6
 8002c4c:	3f147ae1 	.word	0x3f147ae1

08002c50 <LPS22HB_P_Init>:
  */
/**
  * @brief  Set LPS22HB pressure sensor Initialization.
  */
void LPS22HB_P_Init(uint16_t DeviceAddr)
{
 8002c50:	b580      	push	{r7, lr}
 8002c52:	b082      	sub	sp, #8
 8002c54:	af00      	add	r7, sp, #0
 8002c56:	4603      	mov	r3, r0
 8002c58:	80fb      	strh	r3, [r7, #6]
  LPS22HB_Init(DeviceAddr);
 8002c5a:	88fb      	ldrh	r3, [r7, #6]
 8002c5c:	4618      	mov	r0, r3
 8002c5e:	f000 f879 	bl	8002d54 <LPS22HB_Init>
}
 8002c62:	bf00      	nop
 8002c64:	3708      	adds	r7, #8
 8002c66:	46bd      	mov	sp, r7
 8002c68:	bd80      	pop	{r7, pc}

08002c6a <LPS22HB_P_ReadID>:
/**
  * @brief  Read LPS22HB ID.
  * @retval ID 
  */
uint8_t LPS22HB_P_ReadID(uint16_t DeviceAddr)
{  
 8002c6a:	b580      	push	{r7, lr}
 8002c6c:	b084      	sub	sp, #16
 8002c6e:	af00      	add	r7, sp, #0
 8002c70:	4603      	mov	r3, r0
 8002c72:	80fb      	strh	r3, [r7, #6]
  uint8_t ctrl = 0x00;
 8002c74:	2300      	movs	r3, #0
 8002c76:	73fb      	strb	r3, [r7, #15]

  /* IO interface initialization */
  SENSOR_IO_Init();  
 8002c78:	f7ff fb86 	bl	8002388 <SENSOR_IO_Init>
  
  /* Read value at Who am I register address */
  ctrl = SENSOR_IO_Read(DeviceAddr, LPS22HB_WHO_AM_I_REG);
 8002c7c:	88fb      	ldrh	r3, [r7, #6]
 8002c7e:	b2db      	uxtb	r3, r3
 8002c80:	210f      	movs	r1, #15
 8002c82:	4618      	mov	r0, r3
 8002c84:	f7ff fba4 	bl	80023d0 <SENSOR_IO_Read>
 8002c88:	4603      	mov	r3, r0
 8002c8a:	73fb      	strb	r3, [r7, #15]
  
  return ctrl;
 8002c8c:	7bfb      	ldrb	r3, [r7, #15]
}
 8002c8e:	4618      	mov	r0, r3
 8002c90:	3710      	adds	r7, #16
 8002c92:	46bd      	mov	sp, r7
 8002c94:	bd80      	pop	{r7, pc}
	...

08002c98 <LPS22HB_P_ReadPressure>:
/**
  * @brief  Read pressure value of LPS22HB
  * @retval pressure value
  */
float LPS22HB_P_ReadPressure(uint16_t DeviceAddr)
{
 8002c98:	b590      	push	{r4, r7, lr}
 8002c9a:	b087      	sub	sp, #28
 8002c9c:	af00      	add	r7, sp, #0
 8002c9e:	4603      	mov	r3, r0
 8002ca0:	80fb      	strh	r3, [r7, #6]
  int32_t raw_press;
  uint8_t buffer[3];
  uint32_t tmp = 0;
 8002ca2:	2300      	movs	r3, #0
 8002ca4:	617b      	str	r3, [r7, #20]
  uint8_t i;

  for(i = 0; i < 3; i++)
 8002ca6:	2300      	movs	r3, #0
 8002ca8:	74fb      	strb	r3, [r7, #19]
 8002caa:	e013      	b.n	8002cd4 <LPS22HB_P_ReadPressure+0x3c>
  {
    buffer[i] = SENSOR_IO_Read(DeviceAddr, (LPS22HB_PRESS_OUT_XL_REG + i));
 8002cac:	88fb      	ldrh	r3, [r7, #6]
 8002cae:	b2da      	uxtb	r2, r3
 8002cb0:	7cfb      	ldrb	r3, [r7, #19]
 8002cb2:	3328      	adds	r3, #40	; 0x28
 8002cb4:	b2db      	uxtb	r3, r3
 8002cb6:	7cfc      	ldrb	r4, [r7, #19]
 8002cb8:	4619      	mov	r1, r3
 8002cba:	4610      	mov	r0, r2
 8002cbc:	f7ff fb88 	bl	80023d0 <SENSOR_IO_Read>
 8002cc0:	4603      	mov	r3, r0
 8002cc2:	461a      	mov	r2, r3
 8002cc4:	f104 0318 	add.w	r3, r4, #24
 8002cc8:	443b      	add	r3, r7
 8002cca:	f803 2c10 	strb.w	r2, [r3, #-16]
  for(i = 0; i < 3; i++)
 8002cce:	7cfb      	ldrb	r3, [r7, #19]
 8002cd0:	3301      	adds	r3, #1
 8002cd2:	74fb      	strb	r3, [r7, #19]
 8002cd4:	7cfb      	ldrb	r3, [r7, #19]
 8002cd6:	2b02      	cmp	r3, #2
 8002cd8:	d9e8      	bls.n	8002cac <LPS22HB_P_ReadPressure+0x14>
  }

  /* Build the raw data */
  for(i = 0; i < 3; i++)
 8002cda:	2300      	movs	r3, #0
 8002cdc:	74fb      	strb	r3, [r7, #19]
 8002cde:	e00f      	b.n	8002d00 <LPS22HB_P_ReadPressure+0x68>
    tmp |= (((uint32_t)buffer[i]) << (8 * i));
 8002ce0:	7cfb      	ldrb	r3, [r7, #19]
 8002ce2:	3318      	adds	r3, #24
 8002ce4:	443b      	add	r3, r7
 8002ce6:	f813 3c10 	ldrb.w	r3, [r3, #-16]
 8002cea:	461a      	mov	r2, r3
 8002cec:	7cfb      	ldrb	r3, [r7, #19]
 8002cee:	00db      	lsls	r3, r3, #3
 8002cf0:	fa02 f303 	lsl.w	r3, r2, r3
 8002cf4:	697a      	ldr	r2, [r7, #20]
 8002cf6:	4313      	orrs	r3, r2
 8002cf8:	617b      	str	r3, [r7, #20]
  for(i = 0; i < 3; i++)
 8002cfa:	7cfb      	ldrb	r3, [r7, #19]
 8002cfc:	3301      	adds	r3, #1
 8002cfe:	74fb      	strb	r3, [r7, #19]
 8002d00:	7cfb      	ldrb	r3, [r7, #19]
 8002d02:	2b02      	cmp	r3, #2
 8002d04:	d9ec      	bls.n	8002ce0 <LPS22HB_P_ReadPressure+0x48>

  /* convert the 2's complement 24 bit to 2's complement 32 bit */
  if(tmp & 0x00800000)
 8002d06:	697b      	ldr	r3, [r7, #20]
 8002d08:	f403 0300 	and.w	r3, r3, #8388608	; 0x800000
 8002d0c:	2b00      	cmp	r3, #0
 8002d0e:	d003      	beq.n	8002d18 <LPS22HB_P_ReadPressure+0x80>
    tmp |= 0xFF000000;
 8002d10:	697b      	ldr	r3, [r7, #20]
 8002d12:	f043 437f 	orr.w	r3, r3, #4278190080	; 0xff000000
 8002d16:	617b      	str	r3, [r7, #20]

  raw_press = ((int32_t)tmp);
 8002d18:	697b      	ldr	r3, [r7, #20]
 8002d1a:	60fb      	str	r3, [r7, #12]

  raw_press = (raw_press * 100) / 4096;
 8002d1c:	68fb      	ldr	r3, [r7, #12]
 8002d1e:	2264      	movs	r2, #100	; 0x64
 8002d20:	fb02 f303 	mul.w	r3, r2, r3
 8002d24:	2b00      	cmp	r3, #0
 8002d26:	da01      	bge.n	8002d2c <LPS22HB_P_ReadPressure+0x94>
 8002d28:	f603 73ff 	addw	r3, r3, #4095	; 0xfff
 8002d2c:	131b      	asrs	r3, r3, #12
 8002d2e:	60fb      	str	r3, [r7, #12]

  return (float)((float)raw_press / 100.0f);
 8002d30:	68fb      	ldr	r3, [r7, #12]
 8002d32:	ee07 3a90 	vmov	s15, r3
 8002d36:	eef8 7ae7 	vcvt.f32.s32	s15, s15
 8002d3a:	ed9f 7a05 	vldr	s14, [pc, #20]	; 8002d50 <LPS22HB_P_ReadPressure+0xb8>
 8002d3e:	eec7 6a87 	vdiv.f32	s13, s15, s14
 8002d42:	eef0 7a66 	vmov.f32	s15, s13
}
 8002d46:	eeb0 0a67 	vmov.f32	s0, s15
 8002d4a:	371c      	adds	r7, #28
 8002d4c:	46bd      	mov	sp, r7
 8002d4e:	bd90      	pop	{r4, r7, pc}
 8002d50:	42c80000 	.word	0x42c80000

08002d54 <LPS22HB_Init>:
  * @brief  Set LPS22HB Initialization.
  * @param  DeviceAddr: I2C device address
  * @retval None
  */
static void LPS22HB_Init(uint16_t DeviceAddr)
{
 8002d54:	b580      	push	{r7, lr}
 8002d56:	b084      	sub	sp, #16
 8002d58:	af00      	add	r7, sp, #0
 8002d5a:	4603      	mov	r3, r0
 8002d5c:	80fb      	strh	r3, [r7, #6]
  uint8_t tmp;

  /* Set Power mode */
  tmp = SENSOR_IO_Read(DeviceAddr, LPS22HB_RES_CONF_REG);
 8002d5e:	88fb      	ldrh	r3, [r7, #6]
 8002d60:	b2db      	uxtb	r3, r3
 8002d62:	211a      	movs	r1, #26
 8002d64:	4618      	mov	r0, r3
 8002d66:	f7ff fb33 	bl	80023d0 <SENSOR_IO_Read>
 8002d6a:	4603      	mov	r3, r0
 8002d6c:	73fb      	strb	r3, [r7, #15]

  tmp &= ~LPS22HB_LCEN_MASK;
 8002d6e:	7bfb      	ldrb	r3, [r7, #15]
 8002d70:	f023 0301 	bic.w	r3, r3, #1
 8002d74:	73fb      	strb	r3, [r7, #15]
  tmp |= (uint8_t)0x01; /* Set low current mode */
 8002d76:	7bfb      	ldrb	r3, [r7, #15]
 8002d78:	f043 0301 	orr.w	r3, r3, #1
 8002d7c:	73fb      	strb	r3, [r7, #15]

  SENSOR_IO_Write(DeviceAddr, LPS22HB_RES_CONF_REG, tmp);
 8002d7e:	88fb      	ldrh	r3, [r7, #6]
 8002d80:	b2db      	uxtb	r3, r3
 8002d82:	7bfa      	ldrb	r2, [r7, #15]
 8002d84:	211a      	movs	r1, #26
 8002d86:	4618      	mov	r0, r3
 8002d88:	f7ff fb08 	bl	800239c <SENSOR_IO_Write>

  /* Read CTRL_REG1 */
  tmp = SENSOR_IO_Read(DeviceAddr, LPS22HB_CTRL_REG1);
 8002d8c:	88fb      	ldrh	r3, [r7, #6]
 8002d8e:	b2db      	uxtb	r3, r3
 8002d90:	2110      	movs	r1, #16
 8002d92:	4618      	mov	r0, r3
 8002d94:	f7ff fb1c 	bl	80023d0 <SENSOR_IO_Read>
 8002d98:	4603      	mov	r3, r0
 8002d9a:	73fb      	strb	r3, [r7, #15]

  /* Set default ODR */
  tmp &= ~LPS22HB_ODR_MASK;
 8002d9c:	7bfb      	ldrb	r3, [r7, #15]
 8002d9e:	f023 0370 	bic.w	r3, r3, #112	; 0x70
 8002da2:	73fb      	strb	r3, [r7, #15]
  tmp |= (uint8_t)0x30; /* Set ODR to 25Hz */
 8002da4:	7bfb      	ldrb	r3, [r7, #15]
 8002da6:	f043 0330 	orr.w	r3, r3, #48	; 0x30
 8002daa:	73fb      	strb	r3, [r7, #15]

  /* Enable BDU */
  tmp &= ~LPS22HB_BDU_MASK;
 8002dac:	7bfb      	ldrb	r3, [r7, #15]
 8002dae:	f023 0302 	bic.w	r3, r3, #2
 8002db2:	73fb      	strb	r3, [r7, #15]
  tmp |= ((uint8_t)0x02);
 8002db4:	7bfb      	ldrb	r3, [r7, #15]
 8002db6:	f043 0302 	orr.w	r3, r3, #2
 8002dba:	73fb      	strb	r3, [r7, #15]

  /* Apply settings to CTRL_REG1 */
  SENSOR_IO_Write(DeviceAddr, LPS22HB_CTRL_REG1, tmp);
 8002dbc:	88fb      	ldrh	r3, [r7, #6]
 8002dbe:	b2db      	uxtb	r3, r3
 8002dc0:	7bfa      	ldrb	r2, [r7, #15]
 8002dc2:	2110      	movs	r1, #16
 8002dc4:	4618      	mov	r0, r3
 8002dc6:	f7ff fae9 	bl	800239c <SENSOR_IO_Write>
}  
 8002dca:	bf00      	nop
 8002dcc:	3710      	adds	r7, #16
 8002dce:	46bd      	mov	sp, r7
 8002dd0:	bd80      	pop	{r7, pc}

08002dd2 <LSM6DSL_AccInit>:
/**
  * @brief  Set LSM6DSL Accelerometer Initialization.
  * @param  InitStruct: Init parameters
  */
void LSM6DSL_AccInit(uint16_t InitStruct)
{  
 8002dd2:	b580      	push	{r7, lr}
 8002dd4:	b084      	sub	sp, #16
 8002dd6:	af00      	add	r7, sp, #0
 8002dd8:	4603      	mov	r3, r0
 8002dda:	80fb      	strh	r3, [r7, #6]
  uint8_t ctrl = 0x00;
 8002ddc:	2300      	movs	r3, #0
 8002dde:	73fb      	strb	r3, [r7, #15]
  uint8_t tmp;

  /* Read CTRL1_XL */
  tmp = SENSOR_IO_Read(LSM6DSL_ACC_GYRO_I2C_ADDRESS_LOW, LSM6DSL_ACC_GYRO_CTRL1_XL);
 8002de0:	2110      	movs	r1, #16
 8002de2:	20d4      	movs	r0, #212	; 0xd4
 8002de4:	f7ff faf4 	bl	80023d0 <SENSOR_IO_Read>
 8002de8:	4603      	mov	r3, r0
 8002dea:	73bb      	strb	r3, [r7, #14]

  /* Write value to ACC MEMS CTRL1_XL register: FS and Data Rate */
  ctrl = (uint8_t) InitStruct;
 8002dec:	88fb      	ldrh	r3, [r7, #6]
 8002dee:	73fb      	strb	r3, [r7, #15]
  tmp &= ~(0xFC);
 8002df0:	7bbb      	ldrb	r3, [r7, #14]
 8002df2:	f003 0303 	and.w	r3, r3, #3
 8002df6:	73bb      	strb	r3, [r7, #14]
  tmp |= ctrl;
 8002df8:	7bba      	ldrb	r2, [r7, #14]
 8002dfa:	7bfb      	ldrb	r3, [r7, #15]
 8002dfc:	4313      	orrs	r3, r2
 8002dfe:	73bb      	strb	r3, [r7, #14]
  SENSOR_IO_Write(LSM6DSL_ACC_GYRO_I2C_ADDRESS_LOW, LSM6DSL_ACC_GYRO_CTRL1_XL, tmp);
 8002e00:	7bbb      	ldrb	r3, [r7, #14]
 8002e02:	461a      	mov	r2, r3
 8002e04:	2110      	movs	r1, #16
 8002e06:	20d4      	movs	r0, #212	; 0xd4
 8002e08:	f7ff fac8 	bl	800239c <SENSOR_IO_Write>

  /* Read CTRL3_C */
  tmp = SENSOR_IO_Read(LSM6DSL_ACC_GYRO_I2C_ADDRESS_LOW, LSM6DSL_ACC_GYRO_CTRL3_C);
 8002e0c:	2112      	movs	r1, #18
 8002e0e:	20d4      	movs	r0, #212	; 0xd4
 8002e10:	f7ff fade 	bl	80023d0 <SENSOR_IO_Read>
 8002e14:	4603      	mov	r3, r0
 8002e16:	73bb      	strb	r3, [r7, #14]

  /* Write value to ACC MEMS CTRL3_C register: BDU and Auto-increment */
  ctrl = ((uint8_t) (InitStruct >> 8));
 8002e18:	88fb      	ldrh	r3, [r7, #6]
 8002e1a:	0a1b      	lsrs	r3, r3, #8
 8002e1c:	b29b      	uxth	r3, r3
 8002e1e:	73fb      	strb	r3, [r7, #15]
  tmp &= ~(0x44);
 8002e20:	7bbb      	ldrb	r3, [r7, #14]
 8002e22:	f023 0344 	bic.w	r3, r3, #68	; 0x44
 8002e26:	73bb      	strb	r3, [r7, #14]
  tmp |= ctrl; 
 8002e28:	7bba      	ldrb	r2, [r7, #14]
 8002e2a:	7bfb      	ldrb	r3, [r7, #15]
 8002e2c:	4313      	orrs	r3, r2
 8002e2e:	73bb      	strb	r3, [r7, #14]
  SENSOR_IO_Write(LSM6DSL_ACC_GYRO_I2C_ADDRESS_LOW, LSM6DSL_ACC_GYRO_CTRL3_C, tmp);
 8002e30:	7bbb      	ldrb	r3, [r7, #14]
 8002e32:	461a      	mov	r2, r3
 8002e34:	2112      	movs	r1, #18
 8002e36:	20d4      	movs	r0, #212	; 0xd4
 8002e38:	f7ff fab0 	bl	800239c <SENSOR_IO_Write>
}
 8002e3c:	bf00      	nop
 8002e3e:	3710      	adds	r7, #16
 8002e40:	46bd      	mov	sp, r7
 8002e42:	bd80      	pop	{r7, pc}

08002e44 <LSM6DSL_AccDeInit>:

/**
  * @brief  LSM6DSL Accelerometer De-initialization.
  */
void LSM6DSL_AccDeInit(void)
{
 8002e44:	b580      	push	{r7, lr}
 8002e46:	b082      	sub	sp, #8
 8002e48:	af00      	add	r7, sp, #0
  uint8_t ctrl = 0x00;
 8002e4a:	2300      	movs	r3, #0
 8002e4c:	71fb      	strb	r3, [r7, #7]
  
  /* Read control register 1 value */
  ctrl = SENSOR_IO_Read(LSM6DSL_ACC_GYRO_I2C_ADDRESS_LOW, LSM6DSL_ACC_GYRO_CTRL1_XL);
 8002e4e:	2110      	movs	r1, #16
 8002e50:	20d4      	movs	r0, #212	; 0xd4
 8002e52:	f7ff fabd 	bl	80023d0 <SENSOR_IO_Read>
 8002e56:	4603      	mov	r3, r0
 8002e58:	71fb      	strb	r3, [r7, #7]

  /* Clear ODR bits */
  ctrl &= ~(LSM6DSL_ODR_BITPOSITION);
 8002e5a:	79fb      	ldrb	r3, [r7, #7]
 8002e5c:	f003 030f 	and.w	r3, r3, #15
 8002e60:	71fb      	strb	r3, [r7, #7]

  /* Set Power down */
  ctrl |= LSM6DSL_ODR_POWER_DOWN;
  
  /* write back control register */
  SENSOR_IO_Write(LSM6DSL_ACC_GYRO_I2C_ADDRESS_LOW, LSM6DSL_ACC_GYRO_CTRL1_XL, ctrl);
 8002e62:	79fb      	ldrb	r3, [r7, #7]
 8002e64:	461a      	mov	r2, r3
 8002e66:	2110      	movs	r1, #16
 8002e68:	20d4      	movs	r0, #212	; 0xd4
 8002e6a:	f7ff fa97 	bl	800239c <SENSOR_IO_Write>
}
 8002e6e:	bf00      	nop
 8002e70:	3708      	adds	r7, #8
 8002e72:	46bd      	mov	sp, r7
 8002e74:	bd80      	pop	{r7, pc}

08002e76 <LSM6DSL_AccReadID>:
/**
  * @brief  Read LSM6DSL ID.
  * @retval ID 
  */
uint8_t LSM6DSL_AccReadID(void)
{  
 8002e76:	b580      	push	{r7, lr}
 8002e78:	af00      	add	r7, sp, #0
  /* IO interface initialization */
  SENSOR_IO_Init();
 8002e7a:	f7ff fa85 	bl	8002388 <SENSOR_IO_Init>
  /* Read value at Who am I register address */
  return (SENSOR_IO_Read(LSM6DSL_ACC_GYRO_I2C_ADDRESS_LOW, LSM6DSL_ACC_GYRO_WHO_AM_I_REG));
 8002e7e:	210f      	movs	r1, #15
 8002e80:	20d4      	movs	r0, #212	; 0xd4
 8002e82:	f7ff faa5 	bl	80023d0 <SENSOR_IO_Read>
 8002e86:	4603      	mov	r3, r0
}
 8002e88:	4618      	mov	r0, r3
 8002e8a:	bd80      	pop	{r7, pc}

08002e8c <LSM6DSL_AccLowPower>:
/**
  * @brief  Set/Unset Accelerometer in low power mode.
  * @param  status 0 means disable Low Power Mode, otherwise Low Power Mode is enabled
  */
void LSM6DSL_AccLowPower(uint16_t status)
{
 8002e8c:	b580      	push	{r7, lr}
 8002e8e:	b084      	sub	sp, #16
 8002e90:	af00      	add	r7, sp, #0
 8002e92:	4603      	mov	r3, r0
 8002e94:	80fb      	strh	r3, [r7, #6]
  uint8_t ctrl = 0x00;
 8002e96:	2300      	movs	r3, #0
 8002e98:	73fb      	strb	r3, [r7, #15]
  
  /* Read CTRL6_C value */
  ctrl = SENSOR_IO_Read(LSM6DSL_ACC_GYRO_I2C_ADDRESS_LOW, LSM6DSL_ACC_GYRO_CTRL6_C);
 8002e9a:	2115      	movs	r1, #21
 8002e9c:	20d4      	movs	r0, #212	; 0xd4
 8002e9e:	f7ff fa97 	bl	80023d0 <SENSOR_IO_Read>
 8002ea2:	4603      	mov	r3, r0
 8002ea4:	73fb      	strb	r3, [r7, #15]

  /* Clear Low Power Mode bit */
  ctrl &= ~(0x10);
 8002ea6:	7bfb      	ldrb	r3, [r7, #15]
 8002ea8:	f023 0310 	bic.w	r3, r3, #16
 8002eac:	73fb      	strb	r3, [r7, #15]

  /* Set Low Power Mode */
  if(status)
 8002eae:	88fb      	ldrh	r3, [r7, #6]
 8002eb0:	2b00      	cmp	r3, #0
 8002eb2:	d003      	beq.n	8002ebc <LSM6DSL_AccLowPower+0x30>
  {
    ctrl |= LSM6DSL_ACC_GYRO_LP_XL_ENABLED;
 8002eb4:	7bfb      	ldrb	r3, [r7, #15]
 8002eb6:	f043 0310 	orr.w	r3, r3, #16
 8002eba:	73fb      	strb	r3, [r7, #15]
  {
    ctrl |= LSM6DSL_ACC_GYRO_LP_XL_DISABLED;
  }
  
  /* write back control register */
  SENSOR_IO_Write(LSM6DSL_ACC_GYRO_I2C_ADDRESS_LOW, LSM6DSL_ACC_GYRO_CTRL6_C, ctrl);
 8002ebc:	7bfb      	ldrb	r3, [r7, #15]
 8002ebe:	461a      	mov	r2, r3
 8002ec0:	2115      	movs	r1, #21
 8002ec2:	20d4      	movs	r0, #212	; 0xd4
 8002ec4:	f7ff fa6a 	bl	800239c <SENSOR_IO_Write>
}
 8002ec8:	bf00      	nop
 8002eca:	3710      	adds	r7, #16
 8002ecc:	46bd      	mov	sp, r7
 8002ece:	bd80      	pop	{r7, pc}

08002ed0 <LSM6DSL_AccReadXYZ>:
/**
  * @brief  Read X, Y & Z Acceleration values 
  * @param  pData: Data out pointer
  */
void LSM6DSL_AccReadXYZ(int16_t* pData)
{
 8002ed0:	b580      	push	{r7, lr}
 8002ed2:	b088      	sub	sp, #32
 8002ed4:	af00      	add	r7, sp, #0
 8002ed6:	6078      	str	r0, [r7, #4]
  int16_t pnRawData[3];
  uint8_t ctrlx= 0;
 8002ed8:	2300      	movs	r3, #0
 8002eda:	75fb      	strb	r3, [r7, #23]
  uint8_t buffer[6];
  uint8_t i = 0;
 8002edc:	2300      	movs	r3, #0
 8002ede:	77fb      	strb	r3, [r7, #31]
  float sensitivity = 0;
 8002ee0:	f04f 0300 	mov.w	r3, #0
 8002ee4:	61bb      	str	r3, [r7, #24]
  
  /* Read the acceleration control register content */
  ctrlx = SENSOR_IO_Read(LSM6DSL_ACC_GYRO_I2C_ADDRESS_LOW, LSM6DSL_ACC_GYRO_CTRL1_XL);
 8002ee6:	2110      	movs	r1, #16
 8002ee8:	20d4      	movs	r0, #212	; 0xd4
 8002eea:	f7ff fa71 	bl	80023d0 <SENSOR_IO_Read>
 8002eee:	4603      	mov	r3, r0
 8002ef0:	75fb      	strb	r3, [r7, #23]
  
  /* Read output register X, Y & Z acceleration */
  SENSOR_IO_ReadMultiple(LSM6DSL_ACC_GYRO_I2C_ADDRESS_LOW, LSM6DSL_ACC_GYRO_OUTX_L_XL, buffer, 6);
 8002ef2:	f107 0208 	add.w	r2, r7, #8
 8002ef6:	2306      	movs	r3, #6
 8002ef8:	2128      	movs	r1, #40	; 0x28
 8002efa:	20d4      	movs	r0, #212	; 0xd4
 8002efc:	f7ff fa86 	bl	800240c <SENSOR_IO_ReadMultiple>
  
  for(i=0; i<3; i++)
 8002f00:	2300      	movs	r3, #0
 8002f02:	77fb      	strb	r3, [r7, #31]
 8002f04:	e01c      	b.n	8002f40 <LSM6DSL_AccReadXYZ+0x70>
  {
    pnRawData[i]=((((uint16_t)buffer[2*i+1]) << 8) + (uint16_t)buffer[2*i]);
 8002f06:	7ffb      	ldrb	r3, [r7, #31]
 8002f08:	005b      	lsls	r3, r3, #1
 8002f0a:	3301      	adds	r3, #1
 8002f0c:	3320      	adds	r3, #32
 8002f0e:	443b      	add	r3, r7
 8002f10:	f813 3c18 	ldrb.w	r3, [r3, #-24]
 8002f14:	b29b      	uxth	r3, r3
 8002f16:	021b      	lsls	r3, r3, #8
 8002f18:	b29a      	uxth	r2, r3
 8002f1a:	7ffb      	ldrb	r3, [r7, #31]
 8002f1c:	005b      	lsls	r3, r3, #1
 8002f1e:	3320      	adds	r3, #32
 8002f20:	443b      	add	r3, r7
 8002f22:	f813 3c18 	ldrb.w	r3, [r3, #-24]
 8002f26:	b29b      	uxth	r3, r3
 8002f28:	4413      	add	r3, r2
 8002f2a:	b29a      	uxth	r2, r3
 8002f2c:	7ffb      	ldrb	r3, [r7, #31]
 8002f2e:	b212      	sxth	r2, r2
 8002f30:	005b      	lsls	r3, r3, #1
 8002f32:	3320      	adds	r3, #32
 8002f34:	443b      	add	r3, r7
 8002f36:	f823 2c10 	strh.w	r2, [r3, #-16]
  for(i=0; i<3; i++)
 8002f3a:	7ffb      	ldrb	r3, [r7, #31]
 8002f3c:	3301      	adds	r3, #1
 8002f3e:	77fb      	strb	r3, [r7, #31]
 8002f40:	7ffb      	ldrb	r3, [r7, #31]
 8002f42:	2b02      	cmp	r3, #2
 8002f44:	d9df      	bls.n	8002f06 <LSM6DSL_AccReadXYZ+0x36>
  }
  
  /* Normal mode */
  /* Switch the sensitivity value set in the CRTL1_XL */
  switch(ctrlx & 0x0C)
 8002f46:	7dfb      	ldrb	r3, [r7, #23]
 8002f48:	f003 030c 	and.w	r3, r3, #12
 8002f4c:	2b0c      	cmp	r3, #12
 8002f4e:	d829      	bhi.n	8002fa4 <LSM6DSL_AccReadXYZ+0xd4>
 8002f50:	a201      	add	r2, pc, #4	; (adr r2, 8002f58 <LSM6DSL_AccReadXYZ+0x88>)
 8002f52:	f852 f023 	ldr.w	pc, [r2, r3, lsl #2]
 8002f56:	bf00      	nop
 8002f58:	08002f8d 	.word	0x08002f8d
 8002f5c:	08002fa5 	.word	0x08002fa5
 8002f60:	08002fa5 	.word	0x08002fa5
 8002f64:	08002fa5 	.word	0x08002fa5
 8002f68:	08002f9f 	.word	0x08002f9f
 8002f6c:	08002fa5 	.word	0x08002fa5
 8002f70:	08002fa5 	.word	0x08002fa5
 8002f74:	08002fa5 	.word	0x08002fa5
 8002f78:	08002f93 	.word	0x08002f93
 8002f7c:	08002fa5 	.word	0x08002fa5
 8002f80:	08002fa5 	.word	0x08002fa5
 8002f84:	08002fa5 	.word	0x08002fa5
 8002f88:	08002f99 	.word	0x08002f99
  {
  case LSM6DSL_ACC_FULLSCALE_2G:
    sensitivity = LSM6DSL_ACC_SENSITIVITY_2G;
 8002f8c:	4b18      	ldr	r3, [pc, #96]	; (8002ff0 <LSM6DSL_AccReadXYZ+0x120>)
 8002f8e:	61bb      	str	r3, [r7, #24]
    break;
 8002f90:	e008      	b.n	8002fa4 <LSM6DSL_AccReadXYZ+0xd4>
  case LSM6DSL_ACC_FULLSCALE_4G:
    sensitivity = LSM6DSL_ACC_SENSITIVITY_4G;
 8002f92:	4b18      	ldr	r3, [pc, #96]	; (8002ff4 <LSM6DSL_AccReadXYZ+0x124>)
 8002f94:	61bb      	str	r3, [r7, #24]
    break;
 8002f96:	e005      	b.n	8002fa4 <LSM6DSL_AccReadXYZ+0xd4>
  case LSM6DSL_ACC_FULLSCALE_8G:
    sensitivity = LSM6DSL_ACC_SENSITIVITY_8G;
 8002f98:	4b17      	ldr	r3, [pc, #92]	; (8002ff8 <LSM6DSL_AccReadXYZ+0x128>)
 8002f9a:	61bb      	str	r3, [r7, #24]
    break;
 8002f9c:	e002      	b.n	8002fa4 <LSM6DSL_AccReadXYZ+0xd4>
  case LSM6DSL_ACC_FULLSCALE_16G:
    sensitivity = LSM6DSL_ACC_SENSITIVITY_16G;
 8002f9e:	4b17      	ldr	r3, [pc, #92]	; (8002ffc <LSM6DSL_AccReadXYZ+0x12c>)
 8002fa0:	61bb      	str	r3, [r7, #24]
    break;    
 8002fa2:	bf00      	nop
  }
  
  /* Obtain the mg value for the three axis */
  for(i=0; i<3; i++)
 8002fa4:	2300      	movs	r3, #0
 8002fa6:	77fb      	strb	r3, [r7, #31]
 8002fa8:	e01a      	b.n	8002fe0 <LSM6DSL_AccReadXYZ+0x110>
  {
    pData[i]=( int16_t )(pnRawData[i] * sensitivity);
 8002faa:	7ffb      	ldrb	r3, [r7, #31]
 8002fac:	005b      	lsls	r3, r3, #1
 8002fae:	3320      	adds	r3, #32
 8002fb0:	443b      	add	r3, r7
 8002fb2:	f933 3c10 	ldrsh.w	r3, [r3, #-16]
 8002fb6:	ee07 3a90 	vmov	s15, r3
 8002fba:	eeb8 7ae7 	vcvt.f32.s32	s14, s15
 8002fbe:	edd7 7a06 	vldr	s15, [r7, #24]
 8002fc2:	ee67 7a27 	vmul.f32	s15, s14, s15
 8002fc6:	7ffb      	ldrb	r3, [r7, #31]
 8002fc8:	005b      	lsls	r3, r3, #1
 8002fca:	687a      	ldr	r2, [r7, #4]
 8002fcc:	4413      	add	r3, r2
 8002fce:	eefd 7ae7 	vcvt.s32.f32	s15, s15
 8002fd2:	ee17 2a90 	vmov	r2, s15
 8002fd6:	b212      	sxth	r2, r2
 8002fd8:	801a      	strh	r2, [r3, #0]
  for(i=0; i<3; i++)
 8002fda:	7ffb      	ldrb	r3, [r7, #31]
 8002fdc:	3301      	adds	r3, #1
 8002fde:	77fb      	strb	r3, [r7, #31]
 8002fe0:	7ffb      	ldrb	r3, [r7, #31]
 8002fe2:	2b02      	cmp	r3, #2
 8002fe4:	d9e1      	bls.n	8002faa <LSM6DSL_AccReadXYZ+0xda>
  }
}
 8002fe6:	bf00      	nop
 8002fe8:	bf00      	nop
 8002fea:	3720      	adds	r7, #32
 8002fec:	46bd      	mov	sp, r7
 8002fee:	bd80      	pop	{r7, pc}
 8002ff0:	3d79db23 	.word	0x3d79db23
 8002ff4:	3df9db23 	.word	0x3df9db23
 8002ff8:	3e79db23 	.word	0x3e79db23
 8002ffc:	3ef9db23 	.word	0x3ef9db23

08003000 <LSM6DSL_GyroInit>:
  * @brief  Set LSM6DSL Gyroscope Initialization.
  * @param  InitStruct: pointer to a LSM6DSL_InitTypeDef structure 
  *         that contains the configuration setting for the LSM6DSL.
  */
void LSM6DSL_GyroInit(uint16_t InitStruct)
{  
 8003000:	b580      	push	{r7, lr}
 8003002:	b084      	sub	sp, #16
 8003004:	af00      	add	r7, sp, #0
 8003006:	4603      	mov	r3, r0
 8003008:	80fb      	strh	r3, [r7, #6]
  uint8_t ctrl = 0x00;
 800300a:	2300      	movs	r3, #0
 800300c:	73fb      	strb	r3, [r7, #15]
  uint8_t tmp;

  /* Read CTRL2_G */
  tmp = SENSOR_IO_Read(LSM6DSL_ACC_GYRO_I2C_ADDRESS_LOW, LSM6DSL_ACC_GYRO_CTRL2_G);
 800300e:	2111      	movs	r1, #17
 8003010:	20d4      	movs	r0, #212	; 0xd4
 8003012:	f7ff f9dd 	bl	80023d0 <SENSOR_IO_Read>
 8003016:	4603      	mov	r3, r0
 8003018:	73bb      	strb	r3, [r7, #14]

  /* Write value to GYRO MEMS CTRL2_G register: FS and Data Rate */
  ctrl = (uint8_t) InitStruct;
 800301a:	88fb      	ldrh	r3, [r7, #6]
 800301c:	73fb      	strb	r3, [r7, #15]
  tmp &= ~(0xFC);
 800301e:	7bbb      	ldrb	r3, [r7, #14]
 8003020:	f003 0303 	and.w	r3, r3, #3
 8003024:	73bb      	strb	r3, [r7, #14]
  tmp |= ctrl;
 8003026:	7bba      	ldrb	r2, [r7, #14]
 8003028:	7bfb      	ldrb	r3, [r7, #15]
 800302a:	4313      	orrs	r3, r2
 800302c:	73bb      	strb	r3, [r7, #14]
  SENSOR_IO_Write(LSM6DSL_ACC_GYRO_I2C_ADDRESS_LOW, LSM6DSL_ACC_GYRO_CTRL2_G, tmp);
 800302e:	7bbb      	ldrb	r3, [r7, #14]
 8003030:	461a      	mov	r2, r3
 8003032:	2111      	movs	r1, #17
 8003034:	20d4      	movs	r0, #212	; 0xd4
 8003036:	f7ff f9b1 	bl	800239c <SENSOR_IO_Write>

  /* Read CTRL3_C */
  tmp = SENSOR_IO_Read(LSM6DSL_ACC_GYRO_I2C_ADDRESS_LOW, LSM6DSL_ACC_GYRO_CTRL3_C);
 800303a:	2112      	movs	r1, #18
 800303c:	20d4      	movs	r0, #212	; 0xd4
 800303e:	f7ff f9c7 	bl	80023d0 <SENSOR_IO_Read>
 8003042:	4603      	mov	r3, r0
 8003044:	73bb      	strb	r3, [r7, #14]

  /* Write value to GYRO MEMS CTRL3_C register: BDU and Auto-increment */
  ctrl = ((uint8_t) (InitStruct >> 8));
 8003046:	88fb      	ldrh	r3, [r7, #6]
 8003048:	0a1b      	lsrs	r3, r3, #8
 800304a:	b29b      	uxth	r3, r3
 800304c:	73fb      	strb	r3, [r7, #15]
  tmp &= ~(0x44);
 800304e:	7bbb      	ldrb	r3, [r7, #14]
 8003050:	f023 0344 	bic.w	r3, r3, #68	; 0x44
 8003054:	73bb      	strb	r3, [r7, #14]
  tmp |= ctrl; 
 8003056:	7bba      	ldrb	r2, [r7, #14]
 8003058:	7bfb      	ldrb	r3, [r7, #15]
 800305a:	4313      	orrs	r3, r2
 800305c:	73bb      	strb	r3, [r7, #14]
  SENSOR_IO_Write(LSM6DSL_ACC_GYRO_I2C_ADDRESS_LOW, LSM6DSL_ACC_GYRO_CTRL3_C, tmp);
 800305e:	7bbb      	ldrb	r3, [r7, #14]
 8003060:	461a      	mov	r2, r3
 8003062:	2112      	movs	r1, #18
 8003064:	20d4      	movs	r0, #212	; 0xd4
 8003066:	f7ff f999 	bl	800239c <SENSOR_IO_Write>
}
 800306a:	bf00      	nop
 800306c:	3710      	adds	r7, #16
 800306e:	46bd      	mov	sp, r7
 8003070:	bd80      	pop	{r7, pc}

08003072 <LSM6DSL_GyroDeInit>:

/**
  * @brief LSM6DSL Gyroscope De-initialization
  */
void LSM6DSL_GyroDeInit(void)
{
 8003072:	b580      	push	{r7, lr}
 8003074:	b082      	sub	sp, #8
 8003076:	af00      	add	r7, sp, #0
  uint8_t ctrl = 0x00;
 8003078:	2300      	movs	r3, #0
 800307a:	71fb      	strb	r3, [r7, #7]
  
  /* Read control register 1 value */
  ctrl = SENSOR_IO_Read(LSM6DSL_ACC_GYRO_I2C_ADDRESS_LOW, LSM6DSL_ACC_GYRO_CTRL2_G);
 800307c:	2111      	movs	r1, #17
 800307e:	20d4      	movs	r0, #212	; 0xd4
 8003080:	f7ff f9a6 	bl	80023d0 <SENSOR_IO_Read>
 8003084:	4603      	mov	r3, r0
 8003086:	71fb      	strb	r3, [r7, #7]

  /* Clear ODR bits */
  ctrl &= ~(LSM6DSL_ODR_BITPOSITION);
 8003088:	79fb      	ldrb	r3, [r7, #7]
 800308a:	f003 030f 	and.w	r3, r3, #15
 800308e:	71fb      	strb	r3, [r7, #7]

  /* Set Power down */
  ctrl |= LSM6DSL_ODR_POWER_DOWN;
  
  /* write back control register */
  SENSOR_IO_Write(LSM6DSL_ACC_GYRO_I2C_ADDRESS_LOW, LSM6DSL_ACC_GYRO_CTRL2_G, ctrl);
 8003090:	79fb      	ldrb	r3, [r7, #7]
 8003092:	461a      	mov	r2, r3
 8003094:	2111      	movs	r1, #17
 8003096:	20d4      	movs	r0, #212	; 0xd4
 8003098:	f7ff f980 	bl	800239c <SENSOR_IO_Write>
}
 800309c:	bf00      	nop
 800309e:	3708      	adds	r7, #8
 80030a0:	46bd      	mov	sp, r7
 80030a2:	bd80      	pop	{r7, pc}

080030a4 <LSM6DSL_GyroReadID>:
/**
  * @brief  Read ID address of LSM6DSL
  * @retval ID 
  */
uint8_t LSM6DSL_GyroReadID(void)
{
 80030a4:	b580      	push	{r7, lr}
 80030a6:	af00      	add	r7, sp, #0
  /* IO interface initialization */
  SENSOR_IO_Init();  
 80030a8:	f7ff f96e 	bl	8002388 <SENSOR_IO_Init>
  /* Read value at Who am I register address */
  return SENSOR_IO_Read(LSM6DSL_ACC_GYRO_I2C_ADDRESS_LOW, LSM6DSL_ACC_GYRO_WHO_AM_I_REG);
 80030ac:	210f      	movs	r1, #15
 80030ae:	20d4      	movs	r0, #212	; 0xd4
 80030b0:	f7ff f98e 	bl	80023d0 <SENSOR_IO_Read>
 80030b4:	4603      	mov	r3, r0
}
 80030b6:	4618      	mov	r0, r3
 80030b8:	bd80      	pop	{r7, pc}

080030ba <LSM6DSL_GyroLowPower>:
/**
  * @brief Set/Unset LSM6DSL Gyroscope in low power mode
  * @param  status 0 means disable Low Power Mode, otherwise Low Power Mode is enabled 
  */
void LSM6DSL_GyroLowPower(uint16_t status)
{  
 80030ba:	b580      	push	{r7, lr}
 80030bc:	b084      	sub	sp, #16
 80030be:	af00      	add	r7, sp, #0
 80030c0:	4603      	mov	r3, r0
 80030c2:	80fb      	strh	r3, [r7, #6]
  uint8_t ctrl = 0x00;
 80030c4:	2300      	movs	r3, #0
 80030c6:	73fb      	strb	r3, [r7, #15]
  
  /* Read CTRL7_G value */
  ctrl = SENSOR_IO_Read(LSM6DSL_ACC_GYRO_I2C_ADDRESS_LOW, LSM6DSL_ACC_GYRO_CTRL7_G);
 80030c8:	2116      	movs	r1, #22
 80030ca:	20d4      	movs	r0, #212	; 0xd4
 80030cc:	f7ff f980 	bl	80023d0 <SENSOR_IO_Read>
 80030d0:	4603      	mov	r3, r0
 80030d2:	73fb      	strb	r3, [r7, #15]

  /* Clear Low Power Mode bit */
  ctrl &= ~(0x80);
 80030d4:	7bfb      	ldrb	r3, [r7, #15]
 80030d6:	f003 037f 	and.w	r3, r3, #127	; 0x7f
 80030da:	73fb      	strb	r3, [r7, #15]

  /* Set Low Power Mode */
  if(status)
 80030dc:	88fb      	ldrh	r3, [r7, #6]
 80030de:	2b00      	cmp	r3, #0
 80030e0:	d003      	beq.n	80030ea <LSM6DSL_GyroLowPower+0x30>
  {
    ctrl |= LSM6DSL_ACC_GYRO_LP_G_ENABLED;
 80030e2:	7bfb      	ldrb	r3, [r7, #15]
 80030e4:	f063 037f 	orn	r3, r3, #127	; 0x7f
 80030e8:	73fb      	strb	r3, [r7, #15]
  {
    ctrl |= LSM6DSL_ACC_GYRO_LP_G_DISABLED;
  }
  
  /* write back control register */
  SENSOR_IO_Write(LSM6DSL_ACC_GYRO_I2C_ADDRESS_LOW, LSM6DSL_ACC_GYRO_CTRL7_G, ctrl);
 80030ea:	7bfb      	ldrb	r3, [r7, #15]
 80030ec:	461a      	mov	r2, r3
 80030ee:	2116      	movs	r1, #22
 80030f0:	20d4      	movs	r0, #212	; 0xd4
 80030f2:	f7ff f953 	bl	800239c <SENSOR_IO_Write>
}
 80030f6:	bf00      	nop
 80030f8:	3710      	adds	r7, #16
 80030fa:	46bd      	mov	sp, r7
 80030fc:	bd80      	pop	{r7, pc}
	...

08003100 <LSM6DSL_GyroReadXYZAngRate>:
/**
* @brief  Calculate the LSM6DSL angular data.
* @param  pfData: Data out pointer
*/
void LSM6DSL_GyroReadXYZAngRate(float *pfData)
{
 8003100:	b580      	push	{r7, lr}
 8003102:	b088      	sub	sp, #32
 8003104:	af00      	add	r7, sp, #0
 8003106:	6078      	str	r0, [r7, #4]
  int16_t pnRawData[3];
  uint8_t ctrlg= 0;
 8003108:	2300      	movs	r3, #0
 800310a:	75fb      	strb	r3, [r7, #23]
  uint8_t buffer[6];
  uint8_t i = 0;
 800310c:	2300      	movs	r3, #0
 800310e:	77fb      	strb	r3, [r7, #31]
  float sensitivity = 0;
 8003110:	f04f 0300 	mov.w	r3, #0
 8003114:	61bb      	str	r3, [r7, #24]
  
  /* Read the gyro control register content */
  ctrlg = SENSOR_IO_Read(LSM6DSL_ACC_GYRO_I2C_ADDRESS_LOW, LSM6DSL_ACC_GYRO_CTRL2_G);
 8003116:	2111      	movs	r1, #17
 8003118:	20d4      	movs	r0, #212	; 0xd4
 800311a:	f7ff f959 	bl	80023d0 <SENSOR_IO_Read>
 800311e:	4603      	mov	r3, r0
 8003120:	75fb      	strb	r3, [r7, #23]
  
  /* Read output register X, Y & Z acceleration */
  SENSOR_IO_ReadMultiple(LSM6DSL_ACC_GYRO_I2C_ADDRESS_LOW, LSM6DSL_ACC_GYRO_OUTX_L_G, buffer, 6);
 8003122:	f107 0208 	add.w	r2, r7, #8
 8003126:	2306      	movs	r3, #6
 8003128:	2122      	movs	r1, #34	; 0x22
 800312a:	20d4      	movs	r0, #212	; 0xd4
 800312c:	f7ff f96e 	bl	800240c <SENSOR_IO_ReadMultiple>
  
  for(i=0; i<3; i++)
 8003130:	2300      	movs	r3, #0
 8003132:	77fb      	strb	r3, [r7, #31]
 8003134:	e01c      	b.n	8003170 <LSM6DSL_GyroReadXYZAngRate+0x70>
  {
    pnRawData[i]=((((uint16_t)buffer[2*i+1]) << 8) + (uint16_t)buffer[2*i]);
 8003136:	7ffb      	ldrb	r3, [r7, #31]
 8003138:	005b      	lsls	r3, r3, #1
 800313a:	3301      	adds	r3, #1
 800313c:	3320      	adds	r3, #32
 800313e:	443b      	add	r3, r7
 8003140:	f813 3c18 	ldrb.w	r3, [r3, #-24]
 8003144:	b29b      	uxth	r3, r3
 8003146:	021b      	lsls	r3, r3, #8
 8003148:	b29a      	uxth	r2, r3
 800314a:	7ffb      	ldrb	r3, [r7, #31]
 800314c:	005b      	lsls	r3, r3, #1
 800314e:	3320      	adds	r3, #32
 8003150:	443b      	add	r3, r7
 8003152:	f813 3c18 	ldrb.w	r3, [r3, #-24]
 8003156:	b29b      	uxth	r3, r3
 8003158:	4413      	add	r3, r2
 800315a:	b29a      	uxth	r2, r3
 800315c:	7ffb      	ldrb	r3, [r7, #31]
 800315e:	b212      	sxth	r2, r2
 8003160:	005b      	lsls	r3, r3, #1
 8003162:	3320      	adds	r3, #32
 8003164:	443b      	add	r3, r7
 8003166:	f823 2c10 	strh.w	r2, [r3, #-16]
  for(i=0; i<3; i++)
 800316a:	7ffb      	ldrb	r3, [r7, #31]
 800316c:	3301      	adds	r3, #1
 800316e:	77fb      	strb	r3, [r7, #31]
 8003170:	7ffb      	ldrb	r3, [r7, #31]
 8003172:	2b02      	cmp	r3, #2
 8003174:	d9df      	bls.n	8003136 <LSM6DSL_GyroReadXYZAngRate+0x36>
  }
  
  /* Normal mode */
  /* Switch the sensitivity value set in the CRTL2_G */
  switch(ctrlg & 0x0C)
 8003176:	7dfb      	ldrb	r3, [r7, #23]
 8003178:	f003 030c 	and.w	r3, r3, #12
 800317c:	2b0c      	cmp	r3, #12
 800317e:	d829      	bhi.n	80031d4 <LSM6DSL_GyroReadXYZAngRate+0xd4>
 8003180:	a201      	add	r2, pc, #4	; (adr r2, 8003188 <LSM6DSL_GyroReadXYZAngRate+0x88>)
 8003182:	f852 f023 	ldr.w	pc, [r2, r3, lsl #2]
 8003186:	bf00      	nop
 8003188:	080031bd 	.word	0x080031bd
 800318c:	080031d5 	.word	0x080031d5
 8003190:	080031d5 	.word	0x080031d5
 8003194:	080031d5 	.word	0x080031d5
 8003198:	080031c3 	.word	0x080031c3
 800319c:	080031d5 	.word	0x080031d5
 80031a0:	080031d5 	.word	0x080031d5
 80031a4:	080031d5 	.word	0x080031d5
 80031a8:	080031c9 	.word	0x080031c9
 80031ac:	080031d5 	.word	0x080031d5
 80031b0:	080031d5 	.word	0x080031d5
 80031b4:	080031d5 	.word	0x080031d5
 80031b8:	080031cf 	.word	0x080031cf
  {
  case LSM6DSL_GYRO_FS_245:
    sensitivity = LSM6DSL_GYRO_SENSITIVITY_245DPS;
 80031bc:	4b16      	ldr	r3, [pc, #88]	; (8003218 <LSM6DSL_GyroReadXYZAngRate+0x118>)
 80031be:	61bb      	str	r3, [r7, #24]
    break;
 80031c0:	e008      	b.n	80031d4 <LSM6DSL_GyroReadXYZAngRate+0xd4>
  case LSM6DSL_GYRO_FS_500:
    sensitivity = LSM6DSL_GYRO_SENSITIVITY_500DPS;
 80031c2:	4b16      	ldr	r3, [pc, #88]	; (800321c <LSM6DSL_GyroReadXYZAngRate+0x11c>)
 80031c4:	61bb      	str	r3, [r7, #24]
    break;
 80031c6:	e005      	b.n	80031d4 <LSM6DSL_GyroReadXYZAngRate+0xd4>
  case LSM6DSL_GYRO_FS_1000:
    sensitivity = LSM6DSL_GYRO_SENSITIVITY_1000DPS;
 80031c8:	4b15      	ldr	r3, [pc, #84]	; (8003220 <LSM6DSL_GyroReadXYZAngRate+0x120>)
 80031ca:	61bb      	str	r3, [r7, #24]
    break;
 80031cc:	e002      	b.n	80031d4 <LSM6DSL_GyroReadXYZAngRate+0xd4>
  case LSM6DSL_GYRO_FS_2000:
    sensitivity = LSM6DSL_GYRO_SENSITIVITY_2000DPS;
 80031ce:	4b15      	ldr	r3, [pc, #84]	; (8003224 <LSM6DSL_GyroReadXYZAngRate+0x124>)
 80031d0:	61bb      	str	r3, [r7, #24]
    break;    
 80031d2:	bf00      	nop
  }
  
  /* Obtain the mg value for the three axis */
  for(i=0; i<3; i++)
 80031d4:	2300      	movs	r3, #0
 80031d6:	77fb      	strb	r3, [r7, #31]
 80031d8:	e016      	b.n	8003208 <LSM6DSL_GyroReadXYZAngRate+0x108>
  {
    pfData[i]=( float )(pnRawData[i] * sensitivity);
 80031da:	7ffb      	ldrb	r3, [r7, #31]
 80031dc:	005b      	lsls	r3, r3, #1
 80031de:	3320      	adds	r3, #32
 80031e0:	443b      	add	r3, r7
 80031e2:	f933 3c10 	ldrsh.w	r3, [r3, #-16]
 80031e6:	ee07 3a90 	vmov	s15, r3
 80031ea:	eeb8 7ae7 	vcvt.f32.s32	s14, s15
 80031ee:	7ffb      	ldrb	r3, [r7, #31]
 80031f0:	009b      	lsls	r3, r3, #2
 80031f2:	687a      	ldr	r2, [r7, #4]
 80031f4:	4413      	add	r3, r2
 80031f6:	edd7 7a06 	vldr	s15, [r7, #24]
 80031fa:	ee67 7a27 	vmul.f32	s15, s14, s15
 80031fe:	edc3 7a00 	vstr	s15, [r3]
  for(i=0; i<3; i++)
 8003202:	7ffb      	ldrb	r3, [r7, #31]
 8003204:	3301      	adds	r3, #1
 8003206:	77fb      	strb	r3, [r7, #31]
 8003208:	7ffb      	ldrb	r3, [r7, #31]
 800320a:	2b02      	cmp	r3, #2
 800320c:	d9e5      	bls.n	80031da <LSM6DSL_GyroReadXYZAngRate+0xda>
  }
}
 800320e:	bf00      	nop
 8003210:	bf00      	nop
 8003212:	3720      	adds	r7, #32
 8003214:	46bd      	mov	sp, r7
 8003216:	bd80      	pop	{r7, pc}
 8003218:	410c0000 	.word	0x410c0000
 800321c:	418c0000 	.word	0x418c0000
 8003220:	420c0000 	.word	0x420c0000
 8003224:	428c0000 	.word	0x428c0000

08003228 <HAL_Init>:
  *         each 1ms in the SysTick_Handler() interrupt handler.
  *
  * @retval HAL status
  */
HAL_StatusTypeDef HAL_Init(void)
{
 8003228:	b580      	push	{r7, lr}
 800322a:	b082      	sub	sp, #8
 800322c:	af00      	add	r7, sp, #0
  HAL_StatusTypeDef  status = HAL_OK;
 800322e:	2300      	movs	r3, #0
 8003230:	71fb      	strb	r3, [r7, #7]
#if (PREFETCH_ENABLE != 0)
  __HAL_FLASH_PREFETCH_BUFFER_ENABLE();
#endif /* PREFETCH_ENABLE */

  /* Set Interrupt Group Priority */
  HAL_NVIC_SetPriorityGrouping(NVIC_PRIORITYGROUP_4);
 8003232:	2003      	movs	r0, #3
 8003234:	f000 f938 	bl	80034a8 <HAL_NVIC_SetPriorityGrouping>

  /* Use SysTick as time base source and configure 1ms tick (default clock after Reset is MSI) */
  if (HAL_InitTick(TICK_INT_PRIORITY) != HAL_OK)
 8003238:	2000      	movs	r0, #0
 800323a:	f000 f80d 	bl	8003258 <HAL_InitTick>
 800323e:	4603      	mov	r3, r0
 8003240:	2b00      	cmp	r3, #0
 8003242:	d002      	beq.n	800324a <HAL_Init+0x22>
  {
    status = HAL_ERROR;
 8003244:	2301      	movs	r3, #1
 8003246:	71fb      	strb	r3, [r7, #7]
 8003248:	e001      	b.n	800324e <HAL_Init+0x26>
  }
  else
  {
    /* Init the low level hardware */
    HAL_MspInit();
 800324a:	f7fe fdcd 	bl	8001de8 <HAL_MspInit>
  }

  /* Return function status */
  return status;
 800324e:	79fb      	ldrb	r3, [r7, #7]
}
 8003250:	4618      	mov	r0, r3
 8003252:	3708      	adds	r7, #8
 8003254:	46bd      	mov	sp, r7
 8003256:	bd80      	pop	{r7, pc}

08003258 <HAL_InitTick>:
  *       implementation  in user file.
  * @param TickPriority  Tick interrupt priority.
  * @retval HAL status
  */
__weak HAL_StatusTypeDef HAL_InitTick(uint32_t TickPriority)
{
 8003258:	b580      	push	{r7, lr}
 800325a:	b084      	sub	sp, #16
 800325c:	af00      	add	r7, sp, #0
 800325e:	6078      	str	r0, [r7, #4]
  HAL_StatusTypeDef  status = HAL_OK;
 8003260:	2300      	movs	r3, #0
 8003262:	73fb      	strb	r3, [r7, #15]

  if (uwTickFreq != 0U)
 8003264:	4b16      	ldr	r3, [pc, #88]	; (80032c0 <HAL_InitTick+0x68>)
 8003266:	681b      	ldr	r3, [r3, #0]
 8003268:	2b00      	cmp	r3, #0
 800326a:	d022      	beq.n	80032b2 <HAL_InitTick+0x5a>
  {
    /*Configure the SysTick to have interrupt in 1ms time basis*/
    if (HAL_SYSTICK_Config(SystemCoreClock / (1000U / uwTickFreq)) == 0U)
 800326c:	4b15      	ldr	r3, [pc, #84]	; (80032c4 <HAL_InitTick+0x6c>)
 800326e:	681a      	ldr	r2, [r3, #0]
 8003270:	4b13      	ldr	r3, [pc, #76]	; (80032c0 <HAL_InitTick+0x68>)
 8003272:	681b      	ldr	r3, [r3, #0]
 8003274:	f44f 717a 	mov.w	r1, #1000	; 0x3e8
 8003278:	fbb1 f3f3 	udiv	r3, r1, r3
 800327c:	fbb2 f3f3 	udiv	r3, r2, r3
 8003280:	4618      	mov	r0, r3
 8003282:	f000 f946 	bl	8003512 <HAL_SYSTICK_Config>
 8003286:	4603      	mov	r3, r0
 8003288:	2b00      	cmp	r3, #0
 800328a:	d10f      	bne.n	80032ac <HAL_InitTick+0x54>
    {
      /* Configure the SysTick IRQ priority */
      if (TickPriority < (1UL << __NVIC_PRIO_BITS))
 800328c:	687b      	ldr	r3, [r7, #4]
 800328e:	2b0f      	cmp	r3, #15
 8003290:	d809      	bhi.n	80032a6 <HAL_InitTick+0x4e>
      {
        HAL_NVIC_SetPriority(SysTick_IRQn, TickPriority, 0U);
 8003292:	2200      	movs	r2, #0
 8003294:	6879      	ldr	r1, [r7, #4]
 8003296:	f04f 30ff 	mov.w	r0, #4294967295
 800329a:	f000 f910 	bl	80034be <HAL_NVIC_SetPriority>
        uwTickPrio = TickPriority;
 800329e:	4a0a      	ldr	r2, [pc, #40]	; (80032c8 <HAL_InitTick+0x70>)
 80032a0:	687b      	ldr	r3, [r7, #4]
 80032a2:	6013      	str	r3, [r2, #0]
 80032a4:	e007      	b.n	80032b6 <HAL_InitTick+0x5e>
      }
      else
      {
        status = HAL_ERROR;
 80032a6:	2301      	movs	r3, #1
 80032a8:	73fb      	strb	r3, [r7, #15]
 80032aa:	e004      	b.n	80032b6 <HAL_InitTick+0x5e>
      }
    }
    else
    {
      status = HAL_ERROR;
 80032ac:	2301      	movs	r3, #1
 80032ae:	73fb      	strb	r3, [r7, #15]
 80032b0:	e001      	b.n	80032b6 <HAL_InitTick+0x5e>
    }
  }
  else
  {
    status = HAL_ERROR;
 80032b2:	2301      	movs	r3, #1
 80032b4:	73fb      	strb	r3, [r7, #15]
  }

  /* Return function status */
  return status;
 80032b6:	7bfb      	ldrb	r3, [r7, #15]
}
 80032b8:	4618      	mov	r0, r3
 80032ba:	3710      	adds	r7, #16
 80032bc:	46bd      	mov	sp, r7
 80032be:	bd80      	pop	{r7, pc}
 80032c0:	200000d0 	.word	0x200000d0
 80032c4:	20000004 	.word	0x20000004
 80032c8:	200000cc 	.word	0x200000cc

080032cc <HAL_IncTick>:
 * @note This function is declared as __weak to be overwritten in case of other
  *      implementations in user file.
  * @retval None
  */
__weak void HAL_IncTick(void)
{
 80032cc:	b480      	push	{r7}
 80032ce:	af00      	add	r7, sp, #0
  uwTick += uwTickFreq;
 80032d0:	4b05      	ldr	r3, [pc, #20]	; (80032e8 <HAL_IncTick+0x1c>)
 80032d2:	681a      	ldr	r2, [r3, #0]
 80032d4:	4b05      	ldr	r3, [pc, #20]	; (80032ec <HAL_IncTick+0x20>)
 80032d6:	681b      	ldr	r3, [r3, #0]
 80032d8:	4413      	add	r3, r2
 80032da:	4a03      	ldr	r2, [pc, #12]	; (80032e8 <HAL_IncTick+0x1c>)
 80032dc:	6013      	str	r3, [r2, #0]
}
 80032de:	bf00      	nop
 80032e0:	46bd      	mov	sp, r7
 80032e2:	f85d 7b04 	ldr.w	r7, [sp], #4
 80032e6:	4770      	bx	lr
 80032e8:	200005ac 	.word	0x200005ac
 80032ec:	200000d0 	.word	0x200000d0

080032f0 <HAL_GetTick>:
  * @note This function is declared as __weak to be overwritten in case of other
  *       implementations in user file.
  * @retval tick value
  */
__weak uint32_t HAL_GetTick(void)
{
 80032f0:	b480      	push	{r7}
 80032f2:	af00      	add	r7, sp, #0
  return uwTick;
 80032f4:	4b03      	ldr	r3, [pc, #12]	; (8003304 <HAL_GetTick+0x14>)
 80032f6:	681b      	ldr	r3, [r3, #0]
}
 80032f8:	4618      	mov	r0, r3
 80032fa:	46bd      	mov	sp, r7
 80032fc:	f85d 7b04 	ldr.w	r7, [sp], #4
 8003300:	4770      	bx	lr
 8003302:	bf00      	nop
 8003304:	200005ac 	.word	0x200005ac

08003308 <__NVIC_SetPriorityGrouping>:
           In case of a conflict between priority grouping and available
           priority bits (__NVIC_PRIO_BITS), the smallest possible priority group is set.
  \param [in]      PriorityGroup  Priority grouping field.
 */
__STATIC_INLINE void __NVIC_SetPriorityGrouping(uint32_t PriorityGroup)
{
 8003308:	b480      	push	{r7}
 800330a:	b085      	sub	sp, #20
 800330c:	af00      	add	r7, sp, #0
 800330e:	6078      	str	r0, [r7, #4]
  uint32_t reg_value;
  uint32_t PriorityGroupTmp = (PriorityGroup & (uint32_t)0x07UL);             /* only values 0..7 are used          */
 8003310:	687b      	ldr	r3, [r7, #4]
 8003312:	f003 0307 	and.w	r3, r3, #7
 8003316:	60fb      	str	r3, [r7, #12]

  reg_value  =  SCB->AIRCR;                                                   /* read old register configuration    */
 8003318:	4b0c      	ldr	r3, [pc, #48]	; (800334c <__NVIC_SetPriorityGrouping+0x44>)
 800331a:	68db      	ldr	r3, [r3, #12]
 800331c:	60bb      	str	r3, [r7, #8]
  reg_value &= ~((uint32_t)(SCB_AIRCR_VECTKEY_Msk | SCB_AIRCR_PRIGROUP_Msk)); /* clear bits to change               */
 800331e:	68ba      	ldr	r2, [r7, #8]
 8003320:	f64f 03ff 	movw	r3, #63743	; 0xf8ff
 8003324:	4013      	ands	r3, r2
 8003326:	60bb      	str	r3, [r7, #8]
  reg_value  =  (reg_value                                   |
                ((uint32_t)0x5FAUL << SCB_AIRCR_VECTKEY_Pos) |
                (PriorityGroupTmp << SCB_AIRCR_PRIGROUP_Pos)  );              /* Insert write key and priority group */
 8003328:	68fb      	ldr	r3, [r7, #12]
 800332a:	021a      	lsls	r2, r3, #8
                ((uint32_t)0x5FAUL << SCB_AIRCR_VECTKEY_Pos) |
 800332c:	68bb      	ldr	r3, [r7, #8]
 800332e:	4313      	orrs	r3, r2
  reg_value  =  (reg_value                                   |
 8003330:	f043 63bf 	orr.w	r3, r3, #100139008	; 0x5f80000
 8003334:	f443 3300 	orr.w	r3, r3, #131072	; 0x20000
 8003338:	60bb      	str	r3, [r7, #8]
  SCB->AIRCR =  reg_value;
 800333a:	4a04      	ldr	r2, [pc, #16]	; (800334c <__NVIC_SetPriorityGrouping+0x44>)
 800333c:	68bb      	ldr	r3, [r7, #8]
 800333e:	60d3      	str	r3, [r2, #12]
}
 8003340:	bf00      	nop
 8003342:	3714      	adds	r7, #20
 8003344:	46bd      	mov	sp, r7
 8003346:	f85d 7b04 	ldr.w	r7, [sp], #4
 800334a:	4770      	bx	lr
 800334c:	e000ed00 	.word	0xe000ed00

08003350 <__NVIC_GetPriorityGrouping>:
  \brief   Get Priority Grouping
  \details Reads the priority grouping field from the NVIC Interrupt Controller.
  \return                Priority grouping field (SCB->AIRCR [10:8] PRIGROUP field).
 */
__STATIC_INLINE uint32_t __NVIC_GetPriorityGrouping(void)
{
 8003350:	b480      	push	{r7}
 8003352:	af00      	add	r7, sp, #0
  return ((uint32_t)((SCB->AIRCR & SCB_AIRCR_PRIGROUP_Msk) >> SCB_AIRCR_PRIGROUP_Pos));
 8003354:	4b04      	ldr	r3, [pc, #16]	; (8003368 <__NVIC_GetPriorityGrouping+0x18>)
 8003356:	68db      	ldr	r3, [r3, #12]
 8003358:	0a1b      	lsrs	r3, r3, #8
 800335a:	f003 0307 	and.w	r3, r3, #7
}
 800335e:	4618      	mov	r0, r3
 8003360:	46bd      	mov	sp, r7
 8003362:	f85d 7b04 	ldr.w	r7, [sp], #4
 8003366:	4770      	bx	lr
 8003368:	e000ed00 	.word	0xe000ed00

0800336c <__NVIC_EnableIRQ>:
  \details Enables a device specific interrupt in the NVIC interrupt controller.
  \param [in]      IRQn  Device specific interrupt number.
  \note    IRQn must not be negative.
 */
__STATIC_INLINE void __NVIC_EnableIRQ(IRQn_Type IRQn)
{
 800336c:	b480      	push	{r7}
 800336e:	b083      	sub	sp, #12
 8003370:	af00      	add	r7, sp, #0
 8003372:	4603      	mov	r3, r0
 8003374:	71fb      	strb	r3, [r7, #7]
  if ((int32_t)(IRQn) >= 0)
 8003376:	f997 3007 	ldrsb.w	r3, [r7, #7]
 800337a:	2b00      	cmp	r3, #0
 800337c:	db0b      	blt.n	8003396 <__NVIC_EnableIRQ+0x2a>
  {
    NVIC->ISER[(((uint32_t)IRQn) >> 5UL)] = (uint32_t)(1UL << (((uint32_t)IRQn) & 0x1FUL));
 800337e:	79fb      	ldrb	r3, [r7, #7]
 8003380:	f003 021f 	and.w	r2, r3, #31
 8003384:	4907      	ldr	r1, [pc, #28]	; (80033a4 <__NVIC_EnableIRQ+0x38>)
 8003386:	f997 3007 	ldrsb.w	r3, [r7, #7]
 800338a:	095b      	lsrs	r3, r3, #5
 800338c:	2001      	movs	r0, #1
 800338e:	fa00 f202 	lsl.w	r2, r0, r2
 8003392:	f841 2023 	str.w	r2, [r1, r3, lsl #2]
  }
}
 8003396:	bf00      	nop
 8003398:	370c      	adds	r7, #12
 800339a:	46bd      	mov	sp, r7
 800339c:	f85d 7b04 	ldr.w	r7, [sp], #4
 80033a0:	4770      	bx	lr
 80033a2:	bf00      	nop
 80033a4:	e000e100 	.word	0xe000e100

080033a8 <__NVIC_SetPriority>:
  \param [in]      IRQn  Interrupt number.
  \param [in]  priority  Priority to set.
  \note    The priority cannot be set for every processor exception.
 */
__STATIC_INLINE void __NVIC_SetPriority(IRQn_Type IRQn, uint32_t priority)
{
 80033a8:	b480      	push	{r7}
 80033aa:	b083      	sub	sp, #12
 80033ac:	af00      	add	r7, sp, #0
 80033ae:	4603      	mov	r3, r0
 80033b0:	6039      	str	r1, [r7, #0]
 80033b2:	71fb      	strb	r3, [r7, #7]
  if ((int32_t)(IRQn) >= 0)
 80033b4:	f997 3007 	ldrsb.w	r3, [r7, #7]
 80033b8:	2b00      	cmp	r3, #0
 80033ba:	db0a      	blt.n	80033d2 <__NVIC_SetPriority+0x2a>
  {
    NVIC->IP[((uint32_t)IRQn)]               = (uint8_t)((priority << (8U - __NVIC_PRIO_BITS)) & (uint32_t)0xFFUL);
 80033bc:	683b      	ldr	r3, [r7, #0]
 80033be:	b2da      	uxtb	r2, r3
 80033c0:	490c      	ldr	r1, [pc, #48]	; (80033f4 <__NVIC_SetPriority+0x4c>)
 80033c2:	f997 3007 	ldrsb.w	r3, [r7, #7]
 80033c6:	0112      	lsls	r2, r2, #4
 80033c8:	b2d2      	uxtb	r2, r2
 80033ca:	440b      	add	r3, r1
 80033cc:	f883 2300 	strb.w	r2, [r3, #768]	; 0x300
  }
  else
  {
    SCB->SHP[(((uint32_t)IRQn) & 0xFUL)-4UL] = (uint8_t)((priority << (8U - __NVIC_PRIO_BITS)) & (uint32_t)0xFFUL);
  }
}
 80033d0:	e00a      	b.n	80033e8 <__NVIC_SetPriority+0x40>
    SCB->SHP[(((uint32_t)IRQn) & 0xFUL)-4UL] = (uint8_t)((priority << (8U - __NVIC_PRIO_BITS)) & (uint32_t)0xFFUL);
 80033d2:	683b      	ldr	r3, [r7, #0]
 80033d4:	b2da      	uxtb	r2, r3
 80033d6:	4908      	ldr	r1, [pc, #32]	; (80033f8 <__NVIC_SetPriority+0x50>)
 80033d8:	79fb      	ldrb	r3, [r7, #7]
 80033da:	f003 030f 	and.w	r3, r3, #15
 80033de:	3b04      	subs	r3, #4
 80033e0:	0112      	lsls	r2, r2, #4
 80033e2:	b2d2      	uxtb	r2, r2
 80033e4:	440b      	add	r3, r1
 80033e6:	761a      	strb	r2, [r3, #24]
}
 80033e8:	bf00      	nop
 80033ea:	370c      	adds	r7, #12
 80033ec:	46bd      	mov	sp, r7
 80033ee:	f85d 7b04 	ldr.w	r7, [sp], #4
 80033f2:	4770      	bx	lr
 80033f4:	e000e100 	.word	0xe000e100
 80033f8:	e000ed00 	.word	0xe000ed00

080033fc <NVIC_EncodePriority>:
  \param [in]   PreemptPriority  Preemptive priority value (starting from 0).
  \param [in]       SubPriority  Subpriority value (starting from 0).
  \return                        Encoded priority. Value can be used in the function \ref NVIC_SetPriority().
 */
__STATIC_INLINE uint32_t NVIC_EncodePriority (uint32_t PriorityGroup, uint32_t PreemptPriority, uint32_t SubPriority)
{
 80033fc:	b480      	push	{r7}
 80033fe:	b089      	sub	sp, #36	; 0x24
 8003400:	af00      	add	r7, sp, #0
 8003402:	60f8      	str	r0, [r7, #12]
 8003404:	60b9      	str	r1, [r7, #8]
 8003406:	607a      	str	r2, [r7, #4]
  uint32_t PriorityGroupTmp = (PriorityGroup & (uint32_t)0x07UL);   /* only values 0..7 are used          */
 8003408:	68fb      	ldr	r3, [r7, #12]
 800340a:	f003 0307 	and.w	r3, r3, #7
 800340e:	61fb      	str	r3, [r7, #28]
  uint32_t PreemptPriorityBits;
  uint32_t SubPriorityBits;

  PreemptPriorityBits = ((7UL - PriorityGroupTmp) > (uint32_t)(__NVIC_PRIO_BITS)) ? (uint32_t)(__NVIC_PRIO_BITS) : (uint32_t)(7UL - PriorityGroupTmp);
 8003410:	69fb      	ldr	r3, [r7, #28]
 8003412:	f1c3 0307 	rsb	r3, r3, #7
 8003416:	2b04      	cmp	r3, #4
 8003418:	bf28      	it	cs
 800341a:	2304      	movcs	r3, #4
 800341c:	61bb      	str	r3, [r7, #24]
  SubPriorityBits     = ((PriorityGroupTmp + (uint32_t)(__NVIC_PRIO_BITS)) < (uint32_t)7UL) ? (uint32_t)0UL : (uint32_t)((PriorityGroupTmp - 7UL) + (uint32_t)(__NVIC_PRIO_BITS));
 800341e:	69fb      	ldr	r3, [r7, #28]
 8003420:	3304      	adds	r3, #4
 8003422:	2b06      	cmp	r3, #6
 8003424:	d902      	bls.n	800342c <NVIC_EncodePriority+0x30>
 8003426:	69fb      	ldr	r3, [r7, #28]
 8003428:	3b03      	subs	r3, #3
 800342a:	e000      	b.n	800342e <NVIC_EncodePriority+0x32>
 800342c:	2300      	movs	r3, #0
 800342e:	617b      	str	r3, [r7, #20]

  return (
           ((PreemptPriority & (uint32_t)((1UL << (PreemptPriorityBits)) - 1UL)) << SubPriorityBits) |
 8003430:	f04f 32ff 	mov.w	r2, #4294967295
 8003434:	69bb      	ldr	r3, [r7, #24]
 8003436:	fa02 f303 	lsl.w	r3, r2, r3
 800343a:	43da      	mvns	r2, r3
 800343c:	68bb      	ldr	r3, [r7, #8]
 800343e:	401a      	ands	r2, r3
 8003440:	697b      	ldr	r3, [r7, #20]
 8003442:	409a      	lsls	r2, r3
           ((SubPriority     & (uint32_t)((1UL << (SubPriorityBits    )) - 1UL)))
 8003444:	f04f 31ff 	mov.w	r1, #4294967295
 8003448:	697b      	ldr	r3, [r7, #20]
 800344a:	fa01 f303 	lsl.w	r3, r1, r3
 800344e:	43d9      	mvns	r1, r3
 8003450:	687b      	ldr	r3, [r7, #4]
 8003452:	400b      	ands	r3, r1
           ((PreemptPriority & (uint32_t)((1UL << (PreemptPriorityBits)) - 1UL)) << SubPriorityBits) |
 8003454:	4313      	orrs	r3, r2
         );
}
 8003456:	4618      	mov	r0, r3
 8003458:	3724      	adds	r7, #36	; 0x24
 800345a:	46bd      	mov	sp, r7
 800345c:	f85d 7b04 	ldr.w	r7, [sp], #4
 8003460:	4770      	bx	lr
	...

08003464 <SysTick_Config>:
  \note    When the variable <b>__Vendor_SysTickConfig</b> is set to 1, then the
           function <b>SysTick_Config</b> is not included. In this case, the file <b><i>device</i>.h</b>
           must contain a vendor-specific implementation of this function.
 */
__STATIC_INLINE uint32_t SysTick_Config(uint32_t ticks)
{
 8003464:	b580      	push	{r7, lr}
 8003466:	b082      	sub	sp, #8
 8003468:	af00      	add	r7, sp, #0
 800346a:	6078      	str	r0, [r7, #4]
  if ((ticks - 1UL) > SysTick_LOAD_RELOAD_Msk)
 800346c:	687b      	ldr	r3, [r7, #4]
 800346e:	3b01      	subs	r3, #1
 8003470:	f1b3 7f80 	cmp.w	r3, #16777216	; 0x1000000
 8003474:	d301      	bcc.n	800347a <SysTick_Config+0x16>
  {
    return (1UL);                                                   /* Reload value impossible */
 8003476:	2301      	movs	r3, #1
 8003478:	e00f      	b.n	800349a <SysTick_Config+0x36>
  }

  SysTick->LOAD  = (uint32_t)(ticks - 1UL);                         /* set reload register */
 800347a:	4a0a      	ldr	r2, [pc, #40]	; (80034a4 <SysTick_Config+0x40>)
 800347c:	687b      	ldr	r3, [r7, #4]
 800347e:	3b01      	subs	r3, #1
 8003480:	6053      	str	r3, [r2, #4]
  NVIC_SetPriority (SysTick_IRQn, (1UL << __NVIC_PRIO_BITS) - 1UL); /* set Priority for Systick Interrupt */
 8003482:	210f      	movs	r1, #15
 8003484:	f04f 30ff 	mov.w	r0, #4294967295
 8003488:	f7ff ff8e 	bl	80033a8 <__NVIC_SetPriority>
  SysTick->VAL   = 0UL;                                             /* Load the SysTick Counter Value */
 800348c:	4b05      	ldr	r3, [pc, #20]	; (80034a4 <SysTick_Config+0x40>)
 800348e:	2200      	movs	r2, #0
 8003490:	609a      	str	r2, [r3, #8]
  SysTick->CTRL  = SysTick_CTRL_CLKSOURCE_Msk |
 8003492:	4b04      	ldr	r3, [pc, #16]	; (80034a4 <SysTick_Config+0x40>)
 8003494:	2207      	movs	r2, #7
 8003496:	601a      	str	r2, [r3, #0]
                   SysTick_CTRL_TICKINT_Msk   |
                   SysTick_CTRL_ENABLE_Msk;                         /* Enable SysTick IRQ and SysTick Timer */
  return (0UL);                                                     /* Function successful */
 8003498:	2300      	movs	r3, #0
}
 800349a:	4618      	mov	r0, r3
 800349c:	3708      	adds	r7, #8
 800349e:	46bd      	mov	sp, r7
 80034a0:	bd80      	pop	{r7, pc}
 80034a2:	bf00      	nop
 80034a4:	e000e010 	.word	0xe000e010

080034a8 <HAL_NVIC_SetPriorityGrouping>:
  * @note   When the NVIC_PriorityGroup_0 is selected, IRQ pre-emption is no more possible.
  *         The pending IRQ priority will be managed only by the subpriority.
  * @retval None
  */
void HAL_NVIC_SetPriorityGrouping(uint32_t PriorityGroup)
{
 80034a8:	b580      	push	{r7, lr}
 80034aa:	b082      	sub	sp, #8
 80034ac:	af00      	add	r7, sp, #0
 80034ae:	6078      	str	r0, [r7, #4]
  /* Check the parameters */
  assert_param(IS_NVIC_PRIORITY_GROUP(PriorityGroup));

  /* Set the PRIGROUP[10:8] bits according to the PriorityGroup parameter value */
  NVIC_SetPriorityGrouping(PriorityGroup);
 80034b0:	6878      	ldr	r0, [r7, #4]
 80034b2:	f7ff ff29 	bl	8003308 <__NVIC_SetPriorityGrouping>
}
 80034b6:	bf00      	nop
 80034b8:	3708      	adds	r7, #8
 80034ba:	46bd      	mov	sp, r7
 80034bc:	bd80      	pop	{r7, pc}

080034be <HAL_NVIC_SetPriority>:
  *         This parameter can be a value between 0 and 15
  *         A lower priority value indicates a higher priority.
  * @retval None
  */
void HAL_NVIC_SetPriority(IRQn_Type IRQn, uint32_t PreemptPriority, uint32_t SubPriority)
{
 80034be:	b580      	push	{r7, lr}
 80034c0:	b086      	sub	sp, #24
 80034c2:	af00      	add	r7, sp, #0
 80034c4:	4603      	mov	r3, r0
 80034c6:	60b9      	str	r1, [r7, #8]
 80034c8:	607a      	str	r2, [r7, #4]
 80034ca:	73fb      	strb	r3, [r7, #15]
  uint32_t prioritygroup = 0x00;
 80034cc:	2300      	movs	r3, #0
 80034ce:	617b      	str	r3, [r7, #20]

  /* Check the parameters */
  assert_param(IS_NVIC_SUB_PRIORITY(SubPriority));
  assert_param(IS_NVIC_PREEMPTION_PRIORITY(PreemptPriority));

  prioritygroup = NVIC_GetPriorityGrouping();
 80034d0:	f7ff ff3e 	bl	8003350 <__NVIC_GetPriorityGrouping>
 80034d4:	6178      	str	r0, [r7, #20]

  NVIC_SetPriority(IRQn, NVIC_EncodePriority(prioritygroup, PreemptPriority, SubPriority));
 80034d6:	687a      	ldr	r2, [r7, #4]
 80034d8:	68b9      	ldr	r1, [r7, #8]
 80034da:	6978      	ldr	r0, [r7, #20]
 80034dc:	f7ff ff8e 	bl	80033fc <NVIC_EncodePriority>
 80034e0:	4602      	mov	r2, r0
 80034e2:	f997 300f 	ldrsb.w	r3, [r7, #15]
 80034e6:	4611      	mov	r1, r2
 80034e8:	4618      	mov	r0, r3
 80034ea:	f7ff ff5d 	bl	80033a8 <__NVIC_SetPriority>
}
 80034ee:	bf00      	nop
 80034f0:	3718      	adds	r7, #24
 80034f2:	46bd      	mov	sp, r7
 80034f4:	bd80      	pop	{r7, pc}

080034f6 <HAL_NVIC_EnableIRQ>:
  *         This parameter can be an enumerator of IRQn_Type enumeration
  *         (For the complete STM32 Devices IRQ Channels list, please refer to the appropriate CMSIS device file (stm32l4xxxx.h))
  * @retval None
  */
void HAL_NVIC_EnableIRQ(IRQn_Type IRQn)
{
 80034f6:	b580      	push	{r7, lr}
 80034f8:	b082      	sub	sp, #8
 80034fa:	af00      	add	r7, sp, #0
 80034fc:	4603      	mov	r3, r0
 80034fe:	71fb      	strb	r3, [r7, #7]
  /* Check the parameters */
  assert_param(IS_NVIC_DEVICE_IRQ(IRQn));
  
  /* Enable interrupt */
  NVIC_EnableIRQ(IRQn);
 8003500:	f997 3007 	ldrsb.w	r3, [r7, #7]
 8003504:	4618      	mov	r0, r3
 8003506:	f7ff ff31 	bl	800336c <__NVIC_EnableIRQ>
}
 800350a:	bf00      	nop
 800350c:	3708      	adds	r7, #8
 800350e:	46bd      	mov	sp, r7
 8003510:	bd80      	pop	{r7, pc}

08003512 <HAL_SYSTICK_Config>:
  * @param  TicksNumb: Specifies the ticks Number of ticks between two interrupts.
  * @retval status:  - 0  Function succeeded.
  *                  - 1  Function failed.
  */
uint32_t HAL_SYSTICK_Config(uint32_t TicksNumb)
{
 8003512:	b580      	push	{r7, lr}
 8003514:	b082      	sub	sp, #8
 8003516:	af00      	add	r7, sp, #0
 8003518:	6078      	str	r0, [r7, #4]
   return SysTick_Config(TicksNumb);
 800351a:	6878      	ldr	r0, [r7, #4]
 800351c:	f7ff ffa2 	bl	8003464 <SysTick_Config>
 8003520:	4603      	mov	r3, r0
}
 8003522:	4618      	mov	r0, r3
 8003524:	3708      	adds	r7, #8
 8003526:	46bd      	mov	sp, r7
 8003528:	bd80      	pop	{r7, pc}
	...

0800352c <HAL_GPIO_Init>:
  * @param  GPIO_Init pointer to a GPIO_InitTypeDef structure that contains
  *         the configuration information for the specified GPIO peripheral.
  * @retval None
  */
void HAL_GPIO_Init(GPIO_TypeDef  *GPIOx, GPIO_InitTypeDef *GPIO_Init)
{
 800352c:	b480      	push	{r7}
 800352e:	b087      	sub	sp, #28
 8003530:	af00      	add	r7, sp, #0
 8003532:	6078      	str	r0, [r7, #4]
 8003534:	6039      	str	r1, [r7, #0]
  uint32_t position = 0x00u;
 8003536:	2300      	movs	r3, #0
 8003538:	617b      	str	r3, [r7, #20]
  assert_param(IS_GPIO_PIN(GPIO_Init->Pin));
  assert_param(IS_GPIO_MODE(GPIO_Init->Mode));
  assert_param(IS_GPIO_PULL(GPIO_Init->Pull));

  /* Configure the port pins */
  while (((GPIO_Init->Pin) >> position) != 0x00u)
 800353a:	e17f      	b.n	800383c <HAL_GPIO_Init+0x310>
  {
    /* Get current io position */
    iocurrent = (GPIO_Init->Pin) & (1uL << position);
 800353c:	683b      	ldr	r3, [r7, #0]
 800353e:	681a      	ldr	r2, [r3, #0]
 8003540:	2101      	movs	r1, #1
 8003542:	697b      	ldr	r3, [r7, #20]
 8003544:	fa01 f303 	lsl.w	r3, r1, r3
 8003548:	4013      	ands	r3, r2
 800354a:	60fb      	str	r3, [r7, #12]

    if (iocurrent != 0x00u)
 800354c:	68fb      	ldr	r3, [r7, #12]
 800354e:	2b00      	cmp	r3, #0
 8003550:	f000 8171 	beq.w	8003836 <HAL_GPIO_Init+0x30a>
    {
      /*--------------------- GPIO Mode Configuration ------------------------*/
      /* In case of Output or Alternate function mode selection */
      if((GPIO_Init->Mode == GPIO_MODE_OUTPUT_PP) || (GPIO_Init->Mode == GPIO_MODE_AF_PP) ||
 8003554:	683b      	ldr	r3, [r7, #0]
 8003556:	685b      	ldr	r3, [r3, #4]
 8003558:	2b01      	cmp	r3, #1
 800355a:	d00b      	beq.n	8003574 <HAL_GPIO_Init+0x48>
 800355c:	683b      	ldr	r3, [r7, #0]
 800355e:	685b      	ldr	r3, [r3, #4]
 8003560:	2b02      	cmp	r3, #2
 8003562:	d007      	beq.n	8003574 <HAL_GPIO_Init+0x48>
         (GPIO_Init->Mode == GPIO_MODE_OUTPUT_OD) || (GPIO_Init->Mode == GPIO_MODE_AF_OD))
 8003564:	683b      	ldr	r3, [r7, #0]
 8003566:	685b      	ldr	r3, [r3, #4]
      if((GPIO_Init->Mode == GPIO_MODE_OUTPUT_PP) || (GPIO_Init->Mode == GPIO_MODE_AF_PP) ||
 8003568:	2b11      	cmp	r3, #17
 800356a:	d003      	beq.n	8003574 <HAL_GPIO_Init+0x48>
         (GPIO_Init->Mode == GPIO_MODE_OUTPUT_OD) || (GPIO_Init->Mode == GPIO_MODE_AF_OD))
 800356c:	683b      	ldr	r3, [r7, #0]
 800356e:	685b      	ldr	r3, [r3, #4]
 8003570:	2b12      	cmp	r3, #18
 8003572:	d130      	bne.n	80035d6 <HAL_GPIO_Init+0xaa>
      {
        /* Check the Speed parameter */
        assert_param(IS_GPIO_SPEED(GPIO_Init->Speed));
        /* Configure the IO Speed */
        temp = GPIOx->OSPEEDR;
 8003574:	687b      	ldr	r3, [r7, #4]
 8003576:	689b      	ldr	r3, [r3, #8]
 8003578:	613b      	str	r3, [r7, #16]
        temp &= ~(GPIO_OSPEEDR_OSPEED0 << (position * 2u));
 800357a:	697b      	ldr	r3, [r7, #20]
 800357c:	005b      	lsls	r3, r3, #1
 800357e:	2203      	movs	r2, #3
 8003580:	fa02 f303 	lsl.w	r3, r2, r3
 8003584:	43db      	mvns	r3, r3
 8003586:	693a      	ldr	r2, [r7, #16]
 8003588:	4013      	ands	r3, r2
 800358a:	613b      	str	r3, [r7, #16]
        temp |= (GPIO_Init->Speed << (position * 2u));
 800358c:	683b      	ldr	r3, [r7, #0]
 800358e:	68da      	ldr	r2, [r3, #12]
 8003590:	697b      	ldr	r3, [r7, #20]
 8003592:	005b      	lsls	r3, r3, #1
 8003594:	fa02 f303 	lsl.w	r3, r2, r3
 8003598:	693a      	ldr	r2, [r7, #16]
 800359a:	4313      	orrs	r3, r2
 800359c:	613b      	str	r3, [r7, #16]
        GPIOx->OSPEEDR = temp;
 800359e:	687b      	ldr	r3, [r7, #4]
 80035a0:	693a      	ldr	r2, [r7, #16]
 80035a2:	609a      	str	r2, [r3, #8]

        /* Configure the IO Output Type */
        temp = GPIOx->OTYPER;
 80035a4:	687b      	ldr	r3, [r7, #4]
 80035a6:	685b      	ldr	r3, [r3, #4]
 80035a8:	613b      	str	r3, [r7, #16]
        temp &= ~(GPIO_OTYPER_OT0 << position) ;
 80035aa:	2201      	movs	r2, #1
 80035ac:	697b      	ldr	r3, [r7, #20]
 80035ae:	fa02 f303 	lsl.w	r3, r2, r3
 80035b2:	43db      	mvns	r3, r3
 80035b4:	693a      	ldr	r2, [r7, #16]
 80035b6:	4013      	ands	r3, r2
 80035b8:	613b      	str	r3, [r7, #16]
        temp |= (((GPIO_Init->Mode & GPIO_OUTPUT_TYPE) >> 4u) << position);
 80035ba:	683b      	ldr	r3, [r7, #0]
 80035bc:	685b      	ldr	r3, [r3, #4]
 80035be:	091b      	lsrs	r3, r3, #4
 80035c0:	f003 0201 	and.w	r2, r3, #1
 80035c4:	697b      	ldr	r3, [r7, #20]
 80035c6:	fa02 f303 	lsl.w	r3, r2, r3
 80035ca:	693a      	ldr	r2, [r7, #16]
 80035cc:	4313      	orrs	r3, r2
 80035ce:	613b      	str	r3, [r7, #16]
        GPIOx->OTYPER = temp;
 80035d0:	687b      	ldr	r3, [r7, #4]
 80035d2:	693a      	ldr	r2, [r7, #16]
 80035d4:	605a      	str	r2, [r3, #4]
      }

#if defined(STM32L471xx) || defined(STM32L475xx) || defined(STM32L476xx) || defined(STM32L485xx) || defined(STM32L486xx)

      /* In case of Analog mode, check if ADC control mode is selected */
      if((GPIO_Init->Mode & GPIO_MODE_ANALOG) == GPIO_MODE_ANALOG)
 80035d6:	683b      	ldr	r3, [r7, #0]
 80035d8:	685b      	ldr	r3, [r3, #4]
 80035da:	f003 0303 	and.w	r3, r3, #3
 80035de:	2b03      	cmp	r3, #3
 80035e0:	d118      	bne.n	8003614 <HAL_GPIO_Init+0xe8>
      {
        /* Configure the IO Output Type */
        temp = GPIOx->ASCR;
 80035e2:	687b      	ldr	r3, [r7, #4]
 80035e4:	6adb      	ldr	r3, [r3, #44]	; 0x2c
 80035e6:	613b      	str	r3, [r7, #16]
        temp &= ~(GPIO_ASCR_ASC0 << position) ;
 80035e8:	2201      	movs	r2, #1
 80035ea:	697b      	ldr	r3, [r7, #20]
 80035ec:	fa02 f303 	lsl.w	r3, r2, r3
 80035f0:	43db      	mvns	r3, r3
 80035f2:	693a      	ldr	r2, [r7, #16]
 80035f4:	4013      	ands	r3, r2
 80035f6:	613b      	str	r3, [r7, #16]
        temp |= (((GPIO_Init->Mode & ANALOG_MODE) >> 3) << position);
 80035f8:	683b      	ldr	r3, [r7, #0]
 80035fa:	685b      	ldr	r3, [r3, #4]
 80035fc:	08db      	lsrs	r3, r3, #3
 80035fe:	f003 0201 	and.w	r2, r3, #1
 8003602:	697b      	ldr	r3, [r7, #20]
 8003604:	fa02 f303 	lsl.w	r3, r2, r3
 8003608:	693a      	ldr	r2, [r7, #16]
 800360a:	4313      	orrs	r3, r2
 800360c:	613b      	str	r3, [r7, #16]
        GPIOx->ASCR = temp;
 800360e:	687b      	ldr	r3, [r7, #4]
 8003610:	693a      	ldr	r2, [r7, #16]
 8003612:	62da      	str	r2, [r3, #44]	; 0x2c
      }

#endif /* STM32L471xx || STM32L475xx || STM32L476xx || STM32L485xx || STM32L486xx */

      /* Activate the Pull-up or Pull down resistor for the current IO */
      temp = GPIOx->PUPDR;
 8003614:	687b      	ldr	r3, [r7, #4]
 8003616:	68db      	ldr	r3, [r3, #12]
 8003618:	613b      	str	r3, [r7, #16]
      temp &= ~(GPIO_PUPDR_PUPD0 << (position * 2u));
 800361a:	697b      	ldr	r3, [r7, #20]
 800361c:	005b      	lsls	r3, r3, #1
 800361e:	2203      	movs	r2, #3
 8003620:	fa02 f303 	lsl.w	r3, r2, r3
 8003624:	43db      	mvns	r3, r3
 8003626:	693a      	ldr	r2, [r7, #16]
 8003628:	4013      	ands	r3, r2
 800362a:	613b      	str	r3, [r7, #16]
      temp |= ((GPIO_Init->Pull) << (position * 2u));
 800362c:	683b      	ldr	r3, [r7, #0]
 800362e:	689a      	ldr	r2, [r3, #8]
 8003630:	697b      	ldr	r3, [r7, #20]
 8003632:	005b      	lsls	r3, r3, #1
 8003634:	fa02 f303 	lsl.w	r3, r2, r3
 8003638:	693a      	ldr	r2, [r7, #16]
 800363a:	4313      	orrs	r3, r2
 800363c:	613b      	str	r3, [r7, #16]
      GPIOx->PUPDR = temp;
 800363e:	687b      	ldr	r3, [r7, #4]
 8003640:	693a      	ldr	r2, [r7, #16]
 8003642:	60da      	str	r2, [r3, #12]

      /* In case of Alternate function mode selection */
      if((GPIO_Init->Mode == GPIO_MODE_AF_PP) || (GPIO_Init->Mode == GPIO_MODE_AF_OD))
 8003644:	683b      	ldr	r3, [r7, #0]
 8003646:	685b      	ldr	r3, [r3, #4]
 8003648:	2b02      	cmp	r3, #2
 800364a:	d003      	beq.n	8003654 <HAL_GPIO_Init+0x128>
 800364c:	683b      	ldr	r3, [r7, #0]
 800364e:	685b      	ldr	r3, [r3, #4]
 8003650:	2b12      	cmp	r3, #18
 8003652:	d123      	bne.n	800369c <HAL_GPIO_Init+0x170>
        /* Check the Alternate function parameters */
        assert_param(IS_GPIO_AF_INSTANCE(GPIOx));
        assert_param(IS_GPIO_AF(GPIO_Init->Alternate));

        /* Configure Alternate function mapped with the current IO */
        temp = GPIOx->AFR[position >> 3u];
 8003654:	697b      	ldr	r3, [r7, #20]
 8003656:	08da      	lsrs	r2, r3, #3
 8003658:	687b      	ldr	r3, [r7, #4]
 800365a:	3208      	adds	r2, #8
 800365c:	f853 3022 	ldr.w	r3, [r3, r2, lsl #2]
 8003660:	613b      	str	r3, [r7, #16]
        temp &= ~(0xFu << ((position & 0x07u) * 4u));
 8003662:	697b      	ldr	r3, [r7, #20]
 8003664:	f003 0307 	and.w	r3, r3, #7
 8003668:	009b      	lsls	r3, r3, #2
 800366a:	220f      	movs	r2, #15
 800366c:	fa02 f303 	lsl.w	r3, r2, r3
 8003670:	43db      	mvns	r3, r3
 8003672:	693a      	ldr	r2, [r7, #16]
 8003674:	4013      	ands	r3, r2
 8003676:	613b      	str	r3, [r7, #16]
        temp |= ((GPIO_Init->Alternate) << ((position & 0x07u) * 4u));
 8003678:	683b      	ldr	r3, [r7, #0]
 800367a:	691a      	ldr	r2, [r3, #16]
 800367c:	697b      	ldr	r3, [r7, #20]
 800367e:	f003 0307 	and.w	r3, r3, #7
 8003682:	009b      	lsls	r3, r3, #2
 8003684:	fa02 f303 	lsl.w	r3, r2, r3
 8003688:	693a      	ldr	r2, [r7, #16]
 800368a:	4313      	orrs	r3, r2
 800368c:	613b      	str	r3, [r7, #16]
        GPIOx->AFR[position >> 3u] = temp;
 800368e:	697b      	ldr	r3, [r7, #20]
 8003690:	08da      	lsrs	r2, r3, #3
 8003692:	687b      	ldr	r3, [r7, #4]
 8003694:	3208      	adds	r2, #8
 8003696:	6939      	ldr	r1, [r7, #16]
 8003698:	f843 1022 	str.w	r1, [r3, r2, lsl #2]
      }

      /* Configure IO Direction mode (Input, Output, Alternate or Analog) */
      temp = GPIOx->MODER;
 800369c:	687b      	ldr	r3, [r7, #4]
 800369e:	681b      	ldr	r3, [r3, #0]
 80036a0:	613b      	str	r3, [r7, #16]
      temp &= ~(GPIO_MODER_MODE0 << (position * 2u));
 80036a2:	697b      	ldr	r3, [r7, #20]
 80036a4:	005b      	lsls	r3, r3, #1
 80036a6:	2203      	movs	r2, #3
 80036a8:	fa02 f303 	lsl.w	r3, r2, r3
 80036ac:	43db      	mvns	r3, r3
 80036ae:	693a      	ldr	r2, [r7, #16]
 80036b0:	4013      	ands	r3, r2
 80036b2:	613b      	str	r3, [r7, #16]
      temp |= ((GPIO_Init->Mode & GPIO_MODE) << (position * 2u));
 80036b4:	683b      	ldr	r3, [r7, #0]
 80036b6:	685b      	ldr	r3, [r3, #4]
 80036b8:	f003 0203 	and.w	r2, r3, #3
 80036bc:	697b      	ldr	r3, [r7, #20]
 80036be:	005b      	lsls	r3, r3, #1
 80036c0:	fa02 f303 	lsl.w	r3, r2, r3
 80036c4:	693a      	ldr	r2, [r7, #16]
 80036c6:	4313      	orrs	r3, r2
 80036c8:	613b      	str	r3, [r7, #16]
      GPIOx->MODER = temp;
 80036ca:	687b      	ldr	r3, [r7, #4]
 80036cc:	693a      	ldr	r2, [r7, #16]
 80036ce:	601a      	str	r2, [r3, #0]

      /*--------------------- EXTI Mode Configuration ------------------------*/
      /* Configure the External Interrupt or event for the current IO */
      if((GPIO_Init->Mode & EXTI_MODE) == EXTI_MODE)
 80036d0:	683b      	ldr	r3, [r7, #0]
 80036d2:	685b      	ldr	r3, [r3, #4]
 80036d4:	f003 5380 	and.w	r3, r3, #268435456	; 0x10000000
 80036d8:	2b00      	cmp	r3, #0
 80036da:	f000 80ac 	beq.w	8003836 <HAL_GPIO_Init+0x30a>
      {
        /* Enable SYSCFG Clock */
        __HAL_RCC_SYSCFG_CLK_ENABLE();
 80036de:	4b5f      	ldr	r3, [pc, #380]	; (800385c <HAL_GPIO_Init+0x330>)
 80036e0:	6e1b      	ldr	r3, [r3, #96]	; 0x60
 80036e2:	4a5e      	ldr	r2, [pc, #376]	; (800385c <HAL_GPIO_Init+0x330>)
 80036e4:	f043 0301 	orr.w	r3, r3, #1
 80036e8:	6613      	str	r3, [r2, #96]	; 0x60
 80036ea:	4b5c      	ldr	r3, [pc, #368]	; (800385c <HAL_GPIO_Init+0x330>)
 80036ec:	6e1b      	ldr	r3, [r3, #96]	; 0x60
 80036ee:	f003 0301 	and.w	r3, r3, #1
 80036f2:	60bb      	str	r3, [r7, #8]
 80036f4:	68bb      	ldr	r3, [r7, #8]

        temp = SYSCFG->EXTICR[position >> 2u];
 80036f6:	4a5a      	ldr	r2, [pc, #360]	; (8003860 <HAL_GPIO_Init+0x334>)
 80036f8:	697b      	ldr	r3, [r7, #20]
 80036fa:	089b      	lsrs	r3, r3, #2
 80036fc:	3302      	adds	r3, #2
 80036fe:	f852 3023 	ldr.w	r3, [r2, r3, lsl #2]
 8003702:	613b      	str	r3, [r7, #16]
        temp &= ~(0x0FuL << (4u * (position & 0x03u)));
 8003704:	697b      	ldr	r3, [r7, #20]
 8003706:	f003 0303 	and.w	r3, r3, #3
 800370a:	009b      	lsls	r3, r3, #2
 800370c:	220f      	movs	r2, #15
 800370e:	fa02 f303 	lsl.w	r3, r2, r3
 8003712:	43db      	mvns	r3, r3
 8003714:	693a      	ldr	r2, [r7, #16]
 8003716:	4013      	ands	r3, r2
 8003718:	613b      	str	r3, [r7, #16]
        temp |= (GPIO_GET_INDEX(GPIOx) << (4u * (position & 0x03u)));
 800371a:	687b      	ldr	r3, [r7, #4]
 800371c:	f1b3 4f90 	cmp.w	r3, #1207959552	; 0x48000000
 8003720:	d025      	beq.n	800376e <HAL_GPIO_Init+0x242>
 8003722:	687b      	ldr	r3, [r7, #4]
 8003724:	4a4f      	ldr	r2, [pc, #316]	; (8003864 <HAL_GPIO_Init+0x338>)
 8003726:	4293      	cmp	r3, r2
 8003728:	d01f      	beq.n	800376a <HAL_GPIO_Init+0x23e>
 800372a:	687b      	ldr	r3, [r7, #4]
 800372c:	4a4e      	ldr	r2, [pc, #312]	; (8003868 <HAL_GPIO_Init+0x33c>)
 800372e:	4293      	cmp	r3, r2
 8003730:	d019      	beq.n	8003766 <HAL_GPIO_Init+0x23a>
 8003732:	687b      	ldr	r3, [r7, #4]
 8003734:	4a4d      	ldr	r2, [pc, #308]	; (800386c <HAL_GPIO_Init+0x340>)
 8003736:	4293      	cmp	r3, r2
 8003738:	d013      	beq.n	8003762 <HAL_GPIO_Init+0x236>
 800373a:	687b      	ldr	r3, [r7, #4]
 800373c:	4a4c      	ldr	r2, [pc, #304]	; (8003870 <HAL_GPIO_Init+0x344>)
 800373e:	4293      	cmp	r3, r2
 8003740:	d00d      	beq.n	800375e <HAL_GPIO_Init+0x232>
 8003742:	687b      	ldr	r3, [r7, #4]
 8003744:	4a4b      	ldr	r2, [pc, #300]	; (8003874 <HAL_GPIO_Init+0x348>)
 8003746:	4293      	cmp	r3, r2
 8003748:	d007      	beq.n	800375a <HAL_GPIO_Init+0x22e>
 800374a:	687b      	ldr	r3, [r7, #4]
 800374c:	4a4a      	ldr	r2, [pc, #296]	; (8003878 <HAL_GPIO_Init+0x34c>)
 800374e:	4293      	cmp	r3, r2
 8003750:	d101      	bne.n	8003756 <HAL_GPIO_Init+0x22a>
 8003752:	2306      	movs	r3, #6
 8003754:	e00c      	b.n	8003770 <HAL_GPIO_Init+0x244>
 8003756:	2307      	movs	r3, #7
 8003758:	e00a      	b.n	8003770 <HAL_GPIO_Init+0x244>
 800375a:	2305      	movs	r3, #5
 800375c:	e008      	b.n	8003770 <HAL_GPIO_Init+0x244>
 800375e:	2304      	movs	r3, #4
 8003760:	e006      	b.n	8003770 <HAL_GPIO_Init+0x244>
 8003762:	2303      	movs	r3, #3
 8003764:	e004      	b.n	8003770 <HAL_GPIO_Init+0x244>
 8003766:	2302      	movs	r3, #2
 8003768:	e002      	b.n	8003770 <HAL_GPIO_Init+0x244>
 800376a:	2301      	movs	r3, #1
 800376c:	e000      	b.n	8003770 <HAL_GPIO_Init+0x244>
 800376e:	2300      	movs	r3, #0
 8003770:	697a      	ldr	r2, [r7, #20]
 8003772:	f002 0203 	and.w	r2, r2, #3
 8003776:	0092      	lsls	r2, r2, #2
 8003778:	4093      	lsls	r3, r2
 800377a:	693a      	ldr	r2, [r7, #16]
 800377c:	4313      	orrs	r3, r2
 800377e:	613b      	str	r3, [r7, #16]
        SYSCFG->EXTICR[position >> 2u] = temp;
 8003780:	4937      	ldr	r1, [pc, #220]	; (8003860 <HAL_GPIO_Init+0x334>)
 8003782:	697b      	ldr	r3, [r7, #20]
 8003784:	089b      	lsrs	r3, r3, #2
 8003786:	3302      	adds	r3, #2
 8003788:	693a      	ldr	r2, [r7, #16]
 800378a:	f841 2023 	str.w	r2, [r1, r3, lsl #2]

        /* Clear EXTI line configuration */
        temp = EXTI->IMR1;
 800378e:	4b3b      	ldr	r3, [pc, #236]	; (800387c <HAL_GPIO_Init+0x350>)
 8003790:	681b      	ldr	r3, [r3, #0]
 8003792:	613b      	str	r3, [r7, #16]
        temp &= ~(iocurrent);
 8003794:	68fb      	ldr	r3, [r7, #12]
 8003796:	43db      	mvns	r3, r3
 8003798:	693a      	ldr	r2, [r7, #16]
 800379a:	4013      	ands	r3, r2
 800379c:	613b      	str	r3, [r7, #16]
        if((GPIO_Init->Mode & GPIO_MODE_IT) == GPIO_MODE_IT)
 800379e:	683b      	ldr	r3, [r7, #0]
 80037a0:	685b      	ldr	r3, [r3, #4]
 80037a2:	f403 3380 	and.w	r3, r3, #65536	; 0x10000
 80037a6:	2b00      	cmp	r3, #0
 80037a8:	d003      	beq.n	80037b2 <HAL_GPIO_Init+0x286>
        {
          temp |= iocurrent;
 80037aa:	693a      	ldr	r2, [r7, #16]
 80037ac:	68fb      	ldr	r3, [r7, #12]
 80037ae:	4313      	orrs	r3, r2
 80037b0:	613b      	str	r3, [r7, #16]
        }
        EXTI->IMR1 = temp;
 80037b2:	4a32      	ldr	r2, [pc, #200]	; (800387c <HAL_GPIO_Init+0x350>)
 80037b4:	693b      	ldr	r3, [r7, #16]
 80037b6:	6013      	str	r3, [r2, #0]

        temp = EXTI->EMR1;
 80037b8:	4b30      	ldr	r3, [pc, #192]	; (800387c <HAL_GPIO_Init+0x350>)
 80037ba:	685b      	ldr	r3, [r3, #4]
 80037bc:	613b      	str	r3, [r7, #16]
        temp &= ~(iocurrent);
 80037be:	68fb      	ldr	r3, [r7, #12]
 80037c0:	43db      	mvns	r3, r3
 80037c2:	693a      	ldr	r2, [r7, #16]
 80037c4:	4013      	ands	r3, r2
 80037c6:	613b      	str	r3, [r7, #16]
        if((GPIO_Init->Mode & GPIO_MODE_EVT) == GPIO_MODE_EVT)
 80037c8:	683b      	ldr	r3, [r7, #0]
 80037ca:	685b      	ldr	r3, [r3, #4]
 80037cc:	f403 3300 	and.w	r3, r3, #131072	; 0x20000
 80037d0:	2b00      	cmp	r3, #0
 80037d2:	d003      	beq.n	80037dc <HAL_GPIO_Init+0x2b0>
        {
          temp |= iocurrent;
 80037d4:	693a      	ldr	r2, [r7, #16]
 80037d6:	68fb      	ldr	r3, [r7, #12]
 80037d8:	4313      	orrs	r3, r2
 80037da:	613b      	str	r3, [r7, #16]
        }
        EXTI->EMR1 = temp;
 80037dc:	4a27      	ldr	r2, [pc, #156]	; (800387c <HAL_GPIO_Init+0x350>)
 80037de:	693b      	ldr	r3, [r7, #16]
 80037e0:	6053      	str	r3, [r2, #4]

        /* Clear Rising Falling edge configuration */
        temp = EXTI->RTSR1;
 80037e2:	4b26      	ldr	r3, [pc, #152]	; (800387c <HAL_GPIO_Init+0x350>)
 80037e4:	689b      	ldr	r3, [r3, #8]
 80037e6:	613b      	str	r3, [r7, #16]
        temp &= ~(iocurrent);
 80037e8:	68fb      	ldr	r3, [r7, #12]
 80037ea:	43db      	mvns	r3, r3
 80037ec:	693a      	ldr	r2, [r7, #16]
 80037ee:	4013      	ands	r3, r2
 80037f0:	613b      	str	r3, [r7, #16]
        if((GPIO_Init->Mode & RISING_EDGE) == RISING_EDGE)
 80037f2:	683b      	ldr	r3, [r7, #0]
 80037f4:	685b      	ldr	r3, [r3, #4]
 80037f6:	f403 1380 	and.w	r3, r3, #1048576	; 0x100000
 80037fa:	2b00      	cmp	r3, #0
 80037fc:	d003      	beq.n	8003806 <HAL_GPIO_Init+0x2da>
        {
          temp |= iocurrent;
 80037fe:	693a      	ldr	r2, [r7, #16]
 8003800:	68fb      	ldr	r3, [r7, #12]
 8003802:	4313      	orrs	r3, r2
 8003804:	613b      	str	r3, [r7, #16]
        }
        EXTI->RTSR1 = temp;
 8003806:	4a1d      	ldr	r2, [pc, #116]	; (800387c <HAL_GPIO_Init+0x350>)
 8003808:	693b      	ldr	r3, [r7, #16]
 800380a:	6093      	str	r3, [r2, #8]

        temp = EXTI->FTSR1;
 800380c:	4b1b      	ldr	r3, [pc, #108]	; (800387c <HAL_GPIO_Init+0x350>)
 800380e:	68db      	ldr	r3, [r3, #12]
 8003810:	613b      	str	r3, [r7, #16]
        temp &= ~(iocurrent);
 8003812:	68fb      	ldr	r3, [r7, #12]
 8003814:	43db      	mvns	r3, r3
 8003816:	693a      	ldr	r2, [r7, #16]
 8003818:	4013      	ands	r3, r2
 800381a:	613b      	str	r3, [r7, #16]
        if((GPIO_Init->Mode & FALLING_EDGE) == FALLING_EDGE)
 800381c:	683b      	ldr	r3, [r7, #0]
 800381e:	685b      	ldr	r3, [r3, #4]
 8003820:	f403 1300 	and.w	r3, r3, #2097152	; 0x200000
 8003824:	2b00      	cmp	r3, #0
 8003826:	d003      	beq.n	8003830 <HAL_GPIO_Init+0x304>
        {
          temp |= iocurrent;
 8003828:	693a      	ldr	r2, [r7, #16]
 800382a:	68fb      	ldr	r3, [r7, #12]
 800382c:	4313      	orrs	r3, r2
 800382e:	613b      	str	r3, [r7, #16]
        }
        EXTI->FTSR1 = temp;
 8003830:	4a12      	ldr	r2, [pc, #72]	; (800387c <HAL_GPIO_Init+0x350>)
 8003832:	693b      	ldr	r3, [r7, #16]
 8003834:	60d3      	str	r3, [r2, #12]
      }
    }

    position++;
 8003836:	697b      	ldr	r3, [r7, #20]
 8003838:	3301      	adds	r3, #1
 800383a:	617b      	str	r3, [r7, #20]
  while (((GPIO_Init->Pin) >> position) != 0x00u)
 800383c:	683b      	ldr	r3, [r7, #0]
 800383e:	681a      	ldr	r2, [r3, #0]
 8003840:	697b      	ldr	r3, [r7, #20]
 8003842:	fa22 f303 	lsr.w	r3, r2, r3
 8003846:	2b00      	cmp	r3, #0
 8003848:	f47f ae78 	bne.w	800353c <HAL_GPIO_Init+0x10>
  }
}
 800384c:	bf00      	nop
 800384e:	bf00      	nop
 8003850:	371c      	adds	r7, #28
 8003852:	46bd      	mov	sp, r7
 8003854:	f85d 7b04 	ldr.w	r7, [sp], #4
 8003858:	4770      	bx	lr
 800385a:	bf00      	nop
 800385c:	40021000 	.word	0x40021000
 8003860:	40010000 	.word	0x40010000
 8003864:	48000400 	.word	0x48000400
 8003868:	48000800 	.word	0x48000800
 800386c:	48000c00 	.word	0x48000c00
 8003870:	48001000 	.word	0x48001000
 8003874:	48001400 	.word	0x48001400
 8003878:	48001800 	.word	0x48001800
 800387c:	40010400 	.word	0x40010400

08003880 <HAL_GPIO_DeInit>:
  * @param  GPIO_Pin specifies the port bit to be written.
  *         This parameter can be any combination of GPIO_Pin_x where x can be (0..15).
  * @retval None
  */
void HAL_GPIO_DeInit(GPIO_TypeDef  *GPIOx, uint32_t GPIO_Pin)
{
 8003880:	b480      	push	{r7}
 8003882:	b087      	sub	sp, #28
 8003884:	af00      	add	r7, sp, #0
 8003886:	6078      	str	r0, [r7, #4]
 8003888:	6039      	str	r1, [r7, #0]
  uint32_t position = 0x00u;
 800388a:	2300      	movs	r3, #0
 800388c:	617b      	str	r3, [r7, #20]
  /* Check the parameters */
  assert_param(IS_GPIO_ALL_INSTANCE(GPIOx));
  assert_param(IS_GPIO_PIN(GPIO_Pin));

  /* Configure the port pins */
  while ((GPIO_Pin >> position) != 0x00u)
 800388e:	e0cd      	b.n	8003a2c <HAL_GPIO_DeInit+0x1ac>
  {
    /* Get current io position */
    iocurrent = (GPIO_Pin) & (1uL << position);
 8003890:	2201      	movs	r2, #1
 8003892:	697b      	ldr	r3, [r7, #20]
 8003894:	fa02 f303 	lsl.w	r3, r2, r3
 8003898:	683a      	ldr	r2, [r7, #0]
 800389a:	4013      	ands	r3, r2
 800389c:	613b      	str	r3, [r7, #16]

    if (iocurrent != 0x00u)
 800389e:	693b      	ldr	r3, [r7, #16]
 80038a0:	2b00      	cmp	r3, #0
 80038a2:	f000 80c0 	beq.w	8003a26 <HAL_GPIO_DeInit+0x1a6>
    {
      /*------------------------- EXTI Mode Configuration --------------------*/
      /* Clear the External Interrupt or Event for the current IO */

      tmp = SYSCFG->EXTICR[position >> 2u];
 80038a6:	4a68      	ldr	r2, [pc, #416]	; (8003a48 <HAL_GPIO_DeInit+0x1c8>)
 80038a8:	697b      	ldr	r3, [r7, #20]
 80038aa:	089b      	lsrs	r3, r3, #2
 80038ac:	3302      	adds	r3, #2
 80038ae:	f852 3023 	ldr.w	r3, [r2, r3, lsl #2]
 80038b2:	60fb      	str	r3, [r7, #12]
      tmp &= (0x0FuL << (4u * (position & 0x03u)));
 80038b4:	697b      	ldr	r3, [r7, #20]
 80038b6:	f003 0303 	and.w	r3, r3, #3
 80038ba:	009b      	lsls	r3, r3, #2
 80038bc:	220f      	movs	r2, #15
 80038be:	fa02 f303 	lsl.w	r3, r2, r3
 80038c2:	68fa      	ldr	r2, [r7, #12]
 80038c4:	4013      	ands	r3, r2
 80038c6:	60fb      	str	r3, [r7, #12]
      if (tmp == (GPIO_GET_INDEX(GPIOx) << (4u * (position & 0x03u))))
 80038c8:	687b      	ldr	r3, [r7, #4]
 80038ca:	f1b3 4f90 	cmp.w	r3, #1207959552	; 0x48000000
 80038ce:	d025      	beq.n	800391c <HAL_GPIO_DeInit+0x9c>
 80038d0:	687b      	ldr	r3, [r7, #4]
 80038d2:	4a5e      	ldr	r2, [pc, #376]	; (8003a4c <HAL_GPIO_DeInit+0x1cc>)
 80038d4:	4293      	cmp	r3, r2
 80038d6:	d01f      	beq.n	8003918 <HAL_GPIO_DeInit+0x98>
 80038d8:	687b      	ldr	r3, [r7, #4]
 80038da:	4a5d      	ldr	r2, [pc, #372]	; (8003a50 <HAL_GPIO_DeInit+0x1d0>)
 80038dc:	4293      	cmp	r3, r2
 80038de:	d019      	beq.n	8003914 <HAL_GPIO_DeInit+0x94>
 80038e0:	687b      	ldr	r3, [r7, #4]
 80038e2:	4a5c      	ldr	r2, [pc, #368]	; (8003a54 <HAL_GPIO_DeInit+0x1d4>)
 80038e4:	4293      	cmp	r3, r2
 80038e6:	d013      	beq.n	8003910 <HAL_GPIO_DeInit+0x90>
 80038e8:	687b      	ldr	r3, [r7, #4]
 80038ea:	4a5b      	ldr	r2, [pc, #364]	; (8003a58 <HAL_GPIO_DeInit+0x1d8>)
 80038ec:	4293      	cmp	r3, r2
 80038ee:	d00d      	beq.n	800390c <HAL_GPIO_DeInit+0x8c>
 80038f0:	687b      	ldr	r3, [r7, #4]
 80038f2:	4a5a      	ldr	r2, [pc, #360]	; (8003a5c <HAL_GPIO_DeInit+0x1dc>)
 80038f4:	4293      	cmp	r3, r2
 80038f6:	d007      	beq.n	8003908 <HAL_GPIO_DeInit+0x88>
 80038f8:	687b      	ldr	r3, [r7, #4]
 80038fa:	4a59      	ldr	r2, [pc, #356]	; (8003a60 <HAL_GPIO_DeInit+0x1e0>)
 80038fc:	4293      	cmp	r3, r2
 80038fe:	d101      	bne.n	8003904 <HAL_GPIO_DeInit+0x84>
 8003900:	2306      	movs	r3, #6
 8003902:	e00c      	b.n	800391e <HAL_GPIO_DeInit+0x9e>
 8003904:	2307      	movs	r3, #7
 8003906:	e00a      	b.n	800391e <HAL_GPIO_DeInit+0x9e>
 8003908:	2305      	movs	r3, #5
 800390a:	e008      	b.n	800391e <HAL_GPIO_DeInit+0x9e>
 800390c:	2304      	movs	r3, #4
 800390e:	e006      	b.n	800391e <HAL_GPIO_DeInit+0x9e>
 8003910:	2303      	movs	r3, #3
 8003912:	e004      	b.n	800391e <HAL_GPIO_DeInit+0x9e>
 8003914:	2302      	movs	r3, #2
 8003916:	e002      	b.n	800391e <HAL_GPIO_DeInit+0x9e>
 8003918:	2301      	movs	r3, #1
 800391a:	e000      	b.n	800391e <HAL_GPIO_DeInit+0x9e>
 800391c:	2300      	movs	r3, #0
 800391e:	697a      	ldr	r2, [r7, #20]
 8003920:	f002 0203 	and.w	r2, r2, #3
 8003924:	0092      	lsls	r2, r2, #2
 8003926:	4093      	lsls	r3, r2
 8003928:	68fa      	ldr	r2, [r7, #12]
 800392a:	429a      	cmp	r2, r3
 800392c:	d132      	bne.n	8003994 <HAL_GPIO_DeInit+0x114>
      {
        /* Clear EXTI line configuration */
        EXTI->IMR1 &= ~(iocurrent);
 800392e:	4b4d      	ldr	r3, [pc, #308]	; (8003a64 <HAL_GPIO_DeInit+0x1e4>)
 8003930:	681a      	ldr	r2, [r3, #0]
 8003932:	693b      	ldr	r3, [r7, #16]
 8003934:	43db      	mvns	r3, r3
 8003936:	494b      	ldr	r1, [pc, #300]	; (8003a64 <HAL_GPIO_DeInit+0x1e4>)
 8003938:	4013      	ands	r3, r2
 800393a:	600b      	str	r3, [r1, #0]
        EXTI->EMR1 &= ~(iocurrent);
 800393c:	4b49      	ldr	r3, [pc, #292]	; (8003a64 <HAL_GPIO_DeInit+0x1e4>)
 800393e:	685a      	ldr	r2, [r3, #4]
 8003940:	693b      	ldr	r3, [r7, #16]
 8003942:	43db      	mvns	r3, r3
 8003944:	4947      	ldr	r1, [pc, #284]	; (8003a64 <HAL_GPIO_DeInit+0x1e4>)
 8003946:	4013      	ands	r3, r2
 8003948:	604b      	str	r3, [r1, #4]

        /* Clear Rising Falling edge configuration */
        EXTI->RTSR1 &= ~(iocurrent);
 800394a:	4b46      	ldr	r3, [pc, #280]	; (8003a64 <HAL_GPIO_DeInit+0x1e4>)
 800394c:	689a      	ldr	r2, [r3, #8]
 800394e:	693b      	ldr	r3, [r7, #16]
 8003950:	43db      	mvns	r3, r3
 8003952:	4944      	ldr	r1, [pc, #272]	; (8003a64 <HAL_GPIO_DeInit+0x1e4>)
 8003954:	4013      	ands	r3, r2
 8003956:	608b      	str	r3, [r1, #8]
        EXTI->FTSR1 &= ~(iocurrent);
 8003958:	4b42      	ldr	r3, [pc, #264]	; (8003a64 <HAL_GPIO_DeInit+0x1e4>)
 800395a:	68da      	ldr	r2, [r3, #12]
 800395c:	693b      	ldr	r3, [r7, #16]
 800395e:	43db      	mvns	r3, r3
 8003960:	4940      	ldr	r1, [pc, #256]	; (8003a64 <HAL_GPIO_DeInit+0x1e4>)
 8003962:	4013      	ands	r3, r2
 8003964:	60cb      	str	r3, [r1, #12]

        tmp = 0x0FuL << (4u * (position & 0x03u));
 8003966:	697b      	ldr	r3, [r7, #20]
 8003968:	f003 0303 	and.w	r3, r3, #3
 800396c:	009b      	lsls	r3, r3, #2
 800396e:	220f      	movs	r2, #15
 8003970:	fa02 f303 	lsl.w	r3, r2, r3
 8003974:	60fb      	str	r3, [r7, #12]
        SYSCFG->EXTICR[position >> 2u] &= ~tmp;
 8003976:	4a34      	ldr	r2, [pc, #208]	; (8003a48 <HAL_GPIO_DeInit+0x1c8>)
 8003978:	697b      	ldr	r3, [r7, #20]
 800397a:	089b      	lsrs	r3, r3, #2
 800397c:	3302      	adds	r3, #2
 800397e:	f852 1023 	ldr.w	r1, [r2, r3, lsl #2]
 8003982:	68fb      	ldr	r3, [r7, #12]
 8003984:	43da      	mvns	r2, r3
 8003986:	4830      	ldr	r0, [pc, #192]	; (8003a48 <HAL_GPIO_DeInit+0x1c8>)
 8003988:	697b      	ldr	r3, [r7, #20]
 800398a:	089b      	lsrs	r3, r3, #2
 800398c:	400a      	ands	r2, r1
 800398e:	3302      	adds	r3, #2
 8003990:	f840 2023 	str.w	r2, [r0, r3, lsl #2]
      }

      /*------------------------- GPIO Mode Configuration --------------------*/
      /* Configure IO in Analog Mode */
      GPIOx->MODER |= (GPIO_MODER_MODE0 << (position * 2u));
 8003994:	687b      	ldr	r3, [r7, #4]
 8003996:	681a      	ldr	r2, [r3, #0]
 8003998:	697b      	ldr	r3, [r7, #20]
 800399a:	005b      	lsls	r3, r3, #1
 800399c:	2103      	movs	r1, #3
 800399e:	fa01 f303 	lsl.w	r3, r1, r3
 80039a2:	431a      	orrs	r2, r3
 80039a4:	687b      	ldr	r3, [r7, #4]
 80039a6:	601a      	str	r2, [r3, #0]

      /* Configure the default Alternate Function in current IO */
      GPIOx->AFR[position >> 3u] &= ~(0xFu << ((position & 0x07u) * 4u)) ;
 80039a8:	697b      	ldr	r3, [r7, #20]
 80039aa:	08da      	lsrs	r2, r3, #3
 80039ac:	687b      	ldr	r3, [r7, #4]
 80039ae:	3208      	adds	r2, #8
 80039b0:	f853 1022 	ldr.w	r1, [r3, r2, lsl #2]
 80039b4:	697b      	ldr	r3, [r7, #20]
 80039b6:	f003 0307 	and.w	r3, r3, #7
 80039ba:	009b      	lsls	r3, r3, #2
 80039bc:	220f      	movs	r2, #15
 80039be:	fa02 f303 	lsl.w	r3, r2, r3
 80039c2:	43db      	mvns	r3, r3
 80039c4:	697a      	ldr	r2, [r7, #20]
 80039c6:	08d2      	lsrs	r2, r2, #3
 80039c8:	4019      	ands	r1, r3
 80039ca:	687b      	ldr	r3, [r7, #4]
 80039cc:	3208      	adds	r2, #8
 80039ce:	f843 1022 	str.w	r1, [r3, r2, lsl #2]

      /* Configure the default value for IO Speed */
      GPIOx->OSPEEDR &= ~(GPIO_OSPEEDR_OSPEED0 << (position * 2u));
 80039d2:	687b      	ldr	r3, [r7, #4]
 80039d4:	689a      	ldr	r2, [r3, #8]
 80039d6:	697b      	ldr	r3, [r7, #20]
 80039d8:	005b      	lsls	r3, r3, #1
 80039da:	2103      	movs	r1, #3
 80039dc:	fa01 f303 	lsl.w	r3, r1, r3
 80039e0:	43db      	mvns	r3, r3
 80039e2:	401a      	ands	r2, r3
 80039e4:	687b      	ldr	r3, [r7, #4]
 80039e6:	609a      	str	r2, [r3, #8]

      /* Configure the default value IO Output Type */
      GPIOx->OTYPER  &= ~(GPIO_OTYPER_OT0 << position) ;
 80039e8:	687b      	ldr	r3, [r7, #4]
 80039ea:	685a      	ldr	r2, [r3, #4]
 80039ec:	2101      	movs	r1, #1
 80039ee:	697b      	ldr	r3, [r7, #20]
 80039f0:	fa01 f303 	lsl.w	r3, r1, r3
 80039f4:	43db      	mvns	r3, r3
 80039f6:	401a      	ands	r2, r3
 80039f8:	687b      	ldr	r3, [r7, #4]
 80039fa:	605a      	str	r2, [r3, #4]

      /* Deactivate the Pull-up and Pull-down resistor for the current IO */
      GPIOx->PUPDR &= ~(GPIO_PUPDR_PUPD0 << (position * 2u));
 80039fc:	687b      	ldr	r3, [r7, #4]
 80039fe:	68da      	ldr	r2, [r3, #12]
 8003a00:	697b      	ldr	r3, [r7, #20]
 8003a02:	005b      	lsls	r3, r3, #1
 8003a04:	2103      	movs	r1, #3
 8003a06:	fa01 f303 	lsl.w	r3, r1, r3
 8003a0a:	43db      	mvns	r3, r3
 8003a0c:	401a      	ands	r2, r3
 8003a0e:	687b      	ldr	r3, [r7, #4]
 8003a10:	60da      	str	r2, [r3, #12]

#if defined(STM32L471xx) || defined(STM32L475xx) || defined(STM32L476xx) || defined(STM32L485xx) || defined(STM32L486xx)
      /* Deactivate the Control bit of Analog mode for the current IO */
      GPIOx->ASCR &= ~(GPIO_ASCR_ASC0<< position);
 8003a12:	687b      	ldr	r3, [r7, #4]
 8003a14:	6ada      	ldr	r2, [r3, #44]	; 0x2c
 8003a16:	2101      	movs	r1, #1
 8003a18:	697b      	ldr	r3, [r7, #20]
 8003a1a:	fa01 f303 	lsl.w	r3, r1, r3
 8003a1e:	43db      	mvns	r3, r3
 8003a20:	401a      	ands	r2, r3
 8003a22:	687b      	ldr	r3, [r7, #4]
 8003a24:	62da      	str	r2, [r3, #44]	; 0x2c
#endif /* STM32L471xx || STM32L475xx || STM32L476xx || STM32L485xx || STM32L486xx */
    }

    position++;
 8003a26:	697b      	ldr	r3, [r7, #20]
 8003a28:	3301      	adds	r3, #1
 8003a2a:	617b      	str	r3, [r7, #20]
  while ((GPIO_Pin >> position) != 0x00u)
 8003a2c:	683a      	ldr	r2, [r7, #0]
 8003a2e:	697b      	ldr	r3, [r7, #20]
 8003a30:	fa22 f303 	lsr.w	r3, r2, r3
 8003a34:	2b00      	cmp	r3, #0
 8003a36:	f47f af2b 	bne.w	8003890 <HAL_GPIO_DeInit+0x10>
  }
}
 8003a3a:	bf00      	nop
 8003a3c:	bf00      	nop
 8003a3e:	371c      	adds	r7, #28
 8003a40:	46bd      	mov	sp, r7
 8003a42:	f85d 7b04 	ldr.w	r7, [sp], #4
 8003a46:	4770      	bx	lr
 8003a48:	40010000 	.word	0x40010000
 8003a4c:	48000400 	.word	0x48000400
 8003a50:	48000800 	.word	0x48000800
 8003a54:	48000c00 	.word	0x48000c00
 8003a58:	48001000 	.word	0x48001000
 8003a5c:	48001400 	.word	0x48001400
 8003a60:	48001800 	.word	0x48001800
 8003a64:	40010400 	.word	0x40010400

08003a68 <HAL_GPIO_ReadPin>:
  * @param  GPIO_Pin specifies the port bit to read.
  *         This parameter can be any combination of GPIO_Pin_x where x can be (0..15).
  * @retval The input port pin value.
  */
GPIO_PinState HAL_GPIO_ReadPin(GPIO_TypeDef* GPIOx, uint16_t GPIO_Pin)
{
 8003a68:	b480      	push	{r7}
 8003a6a:	b085      	sub	sp, #20
 8003a6c:	af00      	add	r7, sp, #0
 8003a6e:	6078      	str	r0, [r7, #4]
 8003a70:	460b      	mov	r3, r1
 8003a72:	807b      	strh	r3, [r7, #2]
  GPIO_PinState bitstatus;

  /* Check the parameters */
  assert_param(IS_GPIO_PIN(GPIO_Pin));

  if ((GPIOx->IDR & GPIO_Pin) != 0x00u)
 8003a74:	687b      	ldr	r3, [r7, #4]
 8003a76:	691a      	ldr	r2, [r3, #16]
 8003a78:	887b      	ldrh	r3, [r7, #2]
 8003a7a:	4013      	ands	r3, r2
 8003a7c:	2b00      	cmp	r3, #0
 8003a7e:	d002      	beq.n	8003a86 <HAL_GPIO_ReadPin+0x1e>
  {
    bitstatus = GPIO_PIN_SET;
 8003a80:	2301      	movs	r3, #1
 8003a82:	73fb      	strb	r3, [r7, #15]
 8003a84:	e001      	b.n	8003a8a <HAL_GPIO_ReadPin+0x22>
  }
  else
  {
    bitstatus = GPIO_PIN_RESET;
 8003a86:	2300      	movs	r3, #0
 8003a88:	73fb      	strb	r3, [r7, #15]
  }
  return bitstatus;
 8003a8a:	7bfb      	ldrb	r3, [r7, #15]
}
 8003a8c:	4618      	mov	r0, r3
 8003a8e:	3714      	adds	r7, #20
 8003a90:	46bd      	mov	sp, r7
 8003a92:	f85d 7b04 	ldr.w	r7, [sp], #4
 8003a96:	4770      	bx	lr

08003a98 <HAL_GPIO_WritePin>:
  *            @arg GPIO_PIN_RESET: to clear the port pin
  *            @arg GPIO_PIN_SET: to set the port pin
  * @retval None
  */
void HAL_GPIO_WritePin(GPIO_TypeDef* GPIOx, uint16_t GPIO_Pin, GPIO_PinState PinState)
{
 8003a98:	b480      	push	{r7}
 8003a9a:	b083      	sub	sp, #12
 8003a9c:	af00      	add	r7, sp, #0
 8003a9e:	6078      	str	r0, [r7, #4]
 8003aa0:	460b      	mov	r3, r1
 8003aa2:	807b      	strh	r3, [r7, #2]
 8003aa4:	4613      	mov	r3, r2
 8003aa6:	707b      	strb	r3, [r7, #1]
  /* Check the parameters */
  assert_param(IS_GPIO_PIN(GPIO_Pin));
  assert_param(IS_GPIO_PIN_ACTION(PinState));

  if(PinState != GPIO_PIN_RESET)
 8003aa8:	787b      	ldrb	r3, [r7, #1]
 8003aaa:	2b00      	cmp	r3, #0
 8003aac:	d003      	beq.n	8003ab6 <HAL_GPIO_WritePin+0x1e>
  {
    GPIOx->BSRR = (uint32_t)GPIO_Pin;
 8003aae:	887a      	ldrh	r2, [r7, #2]
 8003ab0:	687b      	ldr	r3, [r7, #4]
 8003ab2:	619a      	str	r2, [r3, #24]
  }
  else
  {
    GPIOx->BRR = (uint32_t)GPIO_Pin;
  }
}
 8003ab4:	e002      	b.n	8003abc <HAL_GPIO_WritePin+0x24>
    GPIOx->BRR = (uint32_t)GPIO_Pin;
 8003ab6:	887a      	ldrh	r2, [r7, #2]
 8003ab8:	687b      	ldr	r3, [r7, #4]
 8003aba:	629a      	str	r2, [r3, #40]	; 0x28
}
 8003abc:	bf00      	nop
 8003abe:	370c      	adds	r7, #12
 8003ac0:	46bd      	mov	sp, r7
 8003ac2:	f85d 7b04 	ldr.w	r7, [sp], #4
 8003ac6:	4770      	bx	lr

08003ac8 <HAL_GPIO_TogglePin>:
  * @param  GPIOx where x can be (A..H) to select the GPIO peripheral for STM32L4 family
  * @param  GPIO_Pin specifies the pin to be toggled.
  * @retval None
  */
void HAL_GPIO_TogglePin(GPIO_TypeDef* GPIOx, uint16_t GPIO_Pin)
{
 8003ac8:	b480      	push	{r7}
 8003aca:	b083      	sub	sp, #12
 8003acc:	af00      	add	r7, sp, #0
 8003ace:	6078      	str	r0, [r7, #4]
 8003ad0:	460b      	mov	r3, r1
 8003ad2:	807b      	strh	r3, [r7, #2]
  /* Check the parameters */
  assert_param(IS_GPIO_PIN(GPIO_Pin));

  if ((GPIOx->ODR & GPIO_Pin) != 0x00u)
 8003ad4:	687b      	ldr	r3, [r7, #4]
 8003ad6:	695a      	ldr	r2, [r3, #20]
 8003ad8:	887b      	ldrh	r3, [r7, #2]
 8003ada:	4013      	ands	r3, r2
 8003adc:	2b00      	cmp	r3, #0
 8003ade:	d003      	beq.n	8003ae8 <HAL_GPIO_TogglePin+0x20>
  {
    GPIOx->BRR = (uint32_t)GPIO_Pin;
 8003ae0:	887a      	ldrh	r2, [r7, #2]
 8003ae2:	687b      	ldr	r3, [r7, #4]
 8003ae4:	629a      	str	r2, [r3, #40]	; 0x28
  }
  else
  {
    GPIOx->BSRR = (uint32_t)GPIO_Pin;
  }
}
 8003ae6:	e002      	b.n	8003aee <HAL_GPIO_TogglePin+0x26>
    GPIOx->BSRR = (uint32_t)GPIO_Pin;
 8003ae8:	887a      	ldrh	r2, [r7, #2]
 8003aea:	687b      	ldr	r3, [r7, #4]
 8003aec:	619a      	str	r2, [r3, #24]
}
 8003aee:	bf00      	nop
 8003af0:	370c      	adds	r7, #12
 8003af2:	46bd      	mov	sp, r7
 8003af4:	f85d 7b04 	ldr.w	r7, [sp], #4
 8003af8:	4770      	bx	lr
	...

08003afc <HAL_GPIO_EXTI_IRQHandler>:
  * @brief  Handle EXTI interrupt request.
  * @param  GPIO_Pin Specifies the port pin connected to corresponding EXTI line.
  * @retval None
  */
void HAL_GPIO_EXTI_IRQHandler(uint16_t GPIO_Pin)
{
 8003afc:	b580      	push	{r7, lr}
 8003afe:	b082      	sub	sp, #8
 8003b00:	af00      	add	r7, sp, #0
 8003b02:	4603      	mov	r3, r0
 8003b04:	80fb      	strh	r3, [r7, #6]
  /* EXTI line interrupt detected */
  if(__HAL_GPIO_EXTI_GET_IT(GPIO_Pin) != 0x00u)
 8003b06:	4b08      	ldr	r3, [pc, #32]	; (8003b28 <HAL_GPIO_EXTI_IRQHandler+0x2c>)
 8003b08:	695a      	ldr	r2, [r3, #20]
 8003b0a:	88fb      	ldrh	r3, [r7, #6]
 8003b0c:	4013      	ands	r3, r2
 8003b0e:	2b00      	cmp	r3, #0
 8003b10:	d006      	beq.n	8003b20 <HAL_GPIO_EXTI_IRQHandler+0x24>
  {
    __HAL_GPIO_EXTI_CLEAR_IT(GPIO_Pin);
 8003b12:	4a05      	ldr	r2, [pc, #20]	; (8003b28 <HAL_GPIO_EXTI_IRQHandler+0x2c>)
 8003b14:	88fb      	ldrh	r3, [r7, #6]
 8003b16:	6153      	str	r3, [r2, #20]
    HAL_GPIO_EXTI_Callback(GPIO_Pin);
 8003b18:	88fb      	ldrh	r3, [r7, #6]
 8003b1a:	4618      	mov	r0, r3
 8003b1c:	f7fd f9c6 	bl	8000eac <HAL_GPIO_EXTI_Callback>
  }
}
 8003b20:	bf00      	nop
 8003b22:	3708      	adds	r7, #8
 8003b24:	46bd      	mov	sp, r7
 8003b26:	bd80      	pop	{r7, pc}
 8003b28:	40010400 	.word	0x40010400

08003b2c <HAL_I2C_Init>:
  * @param  hi2c Pointer to a I2C_HandleTypeDef structure that contains
  *                the configuration information for the specified I2C.
  * @retval HAL status
  */
HAL_StatusTypeDef HAL_I2C_Init(I2C_HandleTypeDef *hi2c)
{
 8003b2c:	b580      	push	{r7, lr}
 8003b2e:	b082      	sub	sp, #8
 8003b30:	af00      	add	r7, sp, #0
 8003b32:	6078      	str	r0, [r7, #4]
  /* Check the I2C handle allocation */
  if (hi2c == NULL)
 8003b34:	687b      	ldr	r3, [r7, #4]
 8003b36:	2b00      	cmp	r3, #0
 8003b38:	d101      	bne.n	8003b3e <HAL_I2C_Init+0x12>
  {
    return HAL_ERROR;
 8003b3a:	2301      	movs	r3, #1
 8003b3c:	e081      	b.n	8003c42 <HAL_I2C_Init+0x116>
  assert_param(IS_I2C_OWN_ADDRESS2(hi2c->Init.OwnAddress2));
  assert_param(IS_I2C_OWN_ADDRESS2_MASK(hi2c->Init.OwnAddress2Masks));
  assert_param(IS_I2C_GENERAL_CALL(hi2c->Init.GeneralCallMode));
  assert_param(IS_I2C_NO_STRETCH(hi2c->Init.NoStretchMode));

  if (hi2c->State == HAL_I2C_STATE_RESET)
 8003b3e:	687b      	ldr	r3, [r7, #4]
 8003b40:	f893 3041 	ldrb.w	r3, [r3, #65]	; 0x41
 8003b44:	b2db      	uxtb	r3, r3
 8003b46:	2b00      	cmp	r3, #0
 8003b48:	d106      	bne.n	8003b58 <HAL_I2C_Init+0x2c>
  {
    /* Allocate lock resource and initialize it */
    hi2c->Lock = HAL_UNLOCKED;
 8003b4a:	687b      	ldr	r3, [r7, #4]
 8003b4c:	2200      	movs	r2, #0
 8003b4e:	f883 2040 	strb.w	r2, [r3, #64]	; 0x40

    /* Init the low level hardware : GPIO, CLOCK, CORTEX...etc */
    hi2c->MspInitCallback(hi2c);
#else
    /* Init the low level hardware : GPIO, CLOCK, CORTEX...etc */
    HAL_I2C_MspInit(hi2c);
 8003b52:	6878      	ldr	r0, [r7, #4]
 8003b54:	f7fe f96c 	bl	8001e30 <HAL_I2C_MspInit>
#endif /* USE_HAL_I2C_REGISTER_CALLBACKS */
  }

  hi2c->State = HAL_I2C_STATE_BUSY;
 8003b58:	687b      	ldr	r3, [r7, #4]
 8003b5a:	2224      	movs	r2, #36	; 0x24
 8003b5c:	f883 2041 	strb.w	r2, [r3, #65]	; 0x41

  /* Disable the selected I2C peripheral */
  __HAL_I2C_DISABLE(hi2c);
 8003b60:	687b      	ldr	r3, [r7, #4]
 8003b62:	681b      	ldr	r3, [r3, #0]
 8003b64:	681a      	ldr	r2, [r3, #0]
 8003b66:	687b      	ldr	r3, [r7, #4]
 8003b68:	681b      	ldr	r3, [r3, #0]
 8003b6a:	f022 0201 	bic.w	r2, r2, #1
 8003b6e:	601a      	str	r2, [r3, #0]

  /*---------------------------- I2Cx TIMINGR Configuration ------------------*/
  /* Configure I2Cx: Frequency range */
  hi2c->Instance->TIMINGR = hi2c->Init.Timing & TIMING_CLEAR_MASK;
 8003b70:	687b      	ldr	r3, [r7, #4]
 8003b72:	685a      	ldr	r2, [r3, #4]
 8003b74:	687b      	ldr	r3, [r7, #4]
 8003b76:	681b      	ldr	r3, [r3, #0]
 8003b78:	f022 6270 	bic.w	r2, r2, #251658240	; 0xf000000
 8003b7c:	611a      	str	r2, [r3, #16]

  /*---------------------------- I2Cx OAR1 Configuration ---------------------*/
  /* Disable Own Address1 before set the Own Address1 configuration */
  hi2c->Instance->OAR1 &= ~I2C_OAR1_OA1EN;
 8003b7e:	687b      	ldr	r3, [r7, #4]
 8003b80:	681b      	ldr	r3, [r3, #0]
 8003b82:	689a      	ldr	r2, [r3, #8]
 8003b84:	687b      	ldr	r3, [r7, #4]
 8003b86:	681b      	ldr	r3, [r3, #0]
 8003b88:	f422 4200 	bic.w	r2, r2, #32768	; 0x8000
 8003b8c:	609a      	str	r2, [r3, #8]

  /* Configure I2Cx: Own Address1 and ack own address1 mode */
  if (hi2c->Init.AddressingMode == I2C_ADDRESSINGMODE_7BIT)
 8003b8e:	687b      	ldr	r3, [r7, #4]
 8003b90:	68db      	ldr	r3, [r3, #12]
 8003b92:	2b01      	cmp	r3, #1
 8003b94:	d107      	bne.n	8003ba6 <HAL_I2C_Init+0x7a>
  {
    hi2c->Instance->OAR1 = (I2C_OAR1_OA1EN | hi2c->Init.OwnAddress1);
 8003b96:	687b      	ldr	r3, [r7, #4]
 8003b98:	689a      	ldr	r2, [r3, #8]
 8003b9a:	687b      	ldr	r3, [r7, #4]
 8003b9c:	681b      	ldr	r3, [r3, #0]
 8003b9e:	f442 4200 	orr.w	r2, r2, #32768	; 0x8000
 8003ba2:	609a      	str	r2, [r3, #8]
 8003ba4:	e006      	b.n	8003bb4 <HAL_I2C_Init+0x88>
  }
  else /* I2C_ADDRESSINGMODE_10BIT */
  {
    hi2c->Instance->OAR1 = (I2C_OAR1_OA1EN | I2C_OAR1_OA1MODE | hi2c->Init.OwnAddress1);
 8003ba6:	687b      	ldr	r3, [r7, #4]
 8003ba8:	689a      	ldr	r2, [r3, #8]
 8003baa:	687b      	ldr	r3, [r7, #4]
 8003bac:	681b      	ldr	r3, [r3, #0]
 8003bae:	f442 4204 	orr.w	r2, r2, #33792	; 0x8400
 8003bb2:	609a      	str	r2, [r3, #8]
  }

  /*---------------------------- I2Cx CR2 Configuration ----------------------*/
  /* Configure I2Cx: Addressing Master mode */
  if (hi2c->Init.AddressingMode == I2C_ADDRESSINGMODE_10BIT)
 8003bb4:	687b      	ldr	r3, [r7, #4]
 8003bb6:	68db      	ldr	r3, [r3, #12]
 8003bb8:	2b02      	cmp	r3, #2
 8003bba:	d104      	bne.n	8003bc6 <HAL_I2C_Init+0x9a>
  {
    hi2c->Instance->CR2 = (I2C_CR2_ADD10);
 8003bbc:	687b      	ldr	r3, [r7, #4]
 8003bbe:	681b      	ldr	r3, [r3, #0]
 8003bc0:	f44f 6200 	mov.w	r2, #2048	; 0x800
 8003bc4:	605a      	str	r2, [r3, #4]
  }
  /* Enable the AUTOEND by default, and enable NACK (should be disable only during Slave process */
  hi2c->Instance->CR2 |= (I2C_CR2_AUTOEND | I2C_CR2_NACK);
 8003bc6:	687b      	ldr	r3, [r7, #4]
 8003bc8:	681b      	ldr	r3, [r3, #0]
 8003bca:	685b      	ldr	r3, [r3, #4]
 8003bcc:	687a      	ldr	r2, [r7, #4]
 8003bce:	6812      	ldr	r2, [r2, #0]
 8003bd0:	f043 7300 	orr.w	r3, r3, #33554432	; 0x2000000
 8003bd4:	f443 4300 	orr.w	r3, r3, #32768	; 0x8000
 8003bd8:	6053      	str	r3, [r2, #4]

  /*---------------------------- I2Cx OAR2 Configuration ---------------------*/
  /* Disable Own Address2 before set the Own Address2 configuration */
  hi2c->Instance->OAR2 &= ~I2C_DUALADDRESS_ENABLE;
 8003bda:	687b      	ldr	r3, [r7, #4]
 8003bdc:	681b      	ldr	r3, [r3, #0]
 8003bde:	68da      	ldr	r2, [r3, #12]
 8003be0:	687b      	ldr	r3, [r7, #4]
 8003be2:	681b      	ldr	r3, [r3, #0]
 8003be4:	f422 4200 	bic.w	r2, r2, #32768	; 0x8000
 8003be8:	60da      	str	r2, [r3, #12]

  /* Configure I2Cx: Dual mode and Own Address2 */
  hi2c->Instance->OAR2 = (hi2c->Init.DualAddressMode | hi2c->Init.OwnAddress2 | (hi2c->Init.OwnAddress2Masks << 8));
 8003bea:	687b      	ldr	r3, [r7, #4]
 8003bec:	691a      	ldr	r2, [r3, #16]
 8003bee:	687b      	ldr	r3, [r7, #4]
 8003bf0:	695b      	ldr	r3, [r3, #20]
 8003bf2:	ea42 0103 	orr.w	r1, r2, r3
 8003bf6:	687b      	ldr	r3, [r7, #4]
 8003bf8:	699b      	ldr	r3, [r3, #24]
 8003bfa:	021a      	lsls	r2, r3, #8
 8003bfc:	687b      	ldr	r3, [r7, #4]
 8003bfe:	681b      	ldr	r3, [r3, #0]
 8003c00:	430a      	orrs	r2, r1
 8003c02:	60da      	str	r2, [r3, #12]

  /*---------------------------- I2Cx CR1 Configuration ----------------------*/
  /* Configure I2Cx: Generalcall and NoStretch mode */
  hi2c->Instance->CR1 = (hi2c->Init.GeneralCallMode | hi2c->Init.NoStretchMode);
 8003c04:	687b      	ldr	r3, [r7, #4]
 8003c06:	69d9      	ldr	r1, [r3, #28]
 8003c08:	687b      	ldr	r3, [r7, #4]
 8003c0a:	6a1a      	ldr	r2, [r3, #32]
 8003c0c:	687b      	ldr	r3, [r7, #4]
 8003c0e:	681b      	ldr	r3, [r3, #0]
 8003c10:	430a      	orrs	r2, r1
 8003c12:	601a      	str	r2, [r3, #0]

  /* Enable the selected I2C peripheral */
  __HAL_I2C_ENABLE(hi2c);
 8003c14:	687b      	ldr	r3, [r7, #4]
 8003c16:	681b      	ldr	r3, [r3, #0]
 8003c18:	681a      	ldr	r2, [r3, #0]
 8003c1a:	687b      	ldr	r3, [r7, #4]
 8003c1c:	681b      	ldr	r3, [r3, #0]
 8003c1e:	f042 0201 	orr.w	r2, r2, #1
 8003c22:	601a      	str	r2, [r3, #0]

  hi2c->ErrorCode = HAL_I2C_ERROR_NONE;
 8003c24:	687b      	ldr	r3, [r7, #4]
 8003c26:	2200      	movs	r2, #0
 8003c28:	645a      	str	r2, [r3, #68]	; 0x44
  hi2c->State = HAL_I2C_STATE_READY;
 8003c2a:	687b      	ldr	r3, [r7, #4]
 8003c2c:	2220      	movs	r2, #32
 8003c2e:	f883 2041 	strb.w	r2, [r3, #65]	; 0x41
  hi2c->PreviousState = I2C_STATE_NONE;
 8003c32:	687b      	ldr	r3, [r7, #4]
 8003c34:	2200      	movs	r2, #0
 8003c36:	631a      	str	r2, [r3, #48]	; 0x30
  hi2c->Mode = HAL_I2C_MODE_NONE;
 8003c38:	687b      	ldr	r3, [r7, #4]
 8003c3a:	2200      	movs	r2, #0
 8003c3c:	f883 2042 	strb.w	r2, [r3, #66]	; 0x42

  return HAL_OK;
 8003c40:	2300      	movs	r3, #0
}
 8003c42:	4618      	mov	r0, r3
 8003c44:	3708      	adds	r7, #8
 8003c46:	46bd      	mov	sp, r7
 8003c48:	bd80      	pop	{r7, pc}

08003c4a <HAL_I2C_DeInit>:
  * @param  hi2c Pointer to a I2C_HandleTypeDef structure that contains
  *                the configuration information for the specified I2C.
  * @retval HAL status
  */
HAL_StatusTypeDef HAL_I2C_DeInit(I2C_HandleTypeDef *hi2c)
{
 8003c4a:	b580      	push	{r7, lr}
 8003c4c:	b082      	sub	sp, #8
 8003c4e:	af00      	add	r7, sp, #0
 8003c50:	6078      	str	r0, [r7, #4]
  /* Check the I2C handle allocation */
  if (hi2c == NULL)
 8003c52:	687b      	ldr	r3, [r7, #4]
 8003c54:	2b00      	cmp	r3, #0
 8003c56:	d101      	bne.n	8003c5c <HAL_I2C_DeInit+0x12>
  {
    return HAL_ERROR;
 8003c58:	2301      	movs	r3, #1
 8003c5a:	e021      	b.n	8003ca0 <HAL_I2C_DeInit+0x56>
  }

  /* Check the parameters */
  assert_param(IS_I2C_ALL_INSTANCE(hi2c->Instance));

  hi2c->State = HAL_I2C_STATE_BUSY;
 8003c5c:	687b      	ldr	r3, [r7, #4]
 8003c5e:	2224      	movs	r2, #36	; 0x24
 8003c60:	f883 2041 	strb.w	r2, [r3, #65]	; 0x41

  /* Disable the I2C Peripheral Clock */
  __HAL_I2C_DISABLE(hi2c);
 8003c64:	687b      	ldr	r3, [r7, #4]
 8003c66:	681b      	ldr	r3, [r3, #0]
 8003c68:	681a      	ldr	r2, [r3, #0]
 8003c6a:	687b      	ldr	r3, [r7, #4]
 8003c6c:	681b      	ldr	r3, [r3, #0]
 8003c6e:	f022 0201 	bic.w	r2, r2, #1
 8003c72:	601a      	str	r2, [r3, #0]

  /* DeInit the low level hardware: GPIO, CLOCK, NVIC */
  hi2c->MspDeInitCallback(hi2c);
#else
  /* DeInit the low level hardware: GPIO, CLOCK, NVIC */
  HAL_I2C_MspDeInit(hi2c);
 8003c74:	6878      	ldr	r0, [r7, #4]
 8003c76:	f7fe f91f 	bl	8001eb8 <HAL_I2C_MspDeInit>
#endif /* USE_HAL_I2C_REGISTER_CALLBACKS */

  hi2c->ErrorCode = HAL_I2C_ERROR_NONE;
 8003c7a:	687b      	ldr	r3, [r7, #4]
 8003c7c:	2200      	movs	r2, #0
 8003c7e:	645a      	str	r2, [r3, #68]	; 0x44
  hi2c->State = HAL_I2C_STATE_RESET;
 8003c80:	687b      	ldr	r3, [r7, #4]
 8003c82:	2200      	movs	r2, #0
 8003c84:	f883 2041 	strb.w	r2, [r3, #65]	; 0x41
  hi2c->PreviousState = I2C_STATE_NONE;
 8003c88:	687b      	ldr	r3, [r7, #4]
 8003c8a:	2200      	movs	r2, #0
 8003c8c:	631a      	str	r2, [r3, #48]	; 0x30
  hi2c->Mode = HAL_I2C_MODE_NONE;
 8003c8e:	687b      	ldr	r3, [r7, #4]
 8003c90:	2200      	movs	r2, #0
 8003c92:	f883 2042 	strb.w	r2, [r3, #66]	; 0x42

  /* Release Lock */
  __HAL_UNLOCK(hi2c);
 8003c96:	687b      	ldr	r3, [r7, #4]
 8003c98:	2200      	movs	r2, #0
 8003c9a:	f883 2040 	strb.w	r2, [r3, #64]	; 0x40

  return HAL_OK;
 8003c9e:	2300      	movs	r3, #0
}
 8003ca0:	4618      	mov	r0, r3
 8003ca2:	3708      	adds	r7, #8
 8003ca4:	46bd      	mov	sp, r7
 8003ca6:	bd80      	pop	{r7, pc}

08003ca8 <HAL_I2C_Mem_Write>:
  * @param  Size Amount of data to be sent
  * @param  Timeout Timeout duration
  * @retval HAL status
  */
HAL_StatusTypeDef HAL_I2C_Mem_Write(I2C_HandleTypeDef *hi2c, uint16_t DevAddress, uint16_t MemAddress, uint16_t MemAddSize, uint8_t *pData, uint16_t Size, uint32_t Timeout)
{
 8003ca8:	b580      	push	{r7, lr}
 8003caa:	b088      	sub	sp, #32
 8003cac:	af02      	add	r7, sp, #8
 8003cae:	60f8      	str	r0, [r7, #12]
 8003cb0:	4608      	mov	r0, r1
 8003cb2:	4611      	mov	r1, r2
 8003cb4:	461a      	mov	r2, r3
 8003cb6:	4603      	mov	r3, r0
 8003cb8:	817b      	strh	r3, [r7, #10]
 8003cba:	460b      	mov	r3, r1
 8003cbc:	813b      	strh	r3, [r7, #8]
 8003cbe:	4613      	mov	r3, r2
 8003cc0:	80fb      	strh	r3, [r7, #6]
  uint32_t tickstart;

  /* Check the parameters */
  assert_param(IS_I2C_MEMADD_SIZE(MemAddSize));

  if (hi2c->State == HAL_I2C_STATE_READY)
 8003cc2:	68fb      	ldr	r3, [r7, #12]
 8003cc4:	f893 3041 	ldrb.w	r3, [r3, #65]	; 0x41
 8003cc8:	b2db      	uxtb	r3, r3
 8003cca:	2b20      	cmp	r3, #32
 8003ccc:	f040 80f9 	bne.w	8003ec2 <HAL_I2C_Mem_Write+0x21a>
  {
    if ((pData == NULL) || (Size == 0U))
 8003cd0:	6a3b      	ldr	r3, [r7, #32]
 8003cd2:	2b00      	cmp	r3, #0
 8003cd4:	d002      	beq.n	8003cdc <HAL_I2C_Mem_Write+0x34>
 8003cd6:	8cbb      	ldrh	r3, [r7, #36]	; 0x24
 8003cd8:	2b00      	cmp	r3, #0
 8003cda:	d105      	bne.n	8003ce8 <HAL_I2C_Mem_Write+0x40>
    {
      hi2c->ErrorCode = HAL_I2C_ERROR_INVALID_PARAM;
 8003cdc:	68fb      	ldr	r3, [r7, #12]
 8003cde:	f44f 7200 	mov.w	r2, #512	; 0x200
 8003ce2:	645a      	str	r2, [r3, #68]	; 0x44
      return  HAL_ERROR;
 8003ce4:	2301      	movs	r3, #1
 8003ce6:	e0ed      	b.n	8003ec4 <HAL_I2C_Mem_Write+0x21c>
    }

    /* Process Locked */
    __HAL_LOCK(hi2c);
 8003ce8:	68fb      	ldr	r3, [r7, #12]
 8003cea:	f893 3040 	ldrb.w	r3, [r3, #64]	; 0x40
 8003cee:	2b01      	cmp	r3, #1
 8003cf0:	d101      	bne.n	8003cf6 <HAL_I2C_Mem_Write+0x4e>
 8003cf2:	2302      	movs	r3, #2
 8003cf4:	e0e6      	b.n	8003ec4 <HAL_I2C_Mem_Write+0x21c>
 8003cf6:	68fb      	ldr	r3, [r7, #12]
 8003cf8:	2201      	movs	r2, #1
 8003cfa:	f883 2040 	strb.w	r2, [r3, #64]	; 0x40

    /* Init tickstart for timeout management*/
    tickstart = HAL_GetTick();
 8003cfe:	f7ff faf7 	bl	80032f0 <HAL_GetTick>
 8003d02:	6178      	str	r0, [r7, #20]

    if (I2C_WaitOnFlagUntilTimeout(hi2c, I2C_FLAG_BUSY, SET, I2C_TIMEOUT_BUSY, tickstart) != HAL_OK)
 8003d04:	697b      	ldr	r3, [r7, #20]
 8003d06:	9300      	str	r3, [sp, #0]
 8003d08:	2319      	movs	r3, #25
 8003d0a:	2201      	movs	r2, #1
 8003d0c:	f44f 4100 	mov.w	r1, #32768	; 0x8000
 8003d10:	68f8      	ldr	r0, [r7, #12]
 8003d12:	f000 fac3 	bl	800429c <I2C_WaitOnFlagUntilTimeout>
 8003d16:	4603      	mov	r3, r0
 8003d18:	2b00      	cmp	r3, #0
 8003d1a:	d001      	beq.n	8003d20 <HAL_I2C_Mem_Write+0x78>
    {
      return HAL_ERROR;
 8003d1c:	2301      	movs	r3, #1
 8003d1e:	e0d1      	b.n	8003ec4 <HAL_I2C_Mem_Write+0x21c>
    }

    hi2c->State     = HAL_I2C_STATE_BUSY_TX;
 8003d20:	68fb      	ldr	r3, [r7, #12]
 8003d22:	2221      	movs	r2, #33	; 0x21
 8003d24:	f883 2041 	strb.w	r2, [r3, #65]	; 0x41
    hi2c->Mode      = HAL_I2C_MODE_MEM;
 8003d28:	68fb      	ldr	r3, [r7, #12]
 8003d2a:	2240      	movs	r2, #64	; 0x40
 8003d2c:	f883 2042 	strb.w	r2, [r3, #66]	; 0x42
    hi2c->ErrorCode = HAL_I2C_ERROR_NONE;
 8003d30:	68fb      	ldr	r3, [r7, #12]
 8003d32:	2200      	movs	r2, #0
 8003d34:	645a      	str	r2, [r3, #68]	; 0x44

    /* Prepare transfer parameters */
    hi2c->pBuffPtr  = pData;
 8003d36:	68fb      	ldr	r3, [r7, #12]
 8003d38:	6a3a      	ldr	r2, [r7, #32]
 8003d3a:	625a      	str	r2, [r3, #36]	; 0x24
    hi2c->XferCount = Size;
 8003d3c:	68fb      	ldr	r3, [r7, #12]
 8003d3e:	8cba      	ldrh	r2, [r7, #36]	; 0x24
 8003d40:	855a      	strh	r2, [r3, #42]	; 0x2a
    hi2c->XferISR   = NULL;
 8003d42:	68fb      	ldr	r3, [r7, #12]
 8003d44:	2200      	movs	r2, #0
 8003d46:	635a      	str	r2, [r3, #52]	; 0x34

    /* Send Slave Address and Memory Address */
    if (I2C_RequestMemoryWrite(hi2c, DevAddress, MemAddress, MemAddSize, Timeout, tickstart) != HAL_OK)
 8003d48:	88f8      	ldrh	r0, [r7, #6]
 8003d4a:	893a      	ldrh	r2, [r7, #8]
 8003d4c:	8979      	ldrh	r1, [r7, #10]
 8003d4e:	697b      	ldr	r3, [r7, #20]
 8003d50:	9301      	str	r3, [sp, #4]
 8003d52:	6abb      	ldr	r3, [r7, #40]	; 0x28
 8003d54:	9300      	str	r3, [sp, #0]
 8003d56:	4603      	mov	r3, r0
 8003d58:	68f8      	ldr	r0, [r7, #12]
 8003d5a:	f000 f9d3 	bl	8004104 <I2C_RequestMemoryWrite>
 8003d5e:	4603      	mov	r3, r0
 8003d60:	2b00      	cmp	r3, #0
 8003d62:	d005      	beq.n	8003d70 <HAL_I2C_Mem_Write+0xc8>
    {
      /* Process Unlocked */
      __HAL_UNLOCK(hi2c);
 8003d64:	68fb      	ldr	r3, [r7, #12]
 8003d66:	2200      	movs	r2, #0
 8003d68:	f883 2040 	strb.w	r2, [r3, #64]	; 0x40
      return HAL_ERROR;
 8003d6c:	2301      	movs	r3, #1
 8003d6e:	e0a9      	b.n	8003ec4 <HAL_I2C_Mem_Write+0x21c>
    }

    /* Set NBYTES to write and reload if hi2c->XferCount > MAX_NBYTE_SIZE */
    if (hi2c->XferCount > MAX_NBYTE_SIZE)
 8003d70:	68fb      	ldr	r3, [r7, #12]
 8003d72:	8d5b      	ldrh	r3, [r3, #42]	; 0x2a
 8003d74:	b29b      	uxth	r3, r3
 8003d76:	2bff      	cmp	r3, #255	; 0xff
 8003d78:	d90e      	bls.n	8003d98 <HAL_I2C_Mem_Write+0xf0>
    {
      hi2c->XferSize = MAX_NBYTE_SIZE;
 8003d7a:	68fb      	ldr	r3, [r7, #12]
 8003d7c:	22ff      	movs	r2, #255	; 0xff
 8003d7e:	851a      	strh	r2, [r3, #40]	; 0x28
      I2C_TransferConfig(hi2c, DevAddress, (uint8_t)hi2c->XferSize, I2C_RELOAD_MODE, I2C_NO_STARTSTOP);
 8003d80:	68fb      	ldr	r3, [r7, #12]
 8003d82:	8d1b      	ldrh	r3, [r3, #40]	; 0x28
 8003d84:	b2da      	uxtb	r2, r3
 8003d86:	8979      	ldrh	r1, [r7, #10]
 8003d88:	2300      	movs	r3, #0
 8003d8a:	9300      	str	r3, [sp, #0]
 8003d8c:	f04f 7380 	mov.w	r3, #16777216	; 0x1000000
 8003d90:	68f8      	ldr	r0, [r7, #12]
 8003d92:	f000 fba5 	bl	80044e0 <I2C_TransferConfig>
 8003d96:	e00f      	b.n	8003db8 <HAL_I2C_Mem_Write+0x110>
    }
    else
    {
      hi2c->XferSize = hi2c->XferCount;
 8003d98:	68fb      	ldr	r3, [r7, #12]
 8003d9a:	8d5b      	ldrh	r3, [r3, #42]	; 0x2a
 8003d9c:	b29a      	uxth	r2, r3
 8003d9e:	68fb      	ldr	r3, [r7, #12]
 8003da0:	851a      	strh	r2, [r3, #40]	; 0x28
      I2C_TransferConfig(hi2c, DevAddress, (uint8_t)hi2c->XferSize, I2C_AUTOEND_MODE, I2C_NO_STARTSTOP);
 8003da2:	68fb      	ldr	r3, [r7, #12]
 8003da4:	8d1b      	ldrh	r3, [r3, #40]	; 0x28
 8003da6:	b2da      	uxtb	r2, r3
 8003da8:	8979      	ldrh	r1, [r7, #10]
 8003daa:	2300      	movs	r3, #0
 8003dac:	9300      	str	r3, [sp, #0]
 8003dae:	f04f 7300 	mov.w	r3, #33554432	; 0x2000000
 8003db2:	68f8      	ldr	r0, [r7, #12]
 8003db4:	f000 fb94 	bl	80044e0 <I2C_TransferConfig>
    }

    do
    {
      /* Wait until TXIS flag is set */
      if (I2C_WaitOnTXISFlagUntilTimeout(hi2c, Timeout, tickstart) != HAL_OK)
 8003db8:	697a      	ldr	r2, [r7, #20]
 8003dba:	6ab9      	ldr	r1, [r7, #40]	; 0x28
 8003dbc:	68f8      	ldr	r0, [r7, #12]
 8003dbe:	f000 faad 	bl	800431c <I2C_WaitOnTXISFlagUntilTimeout>
 8003dc2:	4603      	mov	r3, r0
 8003dc4:	2b00      	cmp	r3, #0
 8003dc6:	d001      	beq.n	8003dcc <HAL_I2C_Mem_Write+0x124>
      {
        return HAL_ERROR;
 8003dc8:	2301      	movs	r3, #1
 8003dca:	e07b      	b.n	8003ec4 <HAL_I2C_Mem_Write+0x21c>
      }

      /* Write data to TXDR */
      hi2c->Instance->TXDR = *hi2c->pBuffPtr;
 8003dcc:	68fb      	ldr	r3, [r7, #12]
 8003dce:	6a5b      	ldr	r3, [r3, #36]	; 0x24
 8003dd0:	781a      	ldrb	r2, [r3, #0]
 8003dd2:	68fb      	ldr	r3, [r7, #12]
 8003dd4:	681b      	ldr	r3, [r3, #0]
 8003dd6:	629a      	str	r2, [r3, #40]	; 0x28

      /* Increment Buffer pointer */
      hi2c->pBuffPtr++;
 8003dd8:	68fb      	ldr	r3, [r7, #12]
 8003dda:	6a5b      	ldr	r3, [r3, #36]	; 0x24
 8003ddc:	1c5a      	adds	r2, r3, #1
 8003dde:	68fb      	ldr	r3, [r7, #12]
 8003de0:	625a      	str	r2, [r3, #36]	; 0x24

      hi2c->XferCount--;
 8003de2:	68fb      	ldr	r3, [r7, #12]
 8003de4:	8d5b      	ldrh	r3, [r3, #42]	; 0x2a
 8003de6:	b29b      	uxth	r3, r3
 8003de8:	3b01      	subs	r3, #1
 8003dea:	b29a      	uxth	r2, r3
 8003dec:	68fb      	ldr	r3, [r7, #12]
 8003dee:	855a      	strh	r2, [r3, #42]	; 0x2a
      hi2c->XferSize--;
 8003df0:	68fb      	ldr	r3, [r7, #12]
 8003df2:	8d1b      	ldrh	r3, [r3, #40]	; 0x28
 8003df4:	3b01      	subs	r3, #1
 8003df6:	b29a      	uxth	r2, r3
 8003df8:	68fb      	ldr	r3, [r7, #12]
 8003dfa:	851a      	strh	r2, [r3, #40]	; 0x28

      if ((hi2c->XferCount != 0U) && (hi2c->XferSize == 0U))
 8003dfc:	68fb      	ldr	r3, [r7, #12]
 8003dfe:	8d5b      	ldrh	r3, [r3, #42]	; 0x2a
 8003e00:	b29b      	uxth	r3, r3
 8003e02:	2b00      	cmp	r3, #0
 8003e04:	d034      	beq.n	8003e70 <HAL_I2C_Mem_Write+0x1c8>
 8003e06:	68fb      	ldr	r3, [r7, #12]
 8003e08:	8d1b      	ldrh	r3, [r3, #40]	; 0x28
 8003e0a:	2b00      	cmp	r3, #0
 8003e0c:	d130      	bne.n	8003e70 <HAL_I2C_Mem_Write+0x1c8>
      {
        /* Wait until TCR flag is set */
        if (I2C_WaitOnFlagUntilTimeout(hi2c, I2C_FLAG_TCR, RESET, Timeout, tickstart) != HAL_OK)
 8003e0e:	697b      	ldr	r3, [r7, #20]
 8003e10:	9300      	str	r3, [sp, #0]
 8003e12:	6abb      	ldr	r3, [r7, #40]	; 0x28
 8003e14:	2200      	movs	r2, #0
 8003e16:	2180      	movs	r1, #128	; 0x80
 8003e18:	68f8      	ldr	r0, [r7, #12]
 8003e1a:	f000 fa3f 	bl	800429c <I2C_WaitOnFlagUntilTimeout>
 8003e1e:	4603      	mov	r3, r0
 8003e20:	2b00      	cmp	r3, #0
 8003e22:	d001      	beq.n	8003e28 <HAL_I2C_Mem_Write+0x180>
        {
          return HAL_ERROR;
 8003e24:	2301      	movs	r3, #1
 8003e26:	e04d      	b.n	8003ec4 <HAL_I2C_Mem_Write+0x21c>
        }

        if (hi2c->XferCount > MAX_NBYTE_SIZE)
 8003e28:	68fb      	ldr	r3, [r7, #12]
 8003e2a:	8d5b      	ldrh	r3, [r3, #42]	; 0x2a
 8003e2c:	b29b      	uxth	r3, r3
 8003e2e:	2bff      	cmp	r3, #255	; 0xff
 8003e30:	d90e      	bls.n	8003e50 <HAL_I2C_Mem_Write+0x1a8>
        {
          hi2c->XferSize = MAX_NBYTE_SIZE;
 8003e32:	68fb      	ldr	r3, [r7, #12]
 8003e34:	22ff      	movs	r2, #255	; 0xff
 8003e36:	851a      	strh	r2, [r3, #40]	; 0x28
          I2C_TransferConfig(hi2c, DevAddress, (uint8_t)hi2c->XferSize, I2C_RELOAD_MODE, I2C_NO_STARTSTOP);
 8003e38:	68fb      	ldr	r3, [r7, #12]
 8003e3a:	8d1b      	ldrh	r3, [r3, #40]	; 0x28
 8003e3c:	b2da      	uxtb	r2, r3
 8003e3e:	8979      	ldrh	r1, [r7, #10]
 8003e40:	2300      	movs	r3, #0
 8003e42:	9300      	str	r3, [sp, #0]
 8003e44:	f04f 7380 	mov.w	r3, #16777216	; 0x1000000
 8003e48:	68f8      	ldr	r0, [r7, #12]
 8003e4a:	f000 fb49 	bl	80044e0 <I2C_TransferConfig>
 8003e4e:	e00f      	b.n	8003e70 <HAL_I2C_Mem_Write+0x1c8>
        }
        else
        {
          hi2c->XferSize = hi2c->XferCount;
 8003e50:	68fb      	ldr	r3, [r7, #12]
 8003e52:	8d5b      	ldrh	r3, [r3, #42]	; 0x2a
 8003e54:	b29a      	uxth	r2, r3
 8003e56:	68fb      	ldr	r3, [r7, #12]
 8003e58:	851a      	strh	r2, [r3, #40]	; 0x28
          I2C_TransferConfig(hi2c, DevAddress, (uint8_t)hi2c->XferSize, I2C_AUTOEND_MODE, I2C_NO_STARTSTOP);
 8003e5a:	68fb      	ldr	r3, [r7, #12]
 8003e5c:	8d1b      	ldrh	r3, [r3, #40]	; 0x28
 8003e5e:	b2da      	uxtb	r2, r3
 8003e60:	8979      	ldrh	r1, [r7, #10]
 8003e62:	2300      	movs	r3, #0
 8003e64:	9300      	str	r3, [sp, #0]
 8003e66:	f04f 7300 	mov.w	r3, #33554432	; 0x2000000
 8003e6a:	68f8      	ldr	r0, [r7, #12]
 8003e6c:	f000 fb38 	bl	80044e0 <I2C_TransferConfig>
        }
      }

    }
    while (hi2c->XferCount > 0U);
 8003e70:	68fb      	ldr	r3, [r7, #12]
 8003e72:	8d5b      	ldrh	r3, [r3, #42]	; 0x2a
 8003e74:	b29b      	uxth	r3, r3
 8003e76:	2b00      	cmp	r3, #0
 8003e78:	d19e      	bne.n	8003db8 <HAL_I2C_Mem_Write+0x110>

    /* No need to Check TC flag, with AUTOEND mode the stop is automatically generated */
    /* Wait until STOPF flag is reset */
    if (I2C_WaitOnSTOPFlagUntilTimeout(hi2c, Timeout, tickstart) != HAL_OK)
 8003e7a:	697a      	ldr	r2, [r7, #20]
 8003e7c:	6ab9      	ldr	r1, [r7, #40]	; 0x28
 8003e7e:	68f8      	ldr	r0, [r7, #12]
 8003e80:	f000 fa8c 	bl	800439c <I2C_WaitOnSTOPFlagUntilTimeout>
 8003e84:	4603      	mov	r3, r0
 8003e86:	2b00      	cmp	r3, #0
 8003e88:	d001      	beq.n	8003e8e <HAL_I2C_Mem_Write+0x1e6>
    {
      return HAL_ERROR;
 8003e8a:	2301      	movs	r3, #1
 8003e8c:	e01a      	b.n	8003ec4 <HAL_I2C_Mem_Write+0x21c>
    }

    /* Clear STOP Flag */
    __HAL_I2C_CLEAR_FLAG(hi2c, I2C_FLAG_STOPF);
 8003e8e:	68fb      	ldr	r3, [r7, #12]
 8003e90:	681b      	ldr	r3, [r3, #0]
 8003e92:	2220      	movs	r2, #32
 8003e94:	61da      	str	r2, [r3, #28]

    /* Clear Configuration Register 2 */
    I2C_RESET_CR2(hi2c);
 8003e96:	68fb      	ldr	r3, [r7, #12]
 8003e98:	681b      	ldr	r3, [r3, #0]
 8003e9a:	6859      	ldr	r1, [r3, #4]
 8003e9c:	68fb      	ldr	r3, [r7, #12]
 8003e9e:	681a      	ldr	r2, [r3, #0]
 8003ea0:	4b0a      	ldr	r3, [pc, #40]	; (8003ecc <HAL_I2C_Mem_Write+0x224>)
 8003ea2:	400b      	ands	r3, r1
 8003ea4:	6053      	str	r3, [r2, #4]

    hi2c->State = HAL_I2C_STATE_READY;
 8003ea6:	68fb      	ldr	r3, [r7, #12]
 8003ea8:	2220      	movs	r2, #32
 8003eaa:	f883 2041 	strb.w	r2, [r3, #65]	; 0x41
    hi2c->Mode  = HAL_I2C_MODE_NONE;
 8003eae:	68fb      	ldr	r3, [r7, #12]
 8003eb0:	2200      	movs	r2, #0
 8003eb2:	f883 2042 	strb.w	r2, [r3, #66]	; 0x42

    /* Process Unlocked */
    __HAL_UNLOCK(hi2c);
 8003eb6:	68fb      	ldr	r3, [r7, #12]
 8003eb8:	2200      	movs	r2, #0
 8003eba:	f883 2040 	strb.w	r2, [r3, #64]	; 0x40

    return HAL_OK;
 8003ebe:	2300      	movs	r3, #0
 8003ec0:	e000      	b.n	8003ec4 <HAL_I2C_Mem_Write+0x21c>
  }
  else
  {
    return HAL_BUSY;
 8003ec2:	2302      	movs	r3, #2
  }
}
 8003ec4:	4618      	mov	r0, r3
 8003ec6:	3718      	adds	r7, #24
 8003ec8:	46bd      	mov	sp, r7
 8003eca:	bd80      	pop	{r7, pc}
 8003ecc:	fe00e800 	.word	0xfe00e800

08003ed0 <HAL_I2C_Mem_Read>:
  * @param  Size Amount of data to be sent
  * @param  Timeout Timeout duration
  * @retval HAL status
  */
HAL_StatusTypeDef HAL_I2C_Mem_Read(I2C_HandleTypeDef *hi2c, uint16_t DevAddress, uint16_t MemAddress, uint16_t MemAddSize, uint8_t *pData, uint16_t Size, uint32_t Timeout)
{
 8003ed0:	b580      	push	{r7, lr}
 8003ed2:	b088      	sub	sp, #32
 8003ed4:	af02      	add	r7, sp, #8
 8003ed6:	60f8      	str	r0, [r7, #12]
 8003ed8:	4608      	mov	r0, r1
 8003eda:	4611      	mov	r1, r2
 8003edc:	461a      	mov	r2, r3
 8003ede:	4603      	mov	r3, r0
 8003ee0:	817b      	strh	r3, [r7, #10]
 8003ee2:	460b      	mov	r3, r1
 8003ee4:	813b      	strh	r3, [r7, #8]
 8003ee6:	4613      	mov	r3, r2
 8003ee8:	80fb      	strh	r3, [r7, #6]
  uint32_t tickstart;

  /* Check the parameters */
  assert_param(IS_I2C_MEMADD_SIZE(MemAddSize));

  if (hi2c->State == HAL_I2C_STATE_READY)
 8003eea:	68fb      	ldr	r3, [r7, #12]
 8003eec:	f893 3041 	ldrb.w	r3, [r3, #65]	; 0x41
 8003ef0:	b2db      	uxtb	r3, r3
 8003ef2:	2b20      	cmp	r3, #32
 8003ef4:	f040 80fd 	bne.w	80040f2 <HAL_I2C_Mem_Read+0x222>
  {
    if ((pData == NULL) || (Size == 0U))
 8003ef8:	6a3b      	ldr	r3, [r7, #32]
 8003efa:	2b00      	cmp	r3, #0
 8003efc:	d002      	beq.n	8003f04 <HAL_I2C_Mem_Read+0x34>
 8003efe:	8cbb      	ldrh	r3, [r7, #36]	; 0x24
 8003f00:	2b00      	cmp	r3, #0
 8003f02:	d105      	bne.n	8003f10 <HAL_I2C_Mem_Read+0x40>
    {
      hi2c->ErrorCode = HAL_I2C_ERROR_INVALID_PARAM;
 8003f04:	68fb      	ldr	r3, [r7, #12]
 8003f06:	f44f 7200 	mov.w	r2, #512	; 0x200
 8003f0a:	645a      	str	r2, [r3, #68]	; 0x44
      return  HAL_ERROR;
 8003f0c:	2301      	movs	r3, #1
 8003f0e:	e0f1      	b.n	80040f4 <HAL_I2C_Mem_Read+0x224>
    }

    /* Process Locked */
    __HAL_LOCK(hi2c);
 8003f10:	68fb      	ldr	r3, [r7, #12]
 8003f12:	f893 3040 	ldrb.w	r3, [r3, #64]	; 0x40
 8003f16:	2b01      	cmp	r3, #1
 8003f18:	d101      	bne.n	8003f1e <HAL_I2C_Mem_Read+0x4e>
 8003f1a:	2302      	movs	r3, #2
 8003f1c:	e0ea      	b.n	80040f4 <HAL_I2C_Mem_Read+0x224>
 8003f1e:	68fb      	ldr	r3, [r7, #12]
 8003f20:	2201      	movs	r2, #1
 8003f22:	f883 2040 	strb.w	r2, [r3, #64]	; 0x40

    /* Init tickstart for timeout management*/
    tickstart = HAL_GetTick();
 8003f26:	f7ff f9e3 	bl	80032f0 <HAL_GetTick>
 8003f2a:	6178      	str	r0, [r7, #20]

    if (I2C_WaitOnFlagUntilTimeout(hi2c, I2C_FLAG_BUSY, SET, I2C_TIMEOUT_BUSY, tickstart) != HAL_OK)
 8003f2c:	697b      	ldr	r3, [r7, #20]
 8003f2e:	9300      	str	r3, [sp, #0]
 8003f30:	2319      	movs	r3, #25
 8003f32:	2201      	movs	r2, #1
 8003f34:	f44f 4100 	mov.w	r1, #32768	; 0x8000
 8003f38:	68f8      	ldr	r0, [r7, #12]
 8003f3a:	f000 f9af 	bl	800429c <I2C_WaitOnFlagUntilTimeout>
 8003f3e:	4603      	mov	r3, r0
 8003f40:	2b00      	cmp	r3, #0
 8003f42:	d001      	beq.n	8003f48 <HAL_I2C_Mem_Read+0x78>
    {
      return HAL_ERROR;
 8003f44:	2301      	movs	r3, #1
 8003f46:	e0d5      	b.n	80040f4 <HAL_I2C_Mem_Read+0x224>
    }

    hi2c->State     = HAL_I2C_STATE_BUSY_RX;
 8003f48:	68fb      	ldr	r3, [r7, #12]
 8003f4a:	2222      	movs	r2, #34	; 0x22
 8003f4c:	f883 2041 	strb.w	r2, [r3, #65]	; 0x41
    hi2c->Mode      = HAL_I2C_MODE_MEM;
 8003f50:	68fb      	ldr	r3, [r7, #12]
 8003f52:	2240      	movs	r2, #64	; 0x40
 8003f54:	f883 2042 	strb.w	r2, [r3, #66]	; 0x42
    hi2c->ErrorCode = HAL_I2C_ERROR_NONE;
 8003f58:	68fb      	ldr	r3, [r7, #12]
 8003f5a:	2200      	movs	r2, #0
 8003f5c:	645a      	str	r2, [r3, #68]	; 0x44

    /* Prepare transfer parameters */
    hi2c->pBuffPtr  = pData;
 8003f5e:	68fb      	ldr	r3, [r7, #12]
 8003f60:	6a3a      	ldr	r2, [r7, #32]
 8003f62:	625a      	str	r2, [r3, #36]	; 0x24
    hi2c->XferCount = Size;
 8003f64:	68fb      	ldr	r3, [r7, #12]
 8003f66:	8cba      	ldrh	r2, [r7, #36]	; 0x24
 8003f68:	855a      	strh	r2, [r3, #42]	; 0x2a
    hi2c->XferISR   = NULL;
 8003f6a:	68fb      	ldr	r3, [r7, #12]
 8003f6c:	2200      	movs	r2, #0
 8003f6e:	635a      	str	r2, [r3, #52]	; 0x34

    /* Send Slave Address and Memory Address */
    if (I2C_RequestMemoryRead(hi2c, DevAddress, MemAddress, MemAddSize, Timeout, tickstart) != HAL_OK)
 8003f70:	88f8      	ldrh	r0, [r7, #6]
 8003f72:	893a      	ldrh	r2, [r7, #8]
 8003f74:	8979      	ldrh	r1, [r7, #10]
 8003f76:	697b      	ldr	r3, [r7, #20]
 8003f78:	9301      	str	r3, [sp, #4]
 8003f7a:	6abb      	ldr	r3, [r7, #40]	; 0x28
 8003f7c:	9300      	str	r3, [sp, #0]
 8003f7e:	4603      	mov	r3, r0
 8003f80:	68f8      	ldr	r0, [r7, #12]
 8003f82:	f000 f913 	bl	80041ac <I2C_RequestMemoryRead>
 8003f86:	4603      	mov	r3, r0
 8003f88:	2b00      	cmp	r3, #0
 8003f8a:	d005      	beq.n	8003f98 <HAL_I2C_Mem_Read+0xc8>
    {
      /* Process Unlocked */
      __HAL_UNLOCK(hi2c);
 8003f8c:	68fb      	ldr	r3, [r7, #12]
 8003f8e:	2200      	movs	r2, #0
 8003f90:	f883 2040 	strb.w	r2, [r3, #64]	; 0x40
      return HAL_ERROR;
 8003f94:	2301      	movs	r3, #1
 8003f96:	e0ad      	b.n	80040f4 <HAL_I2C_Mem_Read+0x224>
    }

    /* Send Slave Address */
    /* Set NBYTES to write and reload if hi2c->XferCount > MAX_NBYTE_SIZE and generate RESTART */
    if (hi2c->XferCount > MAX_NBYTE_SIZE)
 8003f98:	68fb      	ldr	r3, [r7, #12]
 8003f9a:	8d5b      	ldrh	r3, [r3, #42]	; 0x2a
 8003f9c:	b29b      	uxth	r3, r3
 8003f9e:	2bff      	cmp	r3, #255	; 0xff
 8003fa0:	d90e      	bls.n	8003fc0 <HAL_I2C_Mem_Read+0xf0>
    {
      hi2c->XferSize = MAX_NBYTE_SIZE;
 8003fa2:	68fb      	ldr	r3, [r7, #12]
 8003fa4:	22ff      	movs	r2, #255	; 0xff
 8003fa6:	851a      	strh	r2, [r3, #40]	; 0x28
      I2C_TransferConfig(hi2c, DevAddress, (uint8_t)hi2c->XferSize, I2C_RELOAD_MODE, I2C_GENERATE_START_READ);
 8003fa8:	68fb      	ldr	r3, [r7, #12]
 8003faa:	8d1b      	ldrh	r3, [r3, #40]	; 0x28
 8003fac:	b2da      	uxtb	r2, r3
 8003fae:	8979      	ldrh	r1, [r7, #10]
 8003fb0:	4b52      	ldr	r3, [pc, #328]	; (80040fc <HAL_I2C_Mem_Read+0x22c>)
 8003fb2:	9300      	str	r3, [sp, #0]
 8003fb4:	f04f 7380 	mov.w	r3, #16777216	; 0x1000000
 8003fb8:	68f8      	ldr	r0, [r7, #12]
 8003fba:	f000 fa91 	bl	80044e0 <I2C_TransferConfig>
 8003fbe:	e00f      	b.n	8003fe0 <HAL_I2C_Mem_Read+0x110>
    }
    else
    {
      hi2c->XferSize = hi2c->XferCount;
 8003fc0:	68fb      	ldr	r3, [r7, #12]
 8003fc2:	8d5b      	ldrh	r3, [r3, #42]	; 0x2a
 8003fc4:	b29a      	uxth	r2, r3
 8003fc6:	68fb      	ldr	r3, [r7, #12]
 8003fc8:	851a      	strh	r2, [r3, #40]	; 0x28
      I2C_TransferConfig(hi2c, DevAddress, (uint8_t)hi2c->XferSize, I2C_AUTOEND_MODE, I2C_GENERATE_START_READ);
 8003fca:	68fb      	ldr	r3, [r7, #12]
 8003fcc:	8d1b      	ldrh	r3, [r3, #40]	; 0x28
 8003fce:	b2da      	uxtb	r2, r3
 8003fd0:	8979      	ldrh	r1, [r7, #10]
 8003fd2:	4b4a      	ldr	r3, [pc, #296]	; (80040fc <HAL_I2C_Mem_Read+0x22c>)
 8003fd4:	9300      	str	r3, [sp, #0]
 8003fd6:	f04f 7300 	mov.w	r3, #33554432	; 0x2000000
 8003fda:	68f8      	ldr	r0, [r7, #12]
 8003fdc:	f000 fa80 	bl	80044e0 <I2C_TransferConfig>
    }

    do
    {
      /* Wait until RXNE flag is set */
      if (I2C_WaitOnFlagUntilTimeout(hi2c, I2C_FLAG_RXNE, RESET, Timeout, tickstart) != HAL_OK)
 8003fe0:	697b      	ldr	r3, [r7, #20]
 8003fe2:	9300      	str	r3, [sp, #0]
 8003fe4:	6abb      	ldr	r3, [r7, #40]	; 0x28
 8003fe6:	2200      	movs	r2, #0
 8003fe8:	2104      	movs	r1, #4
 8003fea:	68f8      	ldr	r0, [r7, #12]
 8003fec:	f000 f956 	bl	800429c <I2C_WaitOnFlagUntilTimeout>
 8003ff0:	4603      	mov	r3, r0
 8003ff2:	2b00      	cmp	r3, #0
 8003ff4:	d001      	beq.n	8003ffa <HAL_I2C_Mem_Read+0x12a>
      {
        return HAL_ERROR;
 8003ff6:	2301      	movs	r3, #1
 8003ff8:	e07c      	b.n	80040f4 <HAL_I2C_Mem_Read+0x224>
      }

      /* Read data from RXDR */
      *hi2c->pBuffPtr = (uint8_t)hi2c->Instance->RXDR;
 8003ffa:	68fb      	ldr	r3, [r7, #12]
 8003ffc:	681b      	ldr	r3, [r3, #0]
 8003ffe:	6a5a      	ldr	r2, [r3, #36]	; 0x24
 8004000:	68fb      	ldr	r3, [r7, #12]
 8004002:	6a5b      	ldr	r3, [r3, #36]	; 0x24
 8004004:	b2d2      	uxtb	r2, r2
 8004006:	701a      	strb	r2, [r3, #0]

      /* Increment Buffer pointer */
      hi2c->pBuffPtr++;
 8004008:	68fb      	ldr	r3, [r7, #12]
 800400a:	6a5b      	ldr	r3, [r3, #36]	; 0x24
 800400c:	1c5a      	adds	r2, r3, #1
 800400e:	68fb      	ldr	r3, [r7, #12]
 8004010:	625a      	str	r2, [r3, #36]	; 0x24

      hi2c->XferSize--;
 8004012:	68fb      	ldr	r3, [r7, #12]
 8004014:	8d1b      	ldrh	r3, [r3, #40]	; 0x28
 8004016:	3b01      	subs	r3, #1
 8004018:	b29a      	uxth	r2, r3
 800401a:	68fb      	ldr	r3, [r7, #12]
 800401c:	851a      	strh	r2, [r3, #40]	; 0x28
      hi2c->XferCount--;
 800401e:	68fb      	ldr	r3, [r7, #12]
 8004020:	8d5b      	ldrh	r3, [r3, #42]	; 0x2a
 8004022:	b29b      	uxth	r3, r3
 8004024:	3b01      	subs	r3, #1
 8004026:	b29a      	uxth	r2, r3
 8004028:	68fb      	ldr	r3, [r7, #12]
 800402a:	855a      	strh	r2, [r3, #42]	; 0x2a

      if ((hi2c->XferCount != 0U) && (hi2c->XferSize == 0U))
 800402c:	68fb      	ldr	r3, [r7, #12]
 800402e:	8d5b      	ldrh	r3, [r3, #42]	; 0x2a
 8004030:	b29b      	uxth	r3, r3
 8004032:	2b00      	cmp	r3, #0
 8004034:	d034      	beq.n	80040a0 <HAL_I2C_Mem_Read+0x1d0>
 8004036:	68fb      	ldr	r3, [r7, #12]
 8004038:	8d1b      	ldrh	r3, [r3, #40]	; 0x28
 800403a:	2b00      	cmp	r3, #0
 800403c:	d130      	bne.n	80040a0 <HAL_I2C_Mem_Read+0x1d0>
      {
        /* Wait until TCR flag is set */
        if (I2C_WaitOnFlagUntilTimeout(hi2c, I2C_FLAG_TCR, RESET, Timeout, tickstart) != HAL_OK)
 800403e:	697b      	ldr	r3, [r7, #20]
 8004040:	9300      	str	r3, [sp, #0]
 8004042:	6abb      	ldr	r3, [r7, #40]	; 0x28
 8004044:	2200      	movs	r2, #0
 8004046:	2180      	movs	r1, #128	; 0x80
 8004048:	68f8      	ldr	r0, [r7, #12]
 800404a:	f000 f927 	bl	800429c <I2C_WaitOnFlagUntilTimeout>
 800404e:	4603      	mov	r3, r0
 8004050:	2b00      	cmp	r3, #0
 8004052:	d001      	beq.n	8004058 <HAL_I2C_Mem_Read+0x188>
        {
          return HAL_ERROR;
 8004054:	2301      	movs	r3, #1
 8004056:	e04d      	b.n	80040f4 <HAL_I2C_Mem_Read+0x224>
        }

        if (hi2c->XferCount > MAX_NBYTE_SIZE)
 8004058:	68fb      	ldr	r3, [r7, #12]
 800405a:	8d5b      	ldrh	r3, [r3, #42]	; 0x2a
 800405c:	b29b      	uxth	r3, r3
 800405e:	2bff      	cmp	r3, #255	; 0xff
 8004060:	d90e      	bls.n	8004080 <HAL_I2C_Mem_Read+0x1b0>
        {
          hi2c->XferSize = MAX_NBYTE_SIZE;
 8004062:	68fb      	ldr	r3, [r7, #12]
 8004064:	22ff      	movs	r2, #255	; 0xff
 8004066:	851a      	strh	r2, [r3, #40]	; 0x28
          I2C_TransferConfig(hi2c, DevAddress, (uint8_t) hi2c->XferSize, I2C_RELOAD_MODE, I2C_NO_STARTSTOP);
 8004068:	68fb      	ldr	r3, [r7, #12]
 800406a:	8d1b      	ldrh	r3, [r3, #40]	; 0x28
 800406c:	b2da      	uxtb	r2, r3
 800406e:	8979      	ldrh	r1, [r7, #10]
 8004070:	2300      	movs	r3, #0
 8004072:	9300      	str	r3, [sp, #0]
 8004074:	f04f 7380 	mov.w	r3, #16777216	; 0x1000000
 8004078:	68f8      	ldr	r0, [r7, #12]
 800407a:	f000 fa31 	bl	80044e0 <I2C_TransferConfig>
 800407e:	e00f      	b.n	80040a0 <HAL_I2C_Mem_Read+0x1d0>
        }
        else
        {
          hi2c->XferSize = hi2c->XferCount;
 8004080:	68fb      	ldr	r3, [r7, #12]
 8004082:	8d5b      	ldrh	r3, [r3, #42]	; 0x2a
 8004084:	b29a      	uxth	r2, r3
 8004086:	68fb      	ldr	r3, [r7, #12]
 8004088:	851a      	strh	r2, [r3, #40]	; 0x28
          I2C_TransferConfig(hi2c, DevAddress, (uint8_t)hi2c->XferSize, I2C_AUTOEND_MODE, I2C_NO_STARTSTOP);
 800408a:	68fb      	ldr	r3, [r7, #12]
 800408c:	8d1b      	ldrh	r3, [r3, #40]	; 0x28
 800408e:	b2da      	uxtb	r2, r3
 8004090:	8979      	ldrh	r1, [r7, #10]
 8004092:	2300      	movs	r3, #0
 8004094:	9300      	str	r3, [sp, #0]
 8004096:	f04f 7300 	mov.w	r3, #33554432	; 0x2000000
 800409a:	68f8      	ldr	r0, [r7, #12]
 800409c:	f000 fa20 	bl	80044e0 <I2C_TransferConfig>
        }
      }
    }
    while (hi2c->XferCount > 0U);
 80040a0:	68fb      	ldr	r3, [r7, #12]
 80040a2:	8d5b      	ldrh	r3, [r3, #42]	; 0x2a
 80040a4:	b29b      	uxth	r3, r3
 80040a6:	2b00      	cmp	r3, #0
 80040a8:	d19a      	bne.n	8003fe0 <HAL_I2C_Mem_Read+0x110>

    /* No need to Check TC flag, with AUTOEND mode the stop is automatically generated */
    /* Wait until STOPF flag is reset */
    if (I2C_WaitOnSTOPFlagUntilTimeout(hi2c, Timeout, tickstart) != HAL_OK)
 80040aa:	697a      	ldr	r2, [r7, #20]
 80040ac:	6ab9      	ldr	r1, [r7, #40]	; 0x28
 80040ae:	68f8      	ldr	r0, [r7, #12]
 80040b0:	f000 f974 	bl	800439c <I2C_WaitOnSTOPFlagUntilTimeout>
 80040b4:	4603      	mov	r3, r0
 80040b6:	2b00      	cmp	r3, #0
 80040b8:	d001      	beq.n	80040be <HAL_I2C_Mem_Read+0x1ee>
    {
      return HAL_ERROR;
 80040ba:	2301      	movs	r3, #1
 80040bc:	e01a      	b.n	80040f4 <HAL_I2C_Mem_Read+0x224>
    }

    /* Clear STOP Flag */
    __HAL_I2C_CLEAR_FLAG(hi2c, I2C_FLAG_STOPF);
 80040be:	68fb      	ldr	r3, [r7, #12]
 80040c0:	681b      	ldr	r3, [r3, #0]
 80040c2:	2220      	movs	r2, #32
 80040c4:	61da      	str	r2, [r3, #28]

    /* Clear Configuration Register 2 */
    I2C_RESET_CR2(hi2c);
 80040c6:	68fb      	ldr	r3, [r7, #12]
 80040c8:	681b      	ldr	r3, [r3, #0]
 80040ca:	6859      	ldr	r1, [r3, #4]
 80040cc:	68fb      	ldr	r3, [r7, #12]
 80040ce:	681a      	ldr	r2, [r3, #0]
 80040d0:	4b0b      	ldr	r3, [pc, #44]	; (8004100 <HAL_I2C_Mem_Read+0x230>)
 80040d2:	400b      	ands	r3, r1
 80040d4:	6053      	str	r3, [r2, #4]

    hi2c->State = HAL_I2C_STATE_READY;
 80040d6:	68fb      	ldr	r3, [r7, #12]
 80040d8:	2220      	movs	r2, #32
 80040da:	f883 2041 	strb.w	r2, [r3, #65]	; 0x41
    hi2c->Mode  = HAL_I2C_MODE_NONE;
 80040de:	68fb      	ldr	r3, [r7, #12]
 80040e0:	2200      	movs	r2, #0
 80040e2:	f883 2042 	strb.w	r2, [r3, #66]	; 0x42

    /* Process Unlocked */
    __HAL_UNLOCK(hi2c);
 80040e6:	68fb      	ldr	r3, [r7, #12]
 80040e8:	2200      	movs	r2, #0
 80040ea:	f883 2040 	strb.w	r2, [r3, #64]	; 0x40

    return HAL_OK;
 80040ee:	2300      	movs	r3, #0
 80040f0:	e000      	b.n	80040f4 <HAL_I2C_Mem_Read+0x224>
  }
  else
  {
    return HAL_BUSY;
 80040f2:	2302      	movs	r3, #2
  }
}
 80040f4:	4618      	mov	r0, r3
 80040f6:	3718      	adds	r7, #24
 80040f8:	46bd      	mov	sp, r7
 80040fa:	bd80      	pop	{r7, pc}
 80040fc:	80002400 	.word	0x80002400
 8004100:	fe00e800 	.word	0xfe00e800

08004104 <I2C_RequestMemoryWrite>:
  * @param  Timeout Timeout duration
  * @param  Tickstart Tick start value
  * @retval HAL status
  */
static HAL_StatusTypeDef I2C_RequestMemoryWrite(I2C_HandleTypeDef *hi2c, uint16_t DevAddress, uint16_t MemAddress, uint16_t MemAddSize, uint32_t Timeout, uint32_t Tickstart)
{
 8004104:	b580      	push	{r7, lr}
 8004106:	b086      	sub	sp, #24
 8004108:	af02      	add	r7, sp, #8
 800410a:	60f8      	str	r0, [r7, #12]
 800410c:	4608      	mov	r0, r1
 800410e:	4611      	mov	r1, r2
 8004110:	461a      	mov	r2, r3
 8004112:	4603      	mov	r3, r0
 8004114:	817b      	strh	r3, [r7, #10]
 8004116:	460b      	mov	r3, r1
 8004118:	813b      	strh	r3, [r7, #8]
 800411a:	4613      	mov	r3, r2
 800411c:	80fb      	strh	r3, [r7, #6]
  I2C_TransferConfig(hi2c, DevAddress, (uint8_t)MemAddSize, I2C_RELOAD_MODE, I2C_GENERATE_START_WRITE);
 800411e:	88fb      	ldrh	r3, [r7, #6]
 8004120:	b2da      	uxtb	r2, r3
 8004122:	8979      	ldrh	r1, [r7, #10]
 8004124:	4b20      	ldr	r3, [pc, #128]	; (80041a8 <I2C_RequestMemoryWrite+0xa4>)
 8004126:	9300      	str	r3, [sp, #0]
 8004128:	f04f 7380 	mov.w	r3, #16777216	; 0x1000000
 800412c:	68f8      	ldr	r0, [r7, #12]
 800412e:	f000 f9d7 	bl	80044e0 <I2C_TransferConfig>

  /* Wait until TXIS flag is set */
  if (I2C_WaitOnTXISFlagUntilTimeout(hi2c, Timeout, Tickstart) != HAL_OK)
 8004132:	69fa      	ldr	r2, [r7, #28]
 8004134:	69b9      	ldr	r1, [r7, #24]
 8004136:	68f8      	ldr	r0, [r7, #12]
 8004138:	f000 f8f0 	bl	800431c <I2C_WaitOnTXISFlagUntilTimeout>
 800413c:	4603      	mov	r3, r0
 800413e:	2b00      	cmp	r3, #0
 8004140:	d001      	beq.n	8004146 <I2C_RequestMemoryWrite+0x42>
  {
    return HAL_ERROR;
 8004142:	2301      	movs	r3, #1
 8004144:	e02c      	b.n	80041a0 <I2C_RequestMemoryWrite+0x9c>
  }

  /* If Memory address size is 8Bit */
  if (MemAddSize == I2C_MEMADD_SIZE_8BIT)
 8004146:	88fb      	ldrh	r3, [r7, #6]
 8004148:	2b01      	cmp	r3, #1
 800414a:	d105      	bne.n	8004158 <I2C_RequestMemoryWrite+0x54>
  {
    /* Send Memory Address */
    hi2c->Instance->TXDR = I2C_MEM_ADD_LSB(MemAddress);
 800414c:	893b      	ldrh	r3, [r7, #8]
 800414e:	b2da      	uxtb	r2, r3
 8004150:	68fb      	ldr	r3, [r7, #12]
 8004152:	681b      	ldr	r3, [r3, #0]
 8004154:	629a      	str	r2, [r3, #40]	; 0x28
 8004156:	e015      	b.n	8004184 <I2C_RequestMemoryWrite+0x80>
  }
  /* If Memory address size is 16Bit */
  else
  {
    /* Send MSB of Memory Address */
    hi2c->Instance->TXDR = I2C_MEM_ADD_MSB(MemAddress);
 8004158:	893b      	ldrh	r3, [r7, #8]
 800415a:	0a1b      	lsrs	r3, r3, #8
 800415c:	b29b      	uxth	r3, r3
 800415e:	b2da      	uxtb	r2, r3
 8004160:	68fb      	ldr	r3, [r7, #12]
 8004162:	681b      	ldr	r3, [r3, #0]
 8004164:	629a      	str	r2, [r3, #40]	; 0x28

    /* Wait until TXIS flag is set */
    if (I2C_WaitOnTXISFlagUntilTimeout(hi2c, Timeout, Tickstart) != HAL_OK)
 8004166:	69fa      	ldr	r2, [r7, #28]
 8004168:	69b9      	ldr	r1, [r7, #24]
 800416a:	68f8      	ldr	r0, [r7, #12]
 800416c:	f000 f8d6 	bl	800431c <I2C_WaitOnTXISFlagUntilTimeout>
 8004170:	4603      	mov	r3, r0
 8004172:	2b00      	cmp	r3, #0
 8004174:	d001      	beq.n	800417a <I2C_RequestMemoryWrite+0x76>
    {
      return HAL_ERROR;
 8004176:	2301      	movs	r3, #1
 8004178:	e012      	b.n	80041a0 <I2C_RequestMemoryWrite+0x9c>
    }

    /* Send LSB of Memory Address */
    hi2c->Instance->TXDR = I2C_MEM_ADD_LSB(MemAddress);
 800417a:	893b      	ldrh	r3, [r7, #8]
 800417c:	b2da      	uxtb	r2, r3
 800417e:	68fb      	ldr	r3, [r7, #12]
 8004180:	681b      	ldr	r3, [r3, #0]
 8004182:	629a      	str	r2, [r3, #40]	; 0x28
  }

  /* Wait until TCR flag is set */
  if (I2C_WaitOnFlagUntilTimeout(hi2c, I2C_FLAG_TCR, RESET, Timeout, Tickstart) != HAL_OK)
 8004184:	69fb      	ldr	r3, [r7, #28]
 8004186:	9300      	str	r3, [sp, #0]
 8004188:	69bb      	ldr	r3, [r7, #24]
 800418a:	2200      	movs	r2, #0
 800418c:	2180      	movs	r1, #128	; 0x80
 800418e:	68f8      	ldr	r0, [r7, #12]
 8004190:	f000 f884 	bl	800429c <I2C_WaitOnFlagUntilTimeout>
 8004194:	4603      	mov	r3, r0
 8004196:	2b00      	cmp	r3, #0
 8004198:	d001      	beq.n	800419e <I2C_RequestMemoryWrite+0x9a>
  {
    return HAL_ERROR;
 800419a:	2301      	movs	r3, #1
 800419c:	e000      	b.n	80041a0 <I2C_RequestMemoryWrite+0x9c>
  }

  return HAL_OK;
 800419e:	2300      	movs	r3, #0
}
 80041a0:	4618      	mov	r0, r3
 80041a2:	3710      	adds	r7, #16
 80041a4:	46bd      	mov	sp, r7
 80041a6:	bd80      	pop	{r7, pc}
 80041a8:	80002000 	.word	0x80002000

080041ac <I2C_RequestMemoryRead>:
  * @param  Timeout Timeout duration
  * @param  Tickstart Tick start value
  * @retval HAL status
  */
static HAL_StatusTypeDef I2C_RequestMemoryRead(I2C_HandleTypeDef *hi2c, uint16_t DevAddress, uint16_t MemAddress, uint16_t MemAddSize, uint32_t Timeout, uint32_t Tickstart)
{
 80041ac:	b580      	push	{r7, lr}
 80041ae:	b086      	sub	sp, #24
 80041b0:	af02      	add	r7, sp, #8
 80041b2:	60f8      	str	r0, [r7, #12]
 80041b4:	4608      	mov	r0, r1
 80041b6:	4611      	mov	r1, r2
 80041b8:	461a      	mov	r2, r3
 80041ba:	4603      	mov	r3, r0
 80041bc:	817b      	strh	r3, [r7, #10]
 80041be:	460b      	mov	r3, r1
 80041c0:	813b      	strh	r3, [r7, #8]
 80041c2:	4613      	mov	r3, r2
 80041c4:	80fb      	strh	r3, [r7, #6]
  I2C_TransferConfig(hi2c, DevAddress, (uint8_t)MemAddSize, I2C_SOFTEND_MODE, I2C_GENERATE_START_WRITE);
 80041c6:	88fb      	ldrh	r3, [r7, #6]
 80041c8:	b2da      	uxtb	r2, r3
 80041ca:	8979      	ldrh	r1, [r7, #10]
 80041cc:	4b20      	ldr	r3, [pc, #128]	; (8004250 <I2C_RequestMemoryRead+0xa4>)
 80041ce:	9300      	str	r3, [sp, #0]
 80041d0:	2300      	movs	r3, #0
 80041d2:	68f8      	ldr	r0, [r7, #12]
 80041d4:	f000 f984 	bl	80044e0 <I2C_TransferConfig>

  /* Wait until TXIS flag is set */
  if (I2C_WaitOnTXISFlagUntilTimeout(hi2c, Timeout, Tickstart) != HAL_OK)
 80041d8:	69fa      	ldr	r2, [r7, #28]
 80041da:	69b9      	ldr	r1, [r7, #24]
 80041dc:	68f8      	ldr	r0, [r7, #12]
 80041de:	f000 f89d 	bl	800431c <I2C_WaitOnTXISFlagUntilTimeout>
 80041e2:	4603      	mov	r3, r0
 80041e4:	2b00      	cmp	r3, #0
 80041e6:	d001      	beq.n	80041ec <I2C_RequestMemoryRead+0x40>
  {
    return HAL_ERROR;
 80041e8:	2301      	movs	r3, #1
 80041ea:	e02c      	b.n	8004246 <I2C_RequestMemoryRead+0x9a>
  }

  /* If Memory address size is 8Bit */
  if (MemAddSize == I2C_MEMADD_SIZE_8BIT)
 80041ec:	88fb      	ldrh	r3, [r7, #6]
 80041ee:	2b01      	cmp	r3, #1
 80041f0:	d105      	bne.n	80041fe <I2C_RequestMemoryRead+0x52>
  {
    /* Send Memory Address */
    hi2c->Instance->TXDR = I2C_MEM_ADD_LSB(MemAddress);
 80041f2:	893b      	ldrh	r3, [r7, #8]
 80041f4:	b2da      	uxtb	r2, r3
 80041f6:	68fb      	ldr	r3, [r7, #12]
 80041f8:	681b      	ldr	r3, [r3, #0]
 80041fa:	629a      	str	r2, [r3, #40]	; 0x28
 80041fc:	e015      	b.n	800422a <I2C_RequestMemoryRead+0x7e>
  }
  /* If Memory address size is 16Bit */
  else
  {
    /* Send MSB of Memory Address */
    hi2c->Instance->TXDR = I2C_MEM_ADD_MSB(MemAddress);
 80041fe:	893b      	ldrh	r3, [r7, #8]
 8004200:	0a1b      	lsrs	r3, r3, #8
 8004202:	b29b      	uxth	r3, r3
 8004204:	b2da      	uxtb	r2, r3
 8004206:	68fb      	ldr	r3, [r7, #12]
 8004208:	681b      	ldr	r3, [r3, #0]
 800420a:	629a      	str	r2, [r3, #40]	; 0x28

    /* Wait until TXIS flag is set */
    if (I2C_WaitOnTXISFlagUntilTimeout(hi2c, Timeout, Tickstart) != HAL_OK)
 800420c:	69fa      	ldr	r2, [r7, #28]
 800420e:	69b9      	ldr	r1, [r7, #24]
 8004210:	68f8      	ldr	r0, [r7, #12]
 8004212:	f000 f883 	bl	800431c <I2C_WaitOnTXISFlagUntilTimeout>
 8004216:	4603      	mov	r3, r0
 8004218:	2b00      	cmp	r3, #0
 800421a:	d001      	beq.n	8004220 <I2C_RequestMemoryRead+0x74>
    {
      return HAL_ERROR;
 800421c:	2301      	movs	r3, #1
 800421e:	e012      	b.n	8004246 <I2C_RequestMemoryRead+0x9a>
    }

    /* Send LSB of Memory Address */
    hi2c->Instance->TXDR = I2C_MEM_ADD_LSB(MemAddress);
 8004220:	893b      	ldrh	r3, [r7, #8]
 8004222:	b2da      	uxtb	r2, r3
 8004224:	68fb      	ldr	r3, [r7, #12]
 8004226:	681b      	ldr	r3, [r3, #0]
 8004228:	629a      	str	r2, [r3, #40]	; 0x28
  }

  /* Wait until TC flag is set */
  if (I2C_WaitOnFlagUntilTimeout(hi2c, I2C_FLAG_TC, RESET, Timeout, Tickstart) != HAL_OK)
 800422a:	69fb      	ldr	r3, [r7, #28]
 800422c:	9300      	str	r3, [sp, #0]
 800422e:	69bb      	ldr	r3, [r7, #24]
 8004230:	2200      	movs	r2, #0
 8004232:	2140      	movs	r1, #64	; 0x40
 8004234:	68f8      	ldr	r0, [r7, #12]
 8004236:	f000 f831 	bl	800429c <I2C_WaitOnFlagUntilTimeout>
 800423a:	4603      	mov	r3, r0
 800423c:	2b00      	cmp	r3, #0
 800423e:	d001      	beq.n	8004244 <I2C_RequestMemoryRead+0x98>
  {
    return HAL_ERROR;
 8004240:	2301      	movs	r3, #1
 8004242:	e000      	b.n	8004246 <I2C_RequestMemoryRead+0x9a>
  }

  return HAL_OK;
 8004244:	2300      	movs	r3, #0
}
 8004246:	4618      	mov	r0, r3
 8004248:	3710      	adds	r7, #16
 800424a:	46bd      	mov	sp, r7
 800424c:	bd80      	pop	{r7, pc}
 800424e:	bf00      	nop
 8004250:	80002000 	.word	0x80002000

08004254 <I2C_Flush_TXDR>:
  * @brief  I2C Tx data register flush process.
  * @param  hi2c I2C handle.
  * @retval None
  */
static void I2C_Flush_TXDR(I2C_HandleTypeDef *hi2c)
{
 8004254:	b480      	push	{r7}
 8004256:	b083      	sub	sp, #12
 8004258:	af00      	add	r7, sp, #0
 800425a:	6078      	str	r0, [r7, #4]
  /* If a pending TXIS flag is set */
  /* Write a dummy data in TXDR to clear it */
  if (__HAL_I2C_GET_FLAG(hi2c, I2C_FLAG_TXIS) != RESET)
 800425c:	687b      	ldr	r3, [r7, #4]
 800425e:	681b      	ldr	r3, [r3, #0]
 8004260:	699b      	ldr	r3, [r3, #24]
 8004262:	f003 0302 	and.w	r3, r3, #2
 8004266:	2b02      	cmp	r3, #2
 8004268:	d103      	bne.n	8004272 <I2C_Flush_TXDR+0x1e>
  {
    hi2c->Instance->TXDR = 0x00U;
 800426a:	687b      	ldr	r3, [r7, #4]
 800426c:	681b      	ldr	r3, [r3, #0]
 800426e:	2200      	movs	r2, #0
 8004270:	629a      	str	r2, [r3, #40]	; 0x28
  }

  /* Flush TX register if not empty */
  if (__HAL_I2C_GET_FLAG(hi2c, I2C_FLAG_TXE) == RESET)
 8004272:	687b      	ldr	r3, [r7, #4]
 8004274:	681b      	ldr	r3, [r3, #0]
 8004276:	699b      	ldr	r3, [r3, #24]
 8004278:	f003 0301 	and.w	r3, r3, #1
 800427c:	2b01      	cmp	r3, #1
 800427e:	d007      	beq.n	8004290 <I2C_Flush_TXDR+0x3c>
  {
    __HAL_I2C_CLEAR_FLAG(hi2c, I2C_FLAG_TXE);
 8004280:	687b      	ldr	r3, [r7, #4]
 8004282:	681b      	ldr	r3, [r3, #0]
 8004284:	699a      	ldr	r2, [r3, #24]
 8004286:	687b      	ldr	r3, [r7, #4]
 8004288:	681b      	ldr	r3, [r3, #0]
 800428a:	f042 0201 	orr.w	r2, r2, #1
 800428e:	619a      	str	r2, [r3, #24]
  }
}
 8004290:	bf00      	nop
 8004292:	370c      	adds	r7, #12
 8004294:	46bd      	mov	sp, r7
 8004296:	f85d 7b04 	ldr.w	r7, [sp], #4
 800429a:	4770      	bx	lr

0800429c <I2C_WaitOnFlagUntilTimeout>:
  * @param  Timeout Timeout duration
  * @param  Tickstart Tick start value
  * @retval HAL status
  */
static HAL_StatusTypeDef I2C_WaitOnFlagUntilTimeout(I2C_HandleTypeDef *hi2c, uint32_t Flag, FlagStatus Status, uint32_t Timeout, uint32_t Tickstart)
{
 800429c:	b580      	push	{r7, lr}
 800429e:	b084      	sub	sp, #16
 80042a0:	af00      	add	r7, sp, #0
 80042a2:	60f8      	str	r0, [r7, #12]
 80042a4:	60b9      	str	r1, [r7, #8]
 80042a6:	603b      	str	r3, [r7, #0]
 80042a8:	4613      	mov	r3, r2
 80042aa:	71fb      	strb	r3, [r7, #7]
  while (__HAL_I2C_GET_FLAG(hi2c, Flag) == Status)
 80042ac:	e022      	b.n	80042f4 <I2C_WaitOnFlagUntilTimeout+0x58>
  {
    /* Check for the Timeout */
    if (Timeout != HAL_MAX_DELAY)
 80042ae:	683b      	ldr	r3, [r7, #0]
 80042b0:	f1b3 3fff 	cmp.w	r3, #4294967295
 80042b4:	d01e      	beq.n	80042f4 <I2C_WaitOnFlagUntilTimeout+0x58>
    {
      if (((HAL_GetTick() - Tickstart) > Timeout) || (Timeout == 0U))
 80042b6:	f7ff f81b 	bl	80032f0 <HAL_GetTick>
 80042ba:	4602      	mov	r2, r0
 80042bc:	69bb      	ldr	r3, [r7, #24]
 80042be:	1ad3      	subs	r3, r2, r3
 80042c0:	683a      	ldr	r2, [r7, #0]
 80042c2:	429a      	cmp	r2, r3
 80042c4:	d302      	bcc.n	80042cc <I2C_WaitOnFlagUntilTimeout+0x30>
 80042c6:	683b      	ldr	r3, [r7, #0]
 80042c8:	2b00      	cmp	r3, #0
 80042ca:	d113      	bne.n	80042f4 <I2C_WaitOnFlagUntilTimeout+0x58>
      {
        hi2c->ErrorCode |= HAL_I2C_ERROR_TIMEOUT;
 80042cc:	68fb      	ldr	r3, [r7, #12]
 80042ce:	6c5b      	ldr	r3, [r3, #68]	; 0x44
 80042d0:	f043 0220 	orr.w	r2, r3, #32
 80042d4:	68fb      	ldr	r3, [r7, #12]
 80042d6:	645a      	str	r2, [r3, #68]	; 0x44
        hi2c->State = HAL_I2C_STATE_READY;
 80042d8:	68fb      	ldr	r3, [r7, #12]
 80042da:	2220      	movs	r2, #32
 80042dc:	f883 2041 	strb.w	r2, [r3, #65]	; 0x41
        hi2c->Mode = HAL_I2C_MODE_NONE;
 80042e0:	68fb      	ldr	r3, [r7, #12]
 80042e2:	2200      	movs	r2, #0
 80042e4:	f883 2042 	strb.w	r2, [r3, #66]	; 0x42

        /* Process Unlocked */
        __HAL_UNLOCK(hi2c);
 80042e8:	68fb      	ldr	r3, [r7, #12]
 80042ea:	2200      	movs	r2, #0
 80042ec:	f883 2040 	strb.w	r2, [r3, #64]	; 0x40
        return HAL_ERROR;
 80042f0:	2301      	movs	r3, #1
 80042f2:	e00f      	b.n	8004314 <I2C_WaitOnFlagUntilTimeout+0x78>
  while (__HAL_I2C_GET_FLAG(hi2c, Flag) == Status)
 80042f4:	68fb      	ldr	r3, [r7, #12]
 80042f6:	681b      	ldr	r3, [r3, #0]
 80042f8:	699a      	ldr	r2, [r3, #24]
 80042fa:	68bb      	ldr	r3, [r7, #8]
 80042fc:	4013      	ands	r3, r2
 80042fe:	68ba      	ldr	r2, [r7, #8]
 8004300:	429a      	cmp	r2, r3
 8004302:	bf0c      	ite	eq
 8004304:	2301      	moveq	r3, #1
 8004306:	2300      	movne	r3, #0
 8004308:	b2db      	uxtb	r3, r3
 800430a:	461a      	mov	r2, r3
 800430c:	79fb      	ldrb	r3, [r7, #7]
 800430e:	429a      	cmp	r2, r3
 8004310:	d0cd      	beq.n	80042ae <I2C_WaitOnFlagUntilTimeout+0x12>
      }
    }
  }
  return HAL_OK;
 8004312:	2300      	movs	r3, #0
}
 8004314:	4618      	mov	r0, r3
 8004316:	3710      	adds	r7, #16
 8004318:	46bd      	mov	sp, r7
 800431a:	bd80      	pop	{r7, pc}

0800431c <I2C_WaitOnTXISFlagUntilTimeout>:
  * @param  Timeout Timeout duration
  * @param  Tickstart Tick start value
  * @retval HAL status
  */
static HAL_StatusTypeDef I2C_WaitOnTXISFlagUntilTimeout(I2C_HandleTypeDef *hi2c, uint32_t Timeout, uint32_t Tickstart)
{
 800431c:	b580      	push	{r7, lr}
 800431e:	b084      	sub	sp, #16
 8004320:	af00      	add	r7, sp, #0
 8004322:	60f8      	str	r0, [r7, #12]
 8004324:	60b9      	str	r1, [r7, #8]
 8004326:	607a      	str	r2, [r7, #4]
  while (__HAL_I2C_GET_FLAG(hi2c, I2C_FLAG_TXIS) == RESET)
 8004328:	e02c      	b.n	8004384 <I2C_WaitOnTXISFlagUntilTimeout+0x68>
  {
    /* Check if a NACK is detected */
    if (I2C_IsAcknowledgeFailed(hi2c, Timeout, Tickstart) != HAL_OK)
 800432a:	687a      	ldr	r2, [r7, #4]
 800432c:	68b9      	ldr	r1, [r7, #8]
 800432e:	68f8      	ldr	r0, [r7, #12]
 8004330:	f000 f870 	bl	8004414 <I2C_IsAcknowledgeFailed>
 8004334:	4603      	mov	r3, r0
 8004336:	2b00      	cmp	r3, #0
 8004338:	d001      	beq.n	800433e <I2C_WaitOnTXISFlagUntilTimeout+0x22>
    {
      return HAL_ERROR;
 800433a:	2301      	movs	r3, #1
 800433c:	e02a      	b.n	8004394 <I2C_WaitOnTXISFlagUntilTimeout+0x78>
    }

    /* Check for the Timeout */
    if (Timeout != HAL_MAX_DELAY)
 800433e:	68bb      	ldr	r3, [r7, #8]
 8004340:	f1b3 3fff 	cmp.w	r3, #4294967295
 8004344:	d01e      	beq.n	8004384 <I2C_WaitOnTXISFlagUntilTimeout+0x68>
    {
      if (((HAL_GetTick() - Tickstart) > Timeout) || (Timeout == 0U))
 8004346:	f7fe ffd3 	bl	80032f0 <HAL_GetTick>
 800434a:	4602      	mov	r2, r0
 800434c:	687b      	ldr	r3, [r7, #4]
 800434e:	1ad3      	subs	r3, r2, r3
 8004350:	68ba      	ldr	r2, [r7, #8]
 8004352:	429a      	cmp	r2, r3
 8004354:	d302      	bcc.n	800435c <I2C_WaitOnTXISFlagUntilTimeout+0x40>
 8004356:	68bb      	ldr	r3, [r7, #8]
 8004358:	2b00      	cmp	r3, #0
 800435a:	d113      	bne.n	8004384 <I2C_WaitOnTXISFlagUntilTimeout+0x68>
      {
        hi2c->ErrorCode |= HAL_I2C_ERROR_TIMEOUT;
 800435c:	68fb      	ldr	r3, [r7, #12]
 800435e:	6c5b      	ldr	r3, [r3, #68]	; 0x44
 8004360:	f043 0220 	orr.w	r2, r3, #32
 8004364:	68fb      	ldr	r3, [r7, #12]
 8004366:	645a      	str	r2, [r3, #68]	; 0x44
        hi2c->State = HAL_I2C_STATE_READY;
 8004368:	68fb      	ldr	r3, [r7, #12]
 800436a:	2220      	movs	r2, #32
 800436c:	f883 2041 	strb.w	r2, [r3, #65]	; 0x41
        hi2c->Mode = HAL_I2C_MODE_NONE;
 8004370:	68fb      	ldr	r3, [r7, #12]
 8004372:	2200      	movs	r2, #0
 8004374:	f883 2042 	strb.w	r2, [r3, #66]	; 0x42

        /* Process Unlocked */
        __HAL_UNLOCK(hi2c);
 8004378:	68fb      	ldr	r3, [r7, #12]
 800437a:	2200      	movs	r2, #0
 800437c:	f883 2040 	strb.w	r2, [r3, #64]	; 0x40

        return HAL_ERROR;
 8004380:	2301      	movs	r3, #1
 8004382:	e007      	b.n	8004394 <I2C_WaitOnTXISFlagUntilTimeout+0x78>
  while (__HAL_I2C_GET_FLAG(hi2c, I2C_FLAG_TXIS) == RESET)
 8004384:	68fb      	ldr	r3, [r7, #12]
 8004386:	681b      	ldr	r3, [r3, #0]
 8004388:	699b      	ldr	r3, [r3, #24]
 800438a:	f003 0302 	and.w	r3, r3, #2
 800438e:	2b02      	cmp	r3, #2
 8004390:	d1cb      	bne.n	800432a <I2C_WaitOnTXISFlagUntilTimeout+0xe>
      }
    }
  }
  return HAL_OK;
 8004392:	2300      	movs	r3, #0
}
 8004394:	4618      	mov	r0, r3
 8004396:	3710      	adds	r7, #16
 8004398:	46bd      	mov	sp, r7
 800439a:	bd80      	pop	{r7, pc}

0800439c <I2C_WaitOnSTOPFlagUntilTimeout>:
  * @param  Timeout Timeout duration
  * @param  Tickstart Tick start value
  * @retval HAL status
  */
static HAL_StatusTypeDef I2C_WaitOnSTOPFlagUntilTimeout(I2C_HandleTypeDef *hi2c, uint32_t Timeout, uint32_t Tickstart)
{
 800439c:	b580      	push	{r7, lr}
 800439e:	b084      	sub	sp, #16
 80043a0:	af00      	add	r7, sp, #0
 80043a2:	60f8      	str	r0, [r7, #12]
 80043a4:	60b9      	str	r1, [r7, #8]
 80043a6:	607a      	str	r2, [r7, #4]
  while (__HAL_I2C_GET_FLAG(hi2c, I2C_FLAG_STOPF) == RESET)
 80043a8:	e028      	b.n	80043fc <I2C_WaitOnSTOPFlagUntilTimeout+0x60>
  {
    /* Check if a NACK is detected */
    if (I2C_IsAcknowledgeFailed(hi2c, Timeout, Tickstart) != HAL_OK)
 80043aa:	687a      	ldr	r2, [r7, #4]
 80043ac:	68b9      	ldr	r1, [r7, #8]
 80043ae:	68f8      	ldr	r0, [r7, #12]
 80043b0:	f000 f830 	bl	8004414 <I2C_IsAcknowledgeFailed>
 80043b4:	4603      	mov	r3, r0
 80043b6:	2b00      	cmp	r3, #0
 80043b8:	d001      	beq.n	80043be <I2C_WaitOnSTOPFlagUntilTimeout+0x22>
    {
      return HAL_ERROR;
 80043ba:	2301      	movs	r3, #1
 80043bc:	e026      	b.n	800440c <I2C_WaitOnSTOPFlagUntilTimeout+0x70>
    }

    /* Check for the Timeout */
    if (((HAL_GetTick() - Tickstart) > Timeout) || (Timeout == 0U))
 80043be:	f7fe ff97 	bl	80032f0 <HAL_GetTick>
 80043c2:	4602      	mov	r2, r0
 80043c4:	687b      	ldr	r3, [r7, #4]
 80043c6:	1ad3      	subs	r3, r2, r3
 80043c8:	68ba      	ldr	r2, [r7, #8]
 80043ca:	429a      	cmp	r2, r3
 80043cc:	d302      	bcc.n	80043d4 <I2C_WaitOnSTOPFlagUntilTimeout+0x38>
 80043ce:	68bb      	ldr	r3, [r7, #8]
 80043d0:	2b00      	cmp	r3, #0
 80043d2:	d113      	bne.n	80043fc <I2C_WaitOnSTOPFlagUntilTimeout+0x60>
    {
      hi2c->ErrorCode |= HAL_I2C_ERROR_TIMEOUT;
 80043d4:	68fb      	ldr	r3, [r7, #12]
 80043d6:	6c5b      	ldr	r3, [r3, #68]	; 0x44
 80043d8:	f043 0220 	orr.w	r2, r3, #32
 80043dc:	68fb      	ldr	r3, [r7, #12]
 80043de:	645a      	str	r2, [r3, #68]	; 0x44
      hi2c->State = HAL_I2C_STATE_READY;
 80043e0:	68fb      	ldr	r3, [r7, #12]
 80043e2:	2220      	movs	r2, #32
 80043e4:	f883 2041 	strb.w	r2, [r3, #65]	; 0x41
      hi2c->Mode = HAL_I2C_MODE_NONE;
 80043e8:	68fb      	ldr	r3, [r7, #12]
 80043ea:	2200      	movs	r2, #0
 80043ec:	f883 2042 	strb.w	r2, [r3, #66]	; 0x42

      /* Process Unlocked */
      __HAL_UNLOCK(hi2c);
 80043f0:	68fb      	ldr	r3, [r7, #12]
 80043f2:	2200      	movs	r2, #0
 80043f4:	f883 2040 	strb.w	r2, [r3, #64]	; 0x40

      return HAL_ERROR;
 80043f8:	2301      	movs	r3, #1
 80043fa:	e007      	b.n	800440c <I2C_WaitOnSTOPFlagUntilTimeout+0x70>
  while (__HAL_I2C_GET_FLAG(hi2c, I2C_FLAG_STOPF) == RESET)
 80043fc:	68fb      	ldr	r3, [r7, #12]
 80043fe:	681b      	ldr	r3, [r3, #0]
 8004400:	699b      	ldr	r3, [r3, #24]
 8004402:	f003 0320 	and.w	r3, r3, #32
 8004406:	2b20      	cmp	r3, #32
 8004408:	d1cf      	bne.n	80043aa <I2C_WaitOnSTOPFlagUntilTimeout+0xe>
    }
  }
  return HAL_OK;
 800440a:	2300      	movs	r3, #0
}
 800440c:	4618      	mov	r0, r3
 800440e:	3710      	adds	r7, #16
 8004410:	46bd      	mov	sp, r7
 8004412:	bd80      	pop	{r7, pc}

08004414 <I2C_IsAcknowledgeFailed>:
  * @param  Timeout Timeout duration
  * @param  Tickstart Tick start value
  * @retval HAL status
  */
static HAL_StatusTypeDef I2C_IsAcknowledgeFailed(I2C_HandleTypeDef *hi2c, uint32_t Timeout, uint32_t Tickstart)
{
 8004414:	b580      	push	{r7, lr}
 8004416:	b084      	sub	sp, #16
 8004418:	af00      	add	r7, sp, #0
 800441a:	60f8      	str	r0, [r7, #12]
 800441c:	60b9      	str	r1, [r7, #8]
 800441e:	607a      	str	r2, [r7, #4]
  if (__HAL_I2C_GET_FLAG(hi2c, I2C_FLAG_AF) == SET)
 8004420:	68fb      	ldr	r3, [r7, #12]
 8004422:	681b      	ldr	r3, [r3, #0]
 8004424:	699b      	ldr	r3, [r3, #24]
 8004426:	f003 0310 	and.w	r3, r3, #16
 800442a:	2b10      	cmp	r3, #16
 800442c:	d151      	bne.n	80044d2 <I2C_IsAcknowledgeFailed+0xbe>
  {
    /* Wait until STOP Flag is reset */
    /* AutoEnd should be initiate after AF */
    while (__HAL_I2C_GET_FLAG(hi2c, I2C_FLAG_STOPF) == RESET)
 800442e:	e022      	b.n	8004476 <I2C_IsAcknowledgeFailed+0x62>
    {
      /* Check for the Timeout */
      if (Timeout != HAL_MAX_DELAY)
 8004430:	68bb      	ldr	r3, [r7, #8]
 8004432:	f1b3 3fff 	cmp.w	r3, #4294967295
 8004436:	d01e      	beq.n	8004476 <I2C_IsAcknowledgeFailed+0x62>
      {
        if (((HAL_GetTick() - Tickstart) > Timeout) || (Timeout == 0U))
 8004438:	f7fe ff5a 	bl	80032f0 <HAL_GetTick>
 800443c:	4602      	mov	r2, r0
 800443e:	687b      	ldr	r3, [r7, #4]
 8004440:	1ad3      	subs	r3, r2, r3
 8004442:	68ba      	ldr	r2, [r7, #8]
 8004444:	429a      	cmp	r2, r3
 8004446:	d302      	bcc.n	800444e <I2C_IsAcknowledgeFailed+0x3a>
 8004448:	68bb      	ldr	r3, [r7, #8]
 800444a:	2b00      	cmp	r3, #0
 800444c:	d113      	bne.n	8004476 <I2C_IsAcknowledgeFailed+0x62>
        {
          hi2c->ErrorCode |= HAL_I2C_ERROR_TIMEOUT;
 800444e:	68fb      	ldr	r3, [r7, #12]
 8004450:	6c5b      	ldr	r3, [r3, #68]	; 0x44
 8004452:	f043 0220 	orr.w	r2, r3, #32
 8004456:	68fb      	ldr	r3, [r7, #12]
 8004458:	645a      	str	r2, [r3, #68]	; 0x44
          hi2c->State = HAL_I2C_STATE_READY;
 800445a:	68fb      	ldr	r3, [r7, #12]
 800445c:	2220      	movs	r2, #32
 800445e:	f883 2041 	strb.w	r2, [r3, #65]	; 0x41
          hi2c->Mode = HAL_I2C_MODE_NONE;
 8004462:	68fb      	ldr	r3, [r7, #12]
 8004464:	2200      	movs	r2, #0
 8004466:	f883 2042 	strb.w	r2, [r3, #66]	; 0x42

          /* Process Unlocked */
          __HAL_UNLOCK(hi2c);
 800446a:	68fb      	ldr	r3, [r7, #12]
 800446c:	2200      	movs	r2, #0
 800446e:	f883 2040 	strb.w	r2, [r3, #64]	; 0x40

          return HAL_ERROR;
 8004472:	2301      	movs	r3, #1
 8004474:	e02e      	b.n	80044d4 <I2C_IsAcknowledgeFailed+0xc0>
    while (__HAL_I2C_GET_FLAG(hi2c, I2C_FLAG_STOPF) == RESET)
 8004476:	68fb      	ldr	r3, [r7, #12]
 8004478:	681b      	ldr	r3, [r3, #0]
 800447a:	699b      	ldr	r3, [r3, #24]
 800447c:	f003 0320 	and.w	r3, r3, #32
 8004480:	2b20      	cmp	r3, #32
 8004482:	d1d5      	bne.n	8004430 <I2C_IsAcknowledgeFailed+0x1c>
        }
      }
    }

    /* Clear NACKF Flag */
    __HAL_I2C_CLEAR_FLAG(hi2c, I2C_FLAG_AF);
 8004484:	68fb      	ldr	r3, [r7, #12]
 8004486:	681b      	ldr	r3, [r3, #0]
 8004488:	2210      	movs	r2, #16
 800448a:	61da      	str	r2, [r3, #28]

    /* Clear STOP Flag */
    __HAL_I2C_CLEAR_FLAG(hi2c, I2C_FLAG_STOPF);
 800448c:	68fb      	ldr	r3, [r7, #12]
 800448e:	681b      	ldr	r3, [r3, #0]
 8004490:	2220      	movs	r2, #32
 8004492:	61da      	str	r2, [r3, #28]

    /* Flush TX register */
    I2C_Flush_TXDR(hi2c);
 8004494:	68f8      	ldr	r0, [r7, #12]
 8004496:	f7ff fedd 	bl	8004254 <I2C_Flush_TXDR>

    /* Clear Configuration Register 2 */
    I2C_RESET_CR2(hi2c);
 800449a:	68fb      	ldr	r3, [r7, #12]
 800449c:	681b      	ldr	r3, [r3, #0]
 800449e:	6859      	ldr	r1, [r3, #4]
 80044a0:	68fb      	ldr	r3, [r7, #12]
 80044a2:	681a      	ldr	r2, [r3, #0]
 80044a4:	4b0d      	ldr	r3, [pc, #52]	; (80044dc <I2C_IsAcknowledgeFailed+0xc8>)
 80044a6:	400b      	ands	r3, r1
 80044a8:	6053      	str	r3, [r2, #4]

    hi2c->ErrorCode |= HAL_I2C_ERROR_AF;
 80044aa:	68fb      	ldr	r3, [r7, #12]
 80044ac:	6c5b      	ldr	r3, [r3, #68]	; 0x44
 80044ae:	f043 0204 	orr.w	r2, r3, #4
 80044b2:	68fb      	ldr	r3, [r7, #12]
 80044b4:	645a      	str	r2, [r3, #68]	; 0x44
    hi2c->State = HAL_I2C_STATE_READY;
 80044b6:	68fb      	ldr	r3, [r7, #12]
 80044b8:	2220      	movs	r2, #32
 80044ba:	f883 2041 	strb.w	r2, [r3, #65]	; 0x41
    hi2c->Mode = HAL_I2C_MODE_NONE;
 80044be:	68fb      	ldr	r3, [r7, #12]
 80044c0:	2200      	movs	r2, #0
 80044c2:	f883 2042 	strb.w	r2, [r3, #66]	; 0x42

    /* Process Unlocked */
    __HAL_UNLOCK(hi2c);
 80044c6:	68fb      	ldr	r3, [r7, #12]
 80044c8:	2200      	movs	r2, #0
 80044ca:	f883 2040 	strb.w	r2, [r3, #64]	; 0x40

    return HAL_ERROR;
 80044ce:	2301      	movs	r3, #1
 80044d0:	e000      	b.n	80044d4 <I2C_IsAcknowledgeFailed+0xc0>
  }
  return HAL_OK;
 80044d2:	2300      	movs	r3, #0
}
 80044d4:	4618      	mov	r0, r3
 80044d6:	3710      	adds	r7, #16
 80044d8:	46bd      	mov	sp, r7
 80044da:	bd80      	pop	{r7, pc}
 80044dc:	fe00e800 	.word	0xfe00e800

080044e0 <I2C_TransferConfig>:
  *     @arg @ref I2C_GENERATE_START_READ Generate Restart for read request.
  *     @arg @ref I2C_GENERATE_START_WRITE Generate Restart for write request.
  * @retval None
  */
static void I2C_TransferConfig(I2C_HandleTypeDef *hi2c, uint16_t DevAddress, uint8_t Size, uint32_t Mode, uint32_t Request)
{
 80044e0:	b480      	push	{r7}
 80044e2:	b085      	sub	sp, #20
 80044e4:	af00      	add	r7, sp, #0
 80044e6:	60f8      	str	r0, [r7, #12]
 80044e8:	607b      	str	r3, [r7, #4]
 80044ea:	460b      	mov	r3, r1
 80044ec:	817b      	strh	r3, [r7, #10]
 80044ee:	4613      	mov	r3, r2
 80044f0:	727b      	strb	r3, [r7, #9]
  assert_param(IS_I2C_ALL_INSTANCE(hi2c->Instance));
  assert_param(IS_TRANSFER_MODE(Mode));
  assert_param(IS_TRANSFER_REQUEST(Request));

  /* update CR2 register */
  MODIFY_REG(hi2c->Instance->CR2, ((I2C_CR2_SADD | I2C_CR2_NBYTES | I2C_CR2_RELOAD | I2C_CR2_AUTOEND | (I2C_CR2_RD_WRN & (uint32_t)(Request >> (31U - I2C_CR2_RD_WRN_Pos))) | I2C_CR2_START | I2C_CR2_STOP)), \
 80044f2:	68fb      	ldr	r3, [r7, #12]
 80044f4:	681b      	ldr	r3, [r3, #0]
 80044f6:	685a      	ldr	r2, [r3, #4]
 80044f8:	69bb      	ldr	r3, [r7, #24]
 80044fa:	0d5b      	lsrs	r3, r3, #21
 80044fc:	f403 6180 	and.w	r1, r3, #1024	; 0x400
 8004500:	4b0d      	ldr	r3, [pc, #52]	; (8004538 <I2C_TransferConfig+0x58>)
 8004502:	430b      	orrs	r3, r1
 8004504:	43db      	mvns	r3, r3
 8004506:	ea02 0103 	and.w	r1, r2, r3
 800450a:	897b      	ldrh	r3, [r7, #10]
 800450c:	f3c3 0209 	ubfx	r2, r3, #0, #10
 8004510:	7a7b      	ldrb	r3, [r7, #9]
 8004512:	041b      	lsls	r3, r3, #16
 8004514:	f403 037f 	and.w	r3, r3, #16711680	; 0xff0000
 8004518:	431a      	orrs	r2, r3
 800451a:	687b      	ldr	r3, [r7, #4]
 800451c:	431a      	orrs	r2, r3
 800451e:	69bb      	ldr	r3, [r7, #24]
 8004520:	431a      	orrs	r2, r3
 8004522:	68fb      	ldr	r3, [r7, #12]
 8004524:	681b      	ldr	r3, [r3, #0]
 8004526:	430a      	orrs	r2, r1
 8004528:	605a      	str	r2, [r3, #4]
             (uint32_t)(((uint32_t)DevAddress & I2C_CR2_SADD) | (((uint32_t)Size << I2C_CR2_NBYTES_Pos) & I2C_CR2_NBYTES) | (uint32_t)Mode | (uint32_t)Request));
}
 800452a:	bf00      	nop
 800452c:	3714      	adds	r7, #20
 800452e:	46bd      	mov	sp, r7
 8004530:	f85d 7b04 	ldr.w	r7, [sp], #4
 8004534:	4770      	bx	lr
 8004536:	bf00      	nop
 8004538:	03ff63ff 	.word	0x03ff63ff

0800453c <HAL_I2CEx_ConfigAnalogFilter>:
  *                the configuration information for the specified I2Cx peripheral.
  * @param  AnalogFilter New state of the Analog filter.
  * @retval HAL status
  */
HAL_StatusTypeDef HAL_I2CEx_ConfigAnalogFilter(I2C_HandleTypeDef *hi2c, uint32_t AnalogFilter)
{
 800453c:	b480      	push	{r7}
 800453e:	b083      	sub	sp, #12
 8004540:	af00      	add	r7, sp, #0
 8004542:	6078      	str	r0, [r7, #4]
 8004544:	6039      	str	r1, [r7, #0]
  /* Check the parameters */
  assert_param(IS_I2C_ALL_INSTANCE(hi2c->Instance));
  assert_param(IS_I2C_ANALOG_FILTER(AnalogFilter));

  if (hi2c->State == HAL_I2C_STATE_READY)
 8004546:	687b      	ldr	r3, [r7, #4]
 8004548:	f893 3041 	ldrb.w	r3, [r3, #65]	; 0x41
 800454c:	b2db      	uxtb	r3, r3
 800454e:	2b20      	cmp	r3, #32
 8004550:	d138      	bne.n	80045c4 <HAL_I2CEx_ConfigAnalogFilter+0x88>
  {
    /* Process Locked */
    __HAL_LOCK(hi2c);
 8004552:	687b      	ldr	r3, [r7, #4]
 8004554:	f893 3040 	ldrb.w	r3, [r3, #64]	; 0x40
 8004558:	2b01      	cmp	r3, #1
 800455a:	d101      	bne.n	8004560 <HAL_I2CEx_ConfigAnalogFilter+0x24>
 800455c:	2302      	movs	r3, #2
 800455e:	e032      	b.n	80045c6 <HAL_I2CEx_ConfigAnalogFilter+0x8a>
 8004560:	687b      	ldr	r3, [r7, #4]
 8004562:	2201      	movs	r2, #1
 8004564:	f883 2040 	strb.w	r2, [r3, #64]	; 0x40

    hi2c->State = HAL_I2C_STATE_BUSY;
 8004568:	687b      	ldr	r3, [r7, #4]
 800456a:	2224      	movs	r2, #36	; 0x24
 800456c:	f883 2041 	strb.w	r2, [r3, #65]	; 0x41

    /* Disable the selected I2C peripheral */
    __HAL_I2C_DISABLE(hi2c);
 8004570:	687b      	ldr	r3, [r7, #4]
 8004572:	681b      	ldr	r3, [r3, #0]
 8004574:	681a      	ldr	r2, [r3, #0]
 8004576:	687b      	ldr	r3, [r7, #4]
 8004578:	681b      	ldr	r3, [r3, #0]
 800457a:	f022 0201 	bic.w	r2, r2, #1
 800457e:	601a      	str	r2, [r3, #0]

    /* Reset I2Cx ANOFF bit */
    hi2c->Instance->CR1 &= ~(I2C_CR1_ANFOFF);
 8004580:	687b      	ldr	r3, [r7, #4]
 8004582:	681b      	ldr	r3, [r3, #0]
 8004584:	681a      	ldr	r2, [r3, #0]
 8004586:	687b      	ldr	r3, [r7, #4]
 8004588:	681b      	ldr	r3, [r3, #0]
 800458a:	f422 5280 	bic.w	r2, r2, #4096	; 0x1000
 800458e:	601a      	str	r2, [r3, #0]

    /* Set analog filter bit*/
    hi2c->Instance->CR1 |= AnalogFilter;
 8004590:	687b      	ldr	r3, [r7, #4]
 8004592:	681b      	ldr	r3, [r3, #0]
 8004594:	6819      	ldr	r1, [r3, #0]
 8004596:	687b      	ldr	r3, [r7, #4]
 8004598:	681b      	ldr	r3, [r3, #0]
 800459a:	683a      	ldr	r2, [r7, #0]
 800459c:	430a      	orrs	r2, r1
 800459e:	601a      	str	r2, [r3, #0]

    __HAL_I2C_ENABLE(hi2c);
 80045a0:	687b      	ldr	r3, [r7, #4]
 80045a2:	681b      	ldr	r3, [r3, #0]
 80045a4:	681a      	ldr	r2, [r3, #0]
 80045a6:	687b      	ldr	r3, [r7, #4]
 80045a8:	681b      	ldr	r3, [r3, #0]
 80045aa:	f042 0201 	orr.w	r2, r2, #1
 80045ae:	601a      	str	r2, [r3, #0]

    hi2c->State = HAL_I2C_STATE_READY;
 80045b0:	687b      	ldr	r3, [r7, #4]
 80045b2:	2220      	movs	r2, #32
 80045b4:	f883 2041 	strb.w	r2, [r3, #65]	; 0x41

    /* Process Unlocked */
    __HAL_UNLOCK(hi2c);
 80045b8:	687b      	ldr	r3, [r7, #4]
 80045ba:	2200      	movs	r2, #0
 80045bc:	f883 2040 	strb.w	r2, [r3, #64]	; 0x40

    return HAL_OK;
 80045c0:	2300      	movs	r3, #0
 80045c2:	e000      	b.n	80045c6 <HAL_I2CEx_ConfigAnalogFilter+0x8a>
  }
  else
  {
    return HAL_BUSY;
 80045c4:	2302      	movs	r3, #2
  }
}
 80045c6:	4618      	mov	r0, r3
 80045c8:	370c      	adds	r7, #12
 80045ca:	46bd      	mov	sp, r7
 80045cc:	f85d 7b04 	ldr.w	r7, [sp], #4
 80045d0:	4770      	bx	lr
	...

080045d4 <HAL_RCC_GetSysClockFreq>:
  *
  *
  * @retval SYSCLK frequency
  */
uint32_t HAL_RCC_GetSysClockFreq(void)
{
 80045d4:	b480      	push	{r7}
 80045d6:	b089      	sub	sp, #36	; 0x24
 80045d8:	af00      	add	r7, sp, #0
  uint32_t msirange = 0U, sysclockfreq = 0U;
 80045da:	2300      	movs	r3, #0
 80045dc:	61fb      	str	r3, [r7, #28]
 80045de:	2300      	movs	r3, #0
 80045e0:	61bb      	str	r3, [r7, #24]
  uint32_t pllvco, pllsource, pllr, pllm;    /* no init needed */
  uint32_t sysclk_source, pll_oscsource;

  sysclk_source = __HAL_RCC_GET_SYSCLK_SOURCE();
 80045e2:	4b3e      	ldr	r3, [pc, #248]	; (80046dc <HAL_RCC_GetSysClockFreq+0x108>)
 80045e4:	689b      	ldr	r3, [r3, #8]
 80045e6:	f003 030c 	and.w	r3, r3, #12
 80045ea:	613b      	str	r3, [r7, #16]
  pll_oscsource = __HAL_RCC_GET_PLL_OSCSOURCE();
 80045ec:	4b3b      	ldr	r3, [pc, #236]	; (80046dc <HAL_RCC_GetSysClockFreq+0x108>)
 80045ee:	68db      	ldr	r3, [r3, #12]
 80045f0:	f003 0303 	and.w	r3, r3, #3
 80045f4:	60fb      	str	r3, [r7, #12]

  if((sysclk_source == RCC_CFGR_SWS_MSI) ||
 80045f6:	693b      	ldr	r3, [r7, #16]
 80045f8:	2b00      	cmp	r3, #0
 80045fa:	d005      	beq.n	8004608 <HAL_RCC_GetSysClockFreq+0x34>
 80045fc:	693b      	ldr	r3, [r7, #16]
 80045fe:	2b0c      	cmp	r3, #12
 8004600:	d121      	bne.n	8004646 <HAL_RCC_GetSysClockFreq+0x72>
     ((sysclk_source == RCC_CFGR_SWS_PLL) && (pll_oscsource == RCC_PLLSOURCE_MSI)))
 8004602:	68fb      	ldr	r3, [r7, #12]
 8004604:	2b01      	cmp	r3, #1
 8004606:	d11e      	bne.n	8004646 <HAL_RCC_GetSysClockFreq+0x72>
  {
    /* MSI or PLL with MSI source used as system clock source */

    /* Get SYSCLK source */
    if(READ_BIT(RCC->CR, RCC_CR_MSIRGSEL) == 0U)
 8004608:	4b34      	ldr	r3, [pc, #208]	; (80046dc <HAL_RCC_GetSysClockFreq+0x108>)
 800460a:	681b      	ldr	r3, [r3, #0]
 800460c:	f003 0308 	and.w	r3, r3, #8
 8004610:	2b00      	cmp	r3, #0
 8004612:	d107      	bne.n	8004624 <HAL_RCC_GetSysClockFreq+0x50>
    { /* MSISRANGE from RCC_CSR applies */
      msirange = READ_BIT(RCC->CSR, RCC_CSR_MSISRANGE) >> RCC_CSR_MSISRANGE_Pos;
 8004614:	4b31      	ldr	r3, [pc, #196]	; (80046dc <HAL_RCC_GetSysClockFreq+0x108>)
 8004616:	f8d3 3094 	ldr.w	r3, [r3, #148]	; 0x94
 800461a:	0a1b      	lsrs	r3, r3, #8
 800461c:	f003 030f 	and.w	r3, r3, #15
 8004620:	61fb      	str	r3, [r7, #28]
 8004622:	e005      	b.n	8004630 <HAL_RCC_GetSysClockFreq+0x5c>
    }
    else
    { /* MSIRANGE from RCC_CR applies */
      msirange = READ_BIT(RCC->CR, RCC_CR_MSIRANGE) >> RCC_CR_MSIRANGE_Pos;
 8004624:	4b2d      	ldr	r3, [pc, #180]	; (80046dc <HAL_RCC_GetSysClockFreq+0x108>)
 8004626:	681b      	ldr	r3, [r3, #0]
 8004628:	091b      	lsrs	r3, r3, #4
 800462a:	f003 030f 	and.w	r3, r3, #15
 800462e:	61fb      	str	r3, [r7, #28]
    }
    /*MSI frequency range in HZ*/
    msirange = MSIRangeTable[msirange];
 8004630:	4a2b      	ldr	r2, [pc, #172]	; (80046e0 <HAL_RCC_GetSysClockFreq+0x10c>)
 8004632:	69fb      	ldr	r3, [r7, #28]
 8004634:	f852 3023 	ldr.w	r3, [r2, r3, lsl #2]
 8004638:	61fb      	str	r3, [r7, #28]

    if(sysclk_source == RCC_CFGR_SWS_MSI)
 800463a:	693b      	ldr	r3, [r7, #16]
 800463c:	2b00      	cmp	r3, #0
 800463e:	d10d      	bne.n	800465c <HAL_RCC_GetSysClockFreq+0x88>
    {
      /* MSI used as system clock source */
      sysclockfreq = msirange;
 8004640:	69fb      	ldr	r3, [r7, #28]
 8004642:	61bb      	str	r3, [r7, #24]
    if(sysclk_source == RCC_CFGR_SWS_MSI)
 8004644:	e00a      	b.n	800465c <HAL_RCC_GetSysClockFreq+0x88>
    }
  }
  else if(sysclk_source == RCC_CFGR_SWS_HSI)
 8004646:	693b      	ldr	r3, [r7, #16]
 8004648:	2b04      	cmp	r3, #4
 800464a:	d102      	bne.n	8004652 <HAL_RCC_GetSysClockFreq+0x7e>
  {
    /* HSI used as system clock source */
    sysclockfreq = HSI_VALUE;
 800464c:	4b25      	ldr	r3, [pc, #148]	; (80046e4 <HAL_RCC_GetSysClockFreq+0x110>)
 800464e:	61bb      	str	r3, [r7, #24]
 8004650:	e004      	b.n	800465c <HAL_RCC_GetSysClockFreq+0x88>
  }
  else if(sysclk_source == RCC_CFGR_SWS_HSE)
 8004652:	693b      	ldr	r3, [r7, #16]
 8004654:	2b08      	cmp	r3, #8
 8004656:	d101      	bne.n	800465c <HAL_RCC_GetSysClockFreq+0x88>
  {
    /* HSE used as system clock source */
    sysclockfreq = HSE_VALUE;
 8004658:	4b23      	ldr	r3, [pc, #140]	; (80046e8 <HAL_RCC_GetSysClockFreq+0x114>)
 800465a:	61bb      	str	r3, [r7, #24]
  else
  {
    /* unexpected case: sysclockfreq at 0 */
  }

  if(sysclk_source == RCC_CFGR_SWS_PLL)
 800465c:	693b      	ldr	r3, [r7, #16]
 800465e:	2b0c      	cmp	r3, #12
 8004660:	d134      	bne.n	80046cc <HAL_RCC_GetSysClockFreq+0xf8>
    /* PLL used as system clock  source */

    /* PLL_VCO = (HSE_VALUE or HSI_VALUE or MSI_VALUE) * PLLN / PLLM
    SYSCLK = PLL_VCO / PLLR
    */
    pllsource = READ_BIT(RCC->PLLCFGR, RCC_PLLCFGR_PLLSRC);
 8004662:	4b1e      	ldr	r3, [pc, #120]	; (80046dc <HAL_RCC_GetSysClockFreq+0x108>)
 8004664:	68db      	ldr	r3, [r3, #12]
 8004666:	f003 0303 	and.w	r3, r3, #3
 800466a:	60bb      	str	r3, [r7, #8]

    switch (pllsource)
 800466c:	68bb      	ldr	r3, [r7, #8]
 800466e:	2b02      	cmp	r3, #2
 8004670:	d003      	beq.n	800467a <HAL_RCC_GetSysClockFreq+0xa6>
 8004672:	68bb      	ldr	r3, [r7, #8]
 8004674:	2b03      	cmp	r3, #3
 8004676:	d003      	beq.n	8004680 <HAL_RCC_GetSysClockFreq+0xac>
 8004678:	e005      	b.n	8004686 <HAL_RCC_GetSysClockFreq+0xb2>
    {
    case RCC_PLLSOURCE_HSI:  /* HSI used as PLL clock source */
      pllvco = HSI_VALUE;
 800467a:	4b1a      	ldr	r3, [pc, #104]	; (80046e4 <HAL_RCC_GetSysClockFreq+0x110>)
 800467c:	617b      	str	r3, [r7, #20]
      break;
 800467e:	e005      	b.n	800468c <HAL_RCC_GetSysClockFreq+0xb8>

    case RCC_PLLSOURCE_HSE:  /* HSE used as PLL clock source */
      pllvco = HSE_VALUE;
 8004680:	4b19      	ldr	r3, [pc, #100]	; (80046e8 <HAL_RCC_GetSysClockFreq+0x114>)
 8004682:	617b      	str	r3, [r7, #20]
      break;
 8004684:	e002      	b.n	800468c <HAL_RCC_GetSysClockFreq+0xb8>

    case RCC_PLLSOURCE_MSI:  /* MSI used as PLL clock source */
    default:
      pllvco = msirange;
 8004686:	69fb      	ldr	r3, [r7, #28]
 8004688:	617b      	str	r3, [r7, #20]
      break;
 800468a:	bf00      	nop
    }
    pllm = (READ_BIT(RCC->PLLCFGR, RCC_PLLCFGR_PLLM) >> RCC_PLLCFGR_PLLM_Pos) + 1U ;
 800468c:	4b13      	ldr	r3, [pc, #76]	; (80046dc <HAL_RCC_GetSysClockFreq+0x108>)
 800468e:	68db      	ldr	r3, [r3, #12]
 8004690:	091b      	lsrs	r3, r3, #4
 8004692:	f003 0307 	and.w	r3, r3, #7
 8004696:	3301      	adds	r3, #1
 8004698:	607b      	str	r3, [r7, #4]
    pllvco = (pllvco * (READ_BIT(RCC->PLLCFGR, RCC_PLLCFGR_PLLN) >> RCC_PLLCFGR_PLLN_Pos)) / pllm;
 800469a:	4b10      	ldr	r3, [pc, #64]	; (80046dc <HAL_RCC_GetSysClockFreq+0x108>)
 800469c:	68db      	ldr	r3, [r3, #12]
 800469e:	0a1b      	lsrs	r3, r3, #8
 80046a0:	f003 037f 	and.w	r3, r3, #127	; 0x7f
 80046a4:	697a      	ldr	r2, [r7, #20]
 80046a6:	fb03 f202 	mul.w	r2, r3, r2
 80046aa:	687b      	ldr	r3, [r7, #4]
 80046ac:	fbb2 f3f3 	udiv	r3, r2, r3
 80046b0:	617b      	str	r3, [r7, #20]
    pllr = ((READ_BIT(RCC->PLLCFGR, RCC_PLLCFGR_PLLR) >> RCC_PLLCFGR_PLLR_Pos) + 1U ) * 2U;
 80046b2:	4b0a      	ldr	r3, [pc, #40]	; (80046dc <HAL_RCC_GetSysClockFreq+0x108>)
 80046b4:	68db      	ldr	r3, [r3, #12]
 80046b6:	0e5b      	lsrs	r3, r3, #25
 80046b8:	f003 0303 	and.w	r3, r3, #3
 80046bc:	3301      	adds	r3, #1
 80046be:	005b      	lsls	r3, r3, #1
 80046c0:	603b      	str	r3, [r7, #0]
    sysclockfreq = pllvco / pllr;
 80046c2:	697a      	ldr	r2, [r7, #20]
 80046c4:	683b      	ldr	r3, [r7, #0]
 80046c6:	fbb2 f3f3 	udiv	r3, r2, r3
 80046ca:	61bb      	str	r3, [r7, #24]
  }

  return sysclockfreq;
 80046cc:	69bb      	ldr	r3, [r7, #24]
}
 80046ce:	4618      	mov	r0, r3
 80046d0:	3724      	adds	r7, #36	; 0x24
 80046d2:	46bd      	mov	sp, r7
 80046d4:	f85d 7b04 	ldr.w	r7, [sp], #4
 80046d8:	4770      	bx	lr
 80046da:	bf00      	nop
 80046dc:	40021000 	.word	0x40021000
 80046e0:	08008670 	.word	0x08008670
 80046e4:	00f42400 	.word	0x00f42400
 80046e8:	007a1200 	.word	0x007a1200

080046ec <HAL_RCC_GetHCLKFreq>:
  *
  * @note   The SystemCoreClock CMSIS variable is used to store System Clock Frequency.
  * @retval HCLK frequency in Hz
  */
uint32_t HAL_RCC_GetHCLKFreq(void)
{
 80046ec:	b480      	push	{r7}
 80046ee:	af00      	add	r7, sp, #0
  return SystemCoreClock;
 80046f0:	4b03      	ldr	r3, [pc, #12]	; (8004700 <HAL_RCC_GetHCLKFreq+0x14>)
 80046f2:	681b      	ldr	r3, [r3, #0]
}
 80046f4:	4618      	mov	r0, r3
 80046f6:	46bd      	mov	sp, r7
 80046f8:	f85d 7b04 	ldr.w	r7, [sp], #4
 80046fc:	4770      	bx	lr
 80046fe:	bf00      	nop
 8004700:	20000004 	.word	0x20000004

08004704 <HAL_RCC_GetPCLK1Freq>:
  * @note   Each time PCLK1 changes, this function must be called to update the
  *         right PCLK1 value. Otherwise, any configuration based on this function will be incorrect.
  * @retval PCLK1 frequency in Hz
  */
uint32_t HAL_RCC_GetPCLK1Freq(void)
{
 8004704:	b580      	push	{r7, lr}
 8004706:	af00      	add	r7, sp, #0
  /* Get HCLK source and Compute PCLK1 frequency ---------------------------*/
  return (HAL_RCC_GetHCLKFreq() >> (APBPrescTable[READ_BIT(RCC->CFGR, RCC_CFGR_PPRE1) >> RCC_CFGR_PPRE1_Pos] & 0x1FU));
 8004708:	f7ff fff0 	bl	80046ec <HAL_RCC_GetHCLKFreq>
 800470c:	4602      	mov	r2, r0
 800470e:	4b06      	ldr	r3, [pc, #24]	; (8004728 <HAL_RCC_GetPCLK1Freq+0x24>)
 8004710:	689b      	ldr	r3, [r3, #8]
 8004712:	0a1b      	lsrs	r3, r3, #8
 8004714:	f003 0307 	and.w	r3, r3, #7
 8004718:	4904      	ldr	r1, [pc, #16]	; (800472c <HAL_RCC_GetPCLK1Freq+0x28>)
 800471a:	5ccb      	ldrb	r3, [r1, r3]
 800471c:	f003 031f 	and.w	r3, r3, #31
 8004720:	fa22 f303 	lsr.w	r3, r2, r3
}
 8004724:	4618      	mov	r0, r3
 8004726:	bd80      	pop	{r7, pc}
 8004728:	40021000 	.word	0x40021000
 800472c:	08008668 	.word	0x08008668

08004730 <HAL_RCC_GetPCLK2Freq>:
  * @note   Each time PCLK2 changes, this function must be called to update the
  *         right PCLK2 value. Otherwise, any configuration based on this function will be incorrect.
  * @retval PCLK2 frequency in Hz
  */
uint32_t HAL_RCC_GetPCLK2Freq(void)
{
 8004730:	b580      	push	{r7, lr}
 8004732:	af00      	add	r7, sp, #0
  /* Get HCLK source and Compute PCLK2 frequency ---------------------------*/
  return (HAL_RCC_GetHCLKFreq()>> (APBPrescTable[READ_BIT(RCC->CFGR, RCC_CFGR_PPRE2) >> RCC_CFGR_PPRE2_Pos] & 0x1FU));
 8004734:	f7ff ffda 	bl	80046ec <HAL_RCC_GetHCLKFreq>
 8004738:	4602      	mov	r2, r0
 800473a:	4b06      	ldr	r3, [pc, #24]	; (8004754 <HAL_RCC_GetPCLK2Freq+0x24>)
 800473c:	689b      	ldr	r3, [r3, #8]
 800473e:	0adb      	lsrs	r3, r3, #11
 8004740:	f003 0307 	and.w	r3, r3, #7
 8004744:	4904      	ldr	r1, [pc, #16]	; (8004758 <HAL_RCC_GetPCLK2Freq+0x28>)
 8004746:	5ccb      	ldrb	r3, [r1, r3]
 8004748:	f003 031f 	and.w	r3, r3, #31
 800474c:	fa22 f303 	lsr.w	r3, r2, r3
}
 8004750:	4618      	mov	r0, r3
 8004752:	bd80      	pop	{r7, pc}
 8004754:	40021000 	.word	0x40021000
 8004758:	08008668 	.word	0x08008668

0800475c <HAL_UART_Init>:
  *        parameters in the UART_InitTypeDef and initialize the associated handle.
  * @param huart UART handle.
  * @retval HAL status
  */
HAL_StatusTypeDef HAL_UART_Init(UART_HandleTypeDef *huart)
{
 800475c:	b580      	push	{r7, lr}
 800475e:	b082      	sub	sp, #8
 8004760:	af00      	add	r7, sp, #0
 8004762:	6078      	str	r0, [r7, #4]
  /* Check the UART handle allocation */
  if (huart == NULL)
 8004764:	687b      	ldr	r3, [r7, #4]
 8004766:	2b00      	cmp	r3, #0
 8004768:	d101      	bne.n	800476e <HAL_UART_Init+0x12>
  {
    return HAL_ERROR;
 800476a:	2301      	movs	r3, #1
 800476c:	e040      	b.n	80047f0 <HAL_UART_Init+0x94>
  {
    /* Check the parameters */
    assert_param((IS_UART_INSTANCE(huart->Instance)) || (IS_LPUART_INSTANCE(huart->Instance)));
  }

  if (huart->gState == HAL_UART_STATE_RESET)
 800476e:	687b      	ldr	r3, [r7, #4]
 8004770:	6f5b      	ldr	r3, [r3, #116]	; 0x74
 8004772:	2b00      	cmp	r3, #0
 8004774:	d106      	bne.n	8004784 <HAL_UART_Init+0x28>
  {
    /* Allocate lock resource and initialize it */
    huart->Lock = HAL_UNLOCKED;
 8004776:	687b      	ldr	r3, [r7, #4]
 8004778:	2200      	movs	r2, #0
 800477a:	f883 2070 	strb.w	r2, [r3, #112]	; 0x70

    /* Init the low level hardware */
    huart->MspInitCallback(huart);
#else
    /* Init the low level hardware : GPIO, CLOCK */
    HAL_UART_MspInit(huart);
 800477e:	6878      	ldr	r0, [r7, #4]
 8004780:	f7fd fbb8 	bl	8001ef4 <HAL_UART_MspInit>
#endif /* (USE_HAL_UART_REGISTER_CALLBACKS) */
  }

  huart->gState = HAL_UART_STATE_BUSY;
 8004784:	687b      	ldr	r3, [r7, #4]
 8004786:	2224      	movs	r2, #36	; 0x24
 8004788:	675a      	str	r2, [r3, #116]	; 0x74

  __HAL_UART_DISABLE(huart);
 800478a:	687b      	ldr	r3, [r7, #4]
 800478c:	681b      	ldr	r3, [r3, #0]
 800478e:	681a      	ldr	r2, [r3, #0]
 8004790:	687b      	ldr	r3, [r7, #4]
 8004792:	681b      	ldr	r3, [r3, #0]
 8004794:	f022 0201 	bic.w	r2, r2, #1
 8004798:	601a      	str	r2, [r3, #0]

  /* Set the UART Communication parameters */
  if (UART_SetConfig(huart) == HAL_ERROR)
 800479a:	6878      	ldr	r0, [r7, #4]
 800479c:	f000 f8c0 	bl	8004920 <UART_SetConfig>
 80047a0:	4603      	mov	r3, r0
 80047a2:	2b01      	cmp	r3, #1
 80047a4:	d101      	bne.n	80047aa <HAL_UART_Init+0x4e>
  {
    return HAL_ERROR;
 80047a6:	2301      	movs	r3, #1
 80047a8:	e022      	b.n	80047f0 <HAL_UART_Init+0x94>
  }

  if (huart->AdvancedInit.AdvFeatureInit != UART_ADVFEATURE_NO_INIT)
 80047aa:	687b      	ldr	r3, [r7, #4]
 80047ac:	6a5b      	ldr	r3, [r3, #36]	; 0x24
 80047ae:	2b00      	cmp	r3, #0
 80047b0:	d002      	beq.n	80047b8 <HAL_UART_Init+0x5c>
  {
    UART_AdvFeatureConfig(huart);
 80047b2:	6878      	ldr	r0, [r7, #4]
 80047b4:	f000 fc54 	bl	8005060 <UART_AdvFeatureConfig>
  }

  /* In asynchronous mode, the following bits must be kept cleared:
  - LINEN and CLKEN bits in the USART_CR2 register,
  - SCEN, HDSEL and IREN  bits in the USART_CR3 register.*/
  CLEAR_BIT(huart->Instance->CR2, (USART_CR2_LINEN | USART_CR2_CLKEN));
 80047b8:	687b      	ldr	r3, [r7, #4]
 80047ba:	681b      	ldr	r3, [r3, #0]
 80047bc:	685a      	ldr	r2, [r3, #4]
 80047be:	687b      	ldr	r3, [r7, #4]
 80047c0:	681b      	ldr	r3, [r3, #0]
 80047c2:	f422 4290 	bic.w	r2, r2, #18432	; 0x4800
 80047c6:	605a      	str	r2, [r3, #4]
  CLEAR_BIT(huart->Instance->CR3, (USART_CR3_SCEN | USART_CR3_HDSEL | USART_CR3_IREN));
 80047c8:	687b      	ldr	r3, [r7, #4]
 80047ca:	681b      	ldr	r3, [r3, #0]
 80047cc:	689a      	ldr	r2, [r3, #8]
 80047ce:	687b      	ldr	r3, [r7, #4]
 80047d0:	681b      	ldr	r3, [r3, #0]
 80047d2:	f022 022a 	bic.w	r2, r2, #42	; 0x2a
 80047d6:	609a      	str	r2, [r3, #8]

  __HAL_UART_ENABLE(huart);
 80047d8:	687b      	ldr	r3, [r7, #4]
 80047da:	681b      	ldr	r3, [r3, #0]
 80047dc:	681a      	ldr	r2, [r3, #0]
 80047de:	687b      	ldr	r3, [r7, #4]
 80047e0:	681b      	ldr	r3, [r3, #0]
 80047e2:	f042 0201 	orr.w	r2, r2, #1
 80047e6:	601a      	str	r2, [r3, #0]

  /* TEACK and/or REACK to check before moving huart->gState and huart->RxState to Ready */
  return (UART_CheckIdleState(huart));
 80047e8:	6878      	ldr	r0, [r7, #4]
 80047ea:	f000 fcdb 	bl	80051a4 <UART_CheckIdleState>
 80047ee:	4603      	mov	r3, r0
}
 80047f0:	4618      	mov	r0, r3
 80047f2:	3708      	adds	r7, #8
 80047f4:	46bd      	mov	sp, r7
 80047f6:	bd80      	pop	{r7, pc}

080047f8 <HAL_UART_Transmit>:
  * @param Size    Amount of data elements (u8 or u16) to be sent.
  * @param Timeout Timeout duration.
  * @retval HAL status
  */
HAL_StatusTypeDef HAL_UART_Transmit(UART_HandleTypeDef *huart, uint8_t *pData, uint16_t Size, uint32_t Timeout)
{
 80047f8:	b580      	push	{r7, lr}
 80047fa:	b08a      	sub	sp, #40	; 0x28
 80047fc:	af02      	add	r7, sp, #8
 80047fe:	60f8      	str	r0, [r7, #12]
 8004800:	60b9      	str	r1, [r7, #8]
 8004802:	603b      	str	r3, [r7, #0]
 8004804:	4613      	mov	r3, r2
 8004806:	80fb      	strh	r3, [r7, #6]
  uint8_t  *pdata8bits;
  uint16_t *pdata16bits;
  uint32_t tickstart;

  /* Check that a Tx process is not already ongoing */
  if (huart->gState == HAL_UART_STATE_READY)
 8004808:	68fb      	ldr	r3, [r7, #12]
 800480a:	6f5b      	ldr	r3, [r3, #116]	; 0x74
 800480c:	2b20      	cmp	r3, #32
 800480e:	f040 8081 	bne.w	8004914 <HAL_UART_Transmit+0x11c>
  {
    if ((pData == NULL) || (Size == 0U))
 8004812:	68bb      	ldr	r3, [r7, #8]
 8004814:	2b00      	cmp	r3, #0
 8004816:	d002      	beq.n	800481e <HAL_UART_Transmit+0x26>
 8004818:	88fb      	ldrh	r3, [r7, #6]
 800481a:	2b00      	cmp	r3, #0
 800481c:	d101      	bne.n	8004822 <HAL_UART_Transmit+0x2a>
    {
      return  HAL_ERROR;
 800481e:	2301      	movs	r3, #1
 8004820:	e079      	b.n	8004916 <HAL_UART_Transmit+0x11e>
    }

    __HAL_LOCK(huart);
 8004822:	68fb      	ldr	r3, [r7, #12]
 8004824:	f893 3070 	ldrb.w	r3, [r3, #112]	; 0x70
 8004828:	2b01      	cmp	r3, #1
 800482a:	d101      	bne.n	8004830 <HAL_UART_Transmit+0x38>
 800482c:	2302      	movs	r3, #2
 800482e:	e072      	b.n	8004916 <HAL_UART_Transmit+0x11e>
 8004830:	68fb      	ldr	r3, [r7, #12]
 8004832:	2201      	movs	r2, #1
 8004834:	f883 2070 	strb.w	r2, [r3, #112]	; 0x70

    huart->ErrorCode = HAL_UART_ERROR_NONE;
 8004838:	68fb      	ldr	r3, [r7, #12]
 800483a:	2200      	movs	r2, #0
 800483c:	67da      	str	r2, [r3, #124]	; 0x7c
    huart->gState = HAL_UART_STATE_BUSY_TX;
 800483e:	68fb      	ldr	r3, [r7, #12]
 8004840:	2221      	movs	r2, #33	; 0x21
 8004842:	675a      	str	r2, [r3, #116]	; 0x74

    /* Init tickstart for timeout managment*/
    tickstart = HAL_GetTick();
 8004844:	f7fe fd54 	bl	80032f0 <HAL_GetTick>
 8004848:	6178      	str	r0, [r7, #20]

    huart->TxXferSize  = Size;
 800484a:	68fb      	ldr	r3, [r7, #12]
 800484c:	88fa      	ldrh	r2, [r7, #6]
 800484e:	f8a3 2050 	strh.w	r2, [r3, #80]	; 0x50
    huart->TxXferCount = Size;
 8004852:	68fb      	ldr	r3, [r7, #12]
 8004854:	88fa      	ldrh	r2, [r7, #6]
 8004856:	f8a3 2052 	strh.w	r2, [r3, #82]	; 0x52

    /* In case of 9bits/No Parity transfer, pData needs to be handled as a uint16_t pointer */
    if ((huart->Init.WordLength == UART_WORDLENGTH_9B) && (huart->Init.Parity == UART_PARITY_NONE))
 800485a:	68fb      	ldr	r3, [r7, #12]
 800485c:	689b      	ldr	r3, [r3, #8]
 800485e:	f5b3 5f80 	cmp.w	r3, #4096	; 0x1000
 8004862:	d108      	bne.n	8004876 <HAL_UART_Transmit+0x7e>
 8004864:	68fb      	ldr	r3, [r7, #12]
 8004866:	691b      	ldr	r3, [r3, #16]
 8004868:	2b00      	cmp	r3, #0
 800486a:	d104      	bne.n	8004876 <HAL_UART_Transmit+0x7e>
    {
      pdata8bits  = NULL;
 800486c:	2300      	movs	r3, #0
 800486e:	61fb      	str	r3, [r7, #28]
      pdata16bits = (uint16_t *) pData;
 8004870:	68bb      	ldr	r3, [r7, #8]
 8004872:	61bb      	str	r3, [r7, #24]
 8004874:	e003      	b.n	800487e <HAL_UART_Transmit+0x86>
    }
    else
    {
      pdata8bits  = pData;
 8004876:	68bb      	ldr	r3, [r7, #8]
 8004878:	61fb      	str	r3, [r7, #28]
      pdata16bits = NULL;
 800487a:	2300      	movs	r3, #0
 800487c:	61bb      	str	r3, [r7, #24]
    }

    __HAL_UNLOCK(huart);
 800487e:	68fb      	ldr	r3, [r7, #12]
 8004880:	2200      	movs	r2, #0
 8004882:	f883 2070 	strb.w	r2, [r3, #112]	; 0x70

    while (huart->TxXferCount > 0U)
 8004886:	e02d      	b.n	80048e4 <HAL_UART_Transmit+0xec>
    {
      if (UART_WaitOnFlagUntilTimeout(huart, UART_FLAG_TXE, RESET, tickstart, Timeout) != HAL_OK)
 8004888:	683b      	ldr	r3, [r7, #0]
 800488a:	9300      	str	r3, [sp, #0]
 800488c:	697b      	ldr	r3, [r7, #20]
 800488e:	2200      	movs	r2, #0
 8004890:	2180      	movs	r1, #128	; 0x80
 8004892:	68f8      	ldr	r0, [r7, #12]
 8004894:	f000 fccb 	bl	800522e <UART_WaitOnFlagUntilTimeout>
 8004898:	4603      	mov	r3, r0
 800489a:	2b00      	cmp	r3, #0
 800489c:	d001      	beq.n	80048a2 <HAL_UART_Transmit+0xaa>
      {
        return HAL_TIMEOUT;
 800489e:	2303      	movs	r3, #3
 80048a0:	e039      	b.n	8004916 <HAL_UART_Transmit+0x11e>
      }
      if (pdata8bits == NULL)
 80048a2:	69fb      	ldr	r3, [r7, #28]
 80048a4:	2b00      	cmp	r3, #0
 80048a6:	d10b      	bne.n	80048c0 <HAL_UART_Transmit+0xc8>
      {
        huart->Instance->TDR = (uint16_t)(*pdata16bits & 0x01FFU);
 80048a8:	69bb      	ldr	r3, [r7, #24]
 80048aa:	881a      	ldrh	r2, [r3, #0]
 80048ac:	68fb      	ldr	r3, [r7, #12]
 80048ae:	681b      	ldr	r3, [r3, #0]
 80048b0:	f3c2 0208 	ubfx	r2, r2, #0, #9
 80048b4:	b292      	uxth	r2, r2
 80048b6:	851a      	strh	r2, [r3, #40]	; 0x28
        pdata16bits++;
 80048b8:	69bb      	ldr	r3, [r7, #24]
 80048ba:	3302      	adds	r3, #2
 80048bc:	61bb      	str	r3, [r7, #24]
 80048be:	e008      	b.n	80048d2 <HAL_UART_Transmit+0xda>
      }
      else
      {
        huart->Instance->TDR = (uint8_t)(*pdata8bits & 0xFFU);
 80048c0:	69fb      	ldr	r3, [r7, #28]
 80048c2:	781a      	ldrb	r2, [r3, #0]
 80048c4:	68fb      	ldr	r3, [r7, #12]
 80048c6:	681b      	ldr	r3, [r3, #0]
 80048c8:	b292      	uxth	r2, r2
 80048ca:	851a      	strh	r2, [r3, #40]	; 0x28
        pdata8bits++;
 80048cc:	69fb      	ldr	r3, [r7, #28]
 80048ce:	3301      	adds	r3, #1
 80048d0:	61fb      	str	r3, [r7, #28]
      }
      huart->TxXferCount--;
 80048d2:	68fb      	ldr	r3, [r7, #12]
 80048d4:	f8b3 3052 	ldrh.w	r3, [r3, #82]	; 0x52
 80048d8:	b29b      	uxth	r3, r3
 80048da:	3b01      	subs	r3, #1
 80048dc:	b29a      	uxth	r2, r3
 80048de:	68fb      	ldr	r3, [r7, #12]
 80048e0:	f8a3 2052 	strh.w	r2, [r3, #82]	; 0x52
    while (huart->TxXferCount > 0U)
 80048e4:	68fb      	ldr	r3, [r7, #12]
 80048e6:	f8b3 3052 	ldrh.w	r3, [r3, #82]	; 0x52
 80048ea:	b29b      	uxth	r3, r3
 80048ec:	2b00      	cmp	r3, #0
 80048ee:	d1cb      	bne.n	8004888 <HAL_UART_Transmit+0x90>
    }

    if (UART_WaitOnFlagUntilTimeout(huart, UART_FLAG_TC, RESET, tickstart, Timeout) != HAL_OK)
 80048f0:	683b      	ldr	r3, [r7, #0]
 80048f2:	9300      	str	r3, [sp, #0]
 80048f4:	697b      	ldr	r3, [r7, #20]
 80048f6:	2200      	movs	r2, #0
 80048f8:	2140      	movs	r1, #64	; 0x40
 80048fa:	68f8      	ldr	r0, [r7, #12]
 80048fc:	f000 fc97 	bl	800522e <UART_WaitOnFlagUntilTimeout>
 8004900:	4603      	mov	r3, r0
 8004902:	2b00      	cmp	r3, #0
 8004904:	d001      	beq.n	800490a <HAL_UART_Transmit+0x112>
    {
      return HAL_TIMEOUT;
 8004906:	2303      	movs	r3, #3
 8004908:	e005      	b.n	8004916 <HAL_UART_Transmit+0x11e>
    }

    /* At end of Tx process, restore huart->gState to Ready */
    huart->gState = HAL_UART_STATE_READY;
 800490a:	68fb      	ldr	r3, [r7, #12]
 800490c:	2220      	movs	r2, #32
 800490e:	675a      	str	r2, [r3, #116]	; 0x74

    return HAL_OK;
 8004910:	2300      	movs	r3, #0
 8004912:	e000      	b.n	8004916 <HAL_UART_Transmit+0x11e>
  }
  else
  {
    return HAL_BUSY;
 8004914:	2302      	movs	r3, #2
  }
}
 8004916:	4618      	mov	r0, r3
 8004918:	3720      	adds	r7, #32
 800491a:	46bd      	mov	sp, r7
 800491c:	bd80      	pop	{r7, pc}
	...

08004920 <UART_SetConfig>:
  * @brief Configure the UART peripheral.
  * @param huart UART handle.
  * @retval HAL status
  */
HAL_StatusTypeDef UART_SetConfig(UART_HandleTypeDef *huart)
{
 8004920:	e92d 4fb0 	stmdb	sp!, {r4, r5, r7, r8, r9, sl, fp, lr}
 8004924:	b0a0      	sub	sp, #128	; 0x80
 8004926:	af00      	add	r7, sp, #0
 8004928:	65f8      	str	r0, [r7, #92]	; 0x5c
  uint32_t tmpreg;
  uint16_t brrtemp;
  UART_ClockSourceTypeDef clocksource;
  uint32_t usartdiv                   = 0x00000000U;
 800492a:	2300      	movs	r3, #0
 800492c:	677b      	str	r3, [r7, #116]	; 0x74
  HAL_StatusTypeDef ret               = HAL_OK;
 800492e:	2300      	movs	r3, #0
 8004930:	f887 3073 	strb.w	r3, [r7, #115]	; 0x73
  uint32_t lpuart_ker_ck_pres         = 0x00000000U;
 8004934:	2300      	movs	r3, #0
 8004936:	66fb      	str	r3, [r7, #108]	; 0x6c
  *  the UART Word Length, Parity, Mode and oversampling:
  *  set the M bits according to huart->Init.WordLength value
  *  set PCE and PS bits according to huart->Init.Parity value
  *  set TE and RE bits according to huart->Init.Mode value
  *  set OVER8 bit according to huart->Init.OverSampling value */
  tmpreg = (uint32_t)huart->Init.WordLength | huart->Init.Parity | huart->Init.Mode | huart->Init.OverSampling ;
 8004938:	6dfb      	ldr	r3, [r7, #92]	; 0x5c
 800493a:	689a      	ldr	r2, [r3, #8]
 800493c:	6dfb      	ldr	r3, [r7, #92]	; 0x5c
 800493e:	691b      	ldr	r3, [r3, #16]
 8004940:	431a      	orrs	r2, r3
 8004942:	6dfb      	ldr	r3, [r7, #92]	; 0x5c
 8004944:	695b      	ldr	r3, [r3, #20]
 8004946:	431a      	orrs	r2, r3
 8004948:	6dfb      	ldr	r3, [r7, #92]	; 0x5c
 800494a:	69db      	ldr	r3, [r3, #28]
 800494c:	4313      	orrs	r3, r2
 800494e:	67fb      	str	r3, [r7, #124]	; 0x7c
#if defined(USART_CR1_FIFOEN)
  tmpreg |= (uint32_t)huart->FifoMode;
#endif /* USART_CR1_FIFOEN */
  MODIFY_REG(huart->Instance->CR1, USART_CR1_FIELDS, tmpreg);
 8004950:	6dfb      	ldr	r3, [r7, #92]	; 0x5c
 8004952:	681b      	ldr	r3, [r3, #0]
 8004954:	681b      	ldr	r3, [r3, #0]
 8004956:	49a4      	ldr	r1, [pc, #656]	; (8004be8 <UART_SetConfig+0x2c8>)
 8004958:	4019      	ands	r1, r3
 800495a:	6dfb      	ldr	r3, [r7, #92]	; 0x5c
 800495c:	681a      	ldr	r2, [r3, #0]
 800495e:	6ffb      	ldr	r3, [r7, #124]	; 0x7c
 8004960:	430b      	orrs	r3, r1
 8004962:	6013      	str	r3, [r2, #0]

  /*-------------------------- USART CR2 Configuration -----------------------*/
  /* Configure the UART Stop Bits: Set STOP[13:12] bits according
  * to huart->Init.StopBits value */
  MODIFY_REG(huart->Instance->CR2, USART_CR2_STOP, huart->Init.StopBits);
 8004964:	6dfb      	ldr	r3, [r7, #92]	; 0x5c
 8004966:	681b      	ldr	r3, [r3, #0]
 8004968:	685b      	ldr	r3, [r3, #4]
 800496a:	f423 5040 	bic.w	r0, r3, #12288	; 0x3000
 800496e:	6dfb      	ldr	r3, [r7, #92]	; 0x5c
 8004970:	68d9      	ldr	r1, [r3, #12]
 8004972:	6dfb      	ldr	r3, [r7, #92]	; 0x5c
 8004974:	681a      	ldr	r2, [r3, #0]
 8004976:	ea40 0301 	orr.w	r3, r0, r1
 800497a:	6053      	str	r3, [r2, #4]
  /* Configure
  * - UART HardWare Flow Control: set CTSE and RTSE bits according
  *   to huart->Init.HwFlowCtl value
  * - one-bit sampling method versus three samples' majority rule according
  *   to huart->Init.OneBitSampling (not applicable to LPUART) */
  tmpreg = (uint32_t)huart->Init.HwFlowCtl;
 800497c:	6dfb      	ldr	r3, [r7, #92]	; 0x5c
 800497e:	699b      	ldr	r3, [r3, #24]
 8004980:	67fb      	str	r3, [r7, #124]	; 0x7c

  if (!(UART_INSTANCE_LOWPOWER(huart)))
 8004982:	6dfb      	ldr	r3, [r7, #92]	; 0x5c
 8004984:	681a      	ldr	r2, [r3, #0]
 8004986:	4b99      	ldr	r3, [pc, #612]	; (8004bec <UART_SetConfig+0x2cc>)
 8004988:	429a      	cmp	r2, r3
 800498a:	d004      	beq.n	8004996 <UART_SetConfig+0x76>
  {
    tmpreg |= huart->Init.OneBitSampling;
 800498c:	6dfb      	ldr	r3, [r7, #92]	; 0x5c
 800498e:	6a1a      	ldr	r2, [r3, #32]
 8004990:	6ffb      	ldr	r3, [r7, #124]	; 0x7c
 8004992:	4313      	orrs	r3, r2
 8004994:	67fb      	str	r3, [r7, #124]	; 0x7c
  }
  MODIFY_REG(huart->Instance->CR3, USART_CR3_FIELDS, tmpreg);
 8004996:	6dfb      	ldr	r3, [r7, #92]	; 0x5c
 8004998:	681b      	ldr	r3, [r3, #0]
 800499a:	689b      	ldr	r3, [r3, #8]
 800499c:	f423 6130 	bic.w	r1, r3, #2816	; 0xb00
 80049a0:	6dfb      	ldr	r3, [r7, #92]	; 0x5c
 80049a2:	681a      	ldr	r2, [r3, #0]
 80049a4:	6ffb      	ldr	r3, [r7, #124]	; 0x7c
 80049a6:	430b      	orrs	r3, r1
 80049a8:	6093      	str	r3, [r2, #8]
  * - UART Clock Prescaler : set PRESCALER according to huart->Init.ClockPrescaler value */
  MODIFY_REG(huart->Instance->PRESC, USART_PRESC_PRESCALER, huart->Init.ClockPrescaler);
#endif /* USART_PRESC_PRESCALER */

  /*-------------------------- USART BRR Configuration -----------------------*/
  UART_GETCLOCKSOURCE(huart, clocksource);
 80049aa:	6dfb      	ldr	r3, [r7, #92]	; 0x5c
 80049ac:	681a      	ldr	r2, [r3, #0]
 80049ae:	4b90      	ldr	r3, [pc, #576]	; (8004bf0 <UART_SetConfig+0x2d0>)
 80049b0:	429a      	cmp	r2, r3
 80049b2:	d125      	bne.n	8004a00 <UART_SetConfig+0xe0>
 80049b4:	4b8f      	ldr	r3, [pc, #572]	; (8004bf4 <UART_SetConfig+0x2d4>)
 80049b6:	f8d3 3088 	ldr.w	r3, [r3, #136]	; 0x88
 80049ba:	f003 0303 	and.w	r3, r3, #3
 80049be:	2b03      	cmp	r3, #3
 80049c0:	d81a      	bhi.n	80049f8 <UART_SetConfig+0xd8>
 80049c2:	a201      	add	r2, pc, #4	; (adr r2, 80049c8 <UART_SetConfig+0xa8>)
 80049c4:	f852 f023 	ldr.w	pc, [r2, r3, lsl #2]
 80049c8:	080049d9 	.word	0x080049d9
 80049cc:	080049e9 	.word	0x080049e9
 80049d0:	080049e1 	.word	0x080049e1
 80049d4:	080049f1 	.word	0x080049f1
 80049d8:	2301      	movs	r3, #1
 80049da:	f887 307b 	strb.w	r3, [r7, #123]	; 0x7b
 80049de:	e116      	b.n	8004c0e <UART_SetConfig+0x2ee>
 80049e0:	2302      	movs	r3, #2
 80049e2:	f887 307b 	strb.w	r3, [r7, #123]	; 0x7b
 80049e6:	e112      	b.n	8004c0e <UART_SetConfig+0x2ee>
 80049e8:	2304      	movs	r3, #4
 80049ea:	f887 307b 	strb.w	r3, [r7, #123]	; 0x7b
 80049ee:	e10e      	b.n	8004c0e <UART_SetConfig+0x2ee>
 80049f0:	2308      	movs	r3, #8
 80049f2:	f887 307b 	strb.w	r3, [r7, #123]	; 0x7b
 80049f6:	e10a      	b.n	8004c0e <UART_SetConfig+0x2ee>
 80049f8:	2310      	movs	r3, #16
 80049fa:	f887 307b 	strb.w	r3, [r7, #123]	; 0x7b
 80049fe:	e106      	b.n	8004c0e <UART_SetConfig+0x2ee>
 8004a00:	6dfb      	ldr	r3, [r7, #92]	; 0x5c
 8004a02:	681a      	ldr	r2, [r3, #0]
 8004a04:	4b7c      	ldr	r3, [pc, #496]	; (8004bf8 <UART_SetConfig+0x2d8>)
 8004a06:	429a      	cmp	r2, r3
 8004a08:	d138      	bne.n	8004a7c <UART_SetConfig+0x15c>
 8004a0a:	4b7a      	ldr	r3, [pc, #488]	; (8004bf4 <UART_SetConfig+0x2d4>)
 8004a0c:	f8d3 3088 	ldr.w	r3, [r3, #136]	; 0x88
 8004a10:	f003 030c 	and.w	r3, r3, #12
 8004a14:	2b0c      	cmp	r3, #12
 8004a16:	d82d      	bhi.n	8004a74 <UART_SetConfig+0x154>
 8004a18:	a201      	add	r2, pc, #4	; (adr r2, 8004a20 <UART_SetConfig+0x100>)
 8004a1a:	f852 f023 	ldr.w	pc, [r2, r3, lsl #2]
 8004a1e:	bf00      	nop
 8004a20:	08004a55 	.word	0x08004a55
 8004a24:	08004a75 	.word	0x08004a75
 8004a28:	08004a75 	.word	0x08004a75
 8004a2c:	08004a75 	.word	0x08004a75
 8004a30:	08004a65 	.word	0x08004a65
 8004a34:	08004a75 	.word	0x08004a75
 8004a38:	08004a75 	.word	0x08004a75
 8004a3c:	08004a75 	.word	0x08004a75
 8004a40:	08004a5d 	.word	0x08004a5d
 8004a44:	08004a75 	.word	0x08004a75
 8004a48:	08004a75 	.word	0x08004a75
 8004a4c:	08004a75 	.word	0x08004a75
 8004a50:	08004a6d 	.word	0x08004a6d
 8004a54:	2300      	movs	r3, #0
 8004a56:	f887 307b 	strb.w	r3, [r7, #123]	; 0x7b
 8004a5a:	e0d8      	b.n	8004c0e <UART_SetConfig+0x2ee>
 8004a5c:	2302      	movs	r3, #2
 8004a5e:	f887 307b 	strb.w	r3, [r7, #123]	; 0x7b
 8004a62:	e0d4      	b.n	8004c0e <UART_SetConfig+0x2ee>
 8004a64:	2304      	movs	r3, #4
 8004a66:	f887 307b 	strb.w	r3, [r7, #123]	; 0x7b
 8004a6a:	e0d0      	b.n	8004c0e <UART_SetConfig+0x2ee>
 8004a6c:	2308      	movs	r3, #8
 8004a6e:	f887 307b 	strb.w	r3, [r7, #123]	; 0x7b
 8004a72:	e0cc      	b.n	8004c0e <UART_SetConfig+0x2ee>
 8004a74:	2310      	movs	r3, #16
 8004a76:	f887 307b 	strb.w	r3, [r7, #123]	; 0x7b
 8004a7a:	e0c8      	b.n	8004c0e <UART_SetConfig+0x2ee>
 8004a7c:	6dfb      	ldr	r3, [r7, #92]	; 0x5c
 8004a7e:	681a      	ldr	r2, [r3, #0]
 8004a80:	4b5e      	ldr	r3, [pc, #376]	; (8004bfc <UART_SetConfig+0x2dc>)
 8004a82:	429a      	cmp	r2, r3
 8004a84:	d125      	bne.n	8004ad2 <UART_SetConfig+0x1b2>
 8004a86:	4b5b      	ldr	r3, [pc, #364]	; (8004bf4 <UART_SetConfig+0x2d4>)
 8004a88:	f8d3 3088 	ldr.w	r3, [r3, #136]	; 0x88
 8004a8c:	f003 0330 	and.w	r3, r3, #48	; 0x30
 8004a90:	2b30      	cmp	r3, #48	; 0x30
 8004a92:	d016      	beq.n	8004ac2 <UART_SetConfig+0x1a2>
 8004a94:	2b30      	cmp	r3, #48	; 0x30
 8004a96:	d818      	bhi.n	8004aca <UART_SetConfig+0x1aa>
 8004a98:	2b20      	cmp	r3, #32
 8004a9a:	d00a      	beq.n	8004ab2 <UART_SetConfig+0x192>
 8004a9c:	2b20      	cmp	r3, #32
 8004a9e:	d814      	bhi.n	8004aca <UART_SetConfig+0x1aa>
 8004aa0:	2b00      	cmp	r3, #0
 8004aa2:	d002      	beq.n	8004aaa <UART_SetConfig+0x18a>
 8004aa4:	2b10      	cmp	r3, #16
 8004aa6:	d008      	beq.n	8004aba <UART_SetConfig+0x19a>
 8004aa8:	e00f      	b.n	8004aca <UART_SetConfig+0x1aa>
 8004aaa:	2300      	movs	r3, #0
 8004aac:	f887 307b 	strb.w	r3, [r7, #123]	; 0x7b
 8004ab0:	e0ad      	b.n	8004c0e <UART_SetConfig+0x2ee>
 8004ab2:	2302      	movs	r3, #2
 8004ab4:	f887 307b 	strb.w	r3, [r7, #123]	; 0x7b
 8004ab8:	e0a9      	b.n	8004c0e <UART_SetConfig+0x2ee>
 8004aba:	2304      	movs	r3, #4
 8004abc:	f887 307b 	strb.w	r3, [r7, #123]	; 0x7b
 8004ac0:	e0a5      	b.n	8004c0e <UART_SetConfig+0x2ee>
 8004ac2:	2308      	movs	r3, #8
 8004ac4:	f887 307b 	strb.w	r3, [r7, #123]	; 0x7b
 8004ac8:	e0a1      	b.n	8004c0e <UART_SetConfig+0x2ee>
 8004aca:	2310      	movs	r3, #16
 8004acc:	f887 307b 	strb.w	r3, [r7, #123]	; 0x7b
 8004ad0:	e09d      	b.n	8004c0e <UART_SetConfig+0x2ee>
 8004ad2:	6dfb      	ldr	r3, [r7, #92]	; 0x5c
 8004ad4:	681a      	ldr	r2, [r3, #0]
 8004ad6:	4b4a      	ldr	r3, [pc, #296]	; (8004c00 <UART_SetConfig+0x2e0>)
 8004ad8:	429a      	cmp	r2, r3
 8004ada:	d125      	bne.n	8004b28 <UART_SetConfig+0x208>
 8004adc:	4b45      	ldr	r3, [pc, #276]	; (8004bf4 <UART_SetConfig+0x2d4>)
 8004ade:	f8d3 3088 	ldr.w	r3, [r3, #136]	; 0x88
 8004ae2:	f003 03c0 	and.w	r3, r3, #192	; 0xc0
 8004ae6:	2bc0      	cmp	r3, #192	; 0xc0
 8004ae8:	d016      	beq.n	8004b18 <UART_SetConfig+0x1f8>
 8004aea:	2bc0      	cmp	r3, #192	; 0xc0
 8004aec:	d818      	bhi.n	8004b20 <UART_SetConfig+0x200>
 8004aee:	2b80      	cmp	r3, #128	; 0x80
 8004af0:	d00a      	beq.n	8004b08 <UART_SetConfig+0x1e8>
 8004af2:	2b80      	cmp	r3, #128	; 0x80
 8004af4:	d814      	bhi.n	8004b20 <UART_SetConfig+0x200>
 8004af6:	2b00      	cmp	r3, #0
 8004af8:	d002      	beq.n	8004b00 <UART_SetConfig+0x1e0>
 8004afa:	2b40      	cmp	r3, #64	; 0x40
 8004afc:	d008      	beq.n	8004b10 <UART_SetConfig+0x1f0>
 8004afe:	e00f      	b.n	8004b20 <UART_SetConfig+0x200>
 8004b00:	2300      	movs	r3, #0
 8004b02:	f887 307b 	strb.w	r3, [r7, #123]	; 0x7b
 8004b06:	e082      	b.n	8004c0e <UART_SetConfig+0x2ee>
 8004b08:	2302      	movs	r3, #2
 8004b0a:	f887 307b 	strb.w	r3, [r7, #123]	; 0x7b
 8004b0e:	e07e      	b.n	8004c0e <UART_SetConfig+0x2ee>
 8004b10:	2304      	movs	r3, #4
 8004b12:	f887 307b 	strb.w	r3, [r7, #123]	; 0x7b
 8004b16:	e07a      	b.n	8004c0e <UART_SetConfig+0x2ee>
 8004b18:	2308      	movs	r3, #8
 8004b1a:	f887 307b 	strb.w	r3, [r7, #123]	; 0x7b
 8004b1e:	e076      	b.n	8004c0e <UART_SetConfig+0x2ee>
 8004b20:	2310      	movs	r3, #16
 8004b22:	f887 307b 	strb.w	r3, [r7, #123]	; 0x7b
 8004b26:	e072      	b.n	8004c0e <UART_SetConfig+0x2ee>
 8004b28:	6dfb      	ldr	r3, [r7, #92]	; 0x5c
 8004b2a:	681a      	ldr	r2, [r3, #0]
 8004b2c:	4b35      	ldr	r3, [pc, #212]	; (8004c04 <UART_SetConfig+0x2e4>)
 8004b2e:	429a      	cmp	r2, r3
 8004b30:	d12a      	bne.n	8004b88 <UART_SetConfig+0x268>
 8004b32:	4b30      	ldr	r3, [pc, #192]	; (8004bf4 <UART_SetConfig+0x2d4>)
 8004b34:	f8d3 3088 	ldr.w	r3, [r3, #136]	; 0x88
 8004b38:	f403 7340 	and.w	r3, r3, #768	; 0x300
 8004b3c:	f5b3 7f40 	cmp.w	r3, #768	; 0x300
 8004b40:	d01a      	beq.n	8004b78 <UART_SetConfig+0x258>
 8004b42:	f5b3 7f40 	cmp.w	r3, #768	; 0x300
 8004b46:	d81b      	bhi.n	8004b80 <UART_SetConfig+0x260>
 8004b48:	f5b3 7f00 	cmp.w	r3, #512	; 0x200
 8004b4c:	d00c      	beq.n	8004b68 <UART_SetConfig+0x248>
 8004b4e:	f5b3 7f00 	cmp.w	r3, #512	; 0x200
 8004b52:	d815      	bhi.n	8004b80 <UART_SetConfig+0x260>
 8004b54:	2b00      	cmp	r3, #0
 8004b56:	d003      	beq.n	8004b60 <UART_SetConfig+0x240>
 8004b58:	f5b3 7f80 	cmp.w	r3, #256	; 0x100
 8004b5c:	d008      	beq.n	8004b70 <UART_SetConfig+0x250>
 8004b5e:	e00f      	b.n	8004b80 <UART_SetConfig+0x260>
 8004b60:	2300      	movs	r3, #0
 8004b62:	f887 307b 	strb.w	r3, [r7, #123]	; 0x7b
 8004b66:	e052      	b.n	8004c0e <UART_SetConfig+0x2ee>
 8004b68:	2302      	movs	r3, #2
 8004b6a:	f887 307b 	strb.w	r3, [r7, #123]	; 0x7b
 8004b6e:	e04e      	b.n	8004c0e <UART_SetConfig+0x2ee>
 8004b70:	2304      	movs	r3, #4
 8004b72:	f887 307b 	strb.w	r3, [r7, #123]	; 0x7b
 8004b76:	e04a      	b.n	8004c0e <UART_SetConfig+0x2ee>
 8004b78:	2308      	movs	r3, #8
 8004b7a:	f887 307b 	strb.w	r3, [r7, #123]	; 0x7b
 8004b7e:	e046      	b.n	8004c0e <UART_SetConfig+0x2ee>
 8004b80:	2310      	movs	r3, #16
 8004b82:	f887 307b 	strb.w	r3, [r7, #123]	; 0x7b
 8004b86:	e042      	b.n	8004c0e <UART_SetConfig+0x2ee>
 8004b88:	6dfb      	ldr	r3, [r7, #92]	; 0x5c
 8004b8a:	681a      	ldr	r2, [r3, #0]
 8004b8c:	4b17      	ldr	r3, [pc, #92]	; (8004bec <UART_SetConfig+0x2cc>)
 8004b8e:	429a      	cmp	r2, r3
 8004b90:	d13a      	bne.n	8004c08 <UART_SetConfig+0x2e8>
 8004b92:	4b18      	ldr	r3, [pc, #96]	; (8004bf4 <UART_SetConfig+0x2d4>)
 8004b94:	f8d3 3088 	ldr.w	r3, [r3, #136]	; 0x88
 8004b98:	f403 6340 	and.w	r3, r3, #3072	; 0xc00
 8004b9c:	f5b3 6f40 	cmp.w	r3, #3072	; 0xc00
 8004ba0:	d01a      	beq.n	8004bd8 <UART_SetConfig+0x2b8>
 8004ba2:	f5b3 6f40 	cmp.w	r3, #3072	; 0xc00
 8004ba6:	d81b      	bhi.n	8004be0 <UART_SetConfig+0x2c0>
 8004ba8:	f5b3 6f00 	cmp.w	r3, #2048	; 0x800
 8004bac:	d00c      	beq.n	8004bc8 <UART_SetConfig+0x2a8>
 8004bae:	f5b3 6f00 	cmp.w	r3, #2048	; 0x800
 8004bb2:	d815      	bhi.n	8004be0 <UART_SetConfig+0x2c0>
 8004bb4:	2b00      	cmp	r3, #0
 8004bb6:	d003      	beq.n	8004bc0 <UART_SetConfig+0x2a0>
 8004bb8:	f5b3 6f80 	cmp.w	r3, #1024	; 0x400
 8004bbc:	d008      	beq.n	8004bd0 <UART_SetConfig+0x2b0>
 8004bbe:	e00f      	b.n	8004be0 <UART_SetConfig+0x2c0>
 8004bc0:	2300      	movs	r3, #0
 8004bc2:	f887 307b 	strb.w	r3, [r7, #123]	; 0x7b
 8004bc6:	e022      	b.n	8004c0e <UART_SetConfig+0x2ee>
 8004bc8:	2302      	movs	r3, #2
 8004bca:	f887 307b 	strb.w	r3, [r7, #123]	; 0x7b
 8004bce:	e01e      	b.n	8004c0e <UART_SetConfig+0x2ee>
 8004bd0:	2304      	movs	r3, #4
 8004bd2:	f887 307b 	strb.w	r3, [r7, #123]	; 0x7b
 8004bd6:	e01a      	b.n	8004c0e <UART_SetConfig+0x2ee>
 8004bd8:	2308      	movs	r3, #8
 8004bda:	f887 307b 	strb.w	r3, [r7, #123]	; 0x7b
 8004bde:	e016      	b.n	8004c0e <UART_SetConfig+0x2ee>
 8004be0:	2310      	movs	r3, #16
 8004be2:	f887 307b 	strb.w	r3, [r7, #123]	; 0x7b
 8004be6:	e012      	b.n	8004c0e <UART_SetConfig+0x2ee>
 8004be8:	efff69f3 	.word	0xefff69f3
 8004bec:	40008000 	.word	0x40008000
 8004bf0:	40013800 	.word	0x40013800
 8004bf4:	40021000 	.word	0x40021000
 8004bf8:	40004400 	.word	0x40004400
 8004bfc:	40004800 	.word	0x40004800
 8004c00:	40004c00 	.word	0x40004c00
 8004c04:	40005000 	.word	0x40005000
 8004c08:	2310      	movs	r3, #16
 8004c0a:	f887 307b 	strb.w	r3, [r7, #123]	; 0x7b

  /* Check LPUART instance */
  if (UART_INSTANCE_LOWPOWER(huart))
 8004c0e:	6dfb      	ldr	r3, [r7, #92]	; 0x5c
 8004c10:	681a      	ldr	r2, [r3, #0]
 8004c12:	4bb6      	ldr	r3, [pc, #728]	; (8004eec <UART_SetConfig+0x5cc>)
 8004c14:	429a      	cmp	r2, r3
 8004c16:	f040 810c 	bne.w	8004e32 <UART_SetConfig+0x512>
  {
    /* Retrieve frequency clock */
    switch (clocksource)
 8004c1a:	f897 307b 	ldrb.w	r3, [r7, #123]	; 0x7b
 8004c1e:	2b08      	cmp	r3, #8
 8004c20:	d823      	bhi.n	8004c6a <UART_SetConfig+0x34a>
 8004c22:	a201      	add	r2, pc, #4	; (adr r2, 8004c28 <UART_SetConfig+0x308>)
 8004c24:	f852 f023 	ldr.w	pc, [r2, r3, lsl #2]
 8004c28:	08004c4d 	.word	0x08004c4d
 8004c2c:	08004c6b 	.word	0x08004c6b
 8004c30:	08004c55 	.word	0x08004c55
 8004c34:	08004c6b 	.word	0x08004c6b
 8004c38:	08004c5b 	.word	0x08004c5b
 8004c3c:	08004c6b 	.word	0x08004c6b
 8004c40:	08004c6b 	.word	0x08004c6b
 8004c44:	08004c6b 	.word	0x08004c6b
 8004c48:	08004c63 	.word	0x08004c63
    {
      case UART_CLOCKSOURCE_PCLK1:
#if defined(USART_PRESC_PRESCALER)
        lpuart_ker_ck_pres = (HAL_RCC_GetPCLK1Freq() / UART_GET_DIV_FACTOR(huart->Init.ClockPrescaler));
#else
        lpuart_ker_ck_pres = HAL_RCC_GetPCLK1Freq();
 8004c4c:	f7ff fd5a 	bl	8004704 <HAL_RCC_GetPCLK1Freq>
 8004c50:	66f8      	str	r0, [r7, #108]	; 0x6c
#endif /* USART_PRESC_PRESCALER */
        break;
 8004c52:	e00e      	b.n	8004c72 <UART_SetConfig+0x352>
      case UART_CLOCKSOURCE_HSI:
#if defined(USART_PRESC_PRESCALER)
        lpuart_ker_ck_pres = ((uint32_t)HSI_VALUE / UART_GET_DIV_FACTOR(huart->Init.ClockPrescaler));
#else
        lpuart_ker_ck_pres = (uint32_t)HSI_VALUE;
 8004c54:	4ba6      	ldr	r3, [pc, #664]	; (8004ef0 <UART_SetConfig+0x5d0>)
 8004c56:	66fb      	str	r3, [r7, #108]	; 0x6c
#endif /* USART_PRESC_PRESCALER */
        break;
 8004c58:	e00b      	b.n	8004c72 <UART_SetConfig+0x352>
      case UART_CLOCKSOURCE_SYSCLK:
#if defined(USART_PRESC_PRESCALER)
        lpuart_ker_ck_pres = (HAL_RCC_GetSysClockFreq() / UART_GET_DIV_FACTOR(huart->Init.ClockPrescaler));
#else
        lpuart_ker_ck_pres = HAL_RCC_GetSysClockFreq();
 8004c5a:	f7ff fcbb 	bl	80045d4 <HAL_RCC_GetSysClockFreq>
 8004c5e:	66f8      	str	r0, [r7, #108]	; 0x6c
#endif /* USART_PRESC_PRESCALER */
        break;
 8004c60:	e007      	b.n	8004c72 <UART_SetConfig+0x352>
      case UART_CLOCKSOURCE_LSE:
#if defined(USART_PRESC_PRESCALER)
        lpuart_ker_ck_pres = ((uint32_t)LSE_VALUE / UART_GET_DIV_FACTOR(huart->Init.ClockPrescaler));
#else
        lpuart_ker_ck_pres = (uint32_t)LSE_VALUE;
 8004c62:	f44f 4300 	mov.w	r3, #32768	; 0x8000
 8004c66:	66fb      	str	r3, [r7, #108]	; 0x6c
#endif /* USART_PRESC_PRESCALER */
        break;
 8004c68:	e003      	b.n	8004c72 <UART_SetConfig+0x352>
      default:
        ret = HAL_ERROR;
 8004c6a:	2301      	movs	r3, #1
 8004c6c:	f887 3073 	strb.w	r3, [r7, #115]	; 0x73
        break;
 8004c70:	bf00      	nop
    }

    /* if proper clock source reported */
    if (lpuart_ker_ck_pres != 0U)
 8004c72:	6efb      	ldr	r3, [r7, #108]	; 0x6c
 8004c74:	2b00      	cmp	r3, #0
 8004c76:	f000 81e5 	beq.w	8005044 <UART_SetConfig+0x724>
    {
      /* ensure that Frequency clock is in the range [3 * baudrate, 4096 * baudrate] */
      if ((lpuart_ker_ck_pres < (3U * huart->Init.BaudRate)) ||
 8004c7a:	6dfb      	ldr	r3, [r7, #92]	; 0x5c
 8004c7c:	685a      	ldr	r2, [r3, #4]
 8004c7e:	4613      	mov	r3, r2
 8004c80:	005b      	lsls	r3, r3, #1
 8004c82:	441a      	add	r2, r3
 8004c84:	6efb      	ldr	r3, [r7, #108]	; 0x6c
 8004c86:	4293      	cmp	r3, r2
 8004c88:	d305      	bcc.n	8004c96 <UART_SetConfig+0x376>
          (lpuart_ker_ck_pres > (4096U * huart->Init.BaudRate)))
 8004c8a:	6dfb      	ldr	r3, [r7, #92]	; 0x5c
 8004c8c:	685b      	ldr	r3, [r3, #4]
 8004c8e:	031a      	lsls	r2, r3, #12
      if ((lpuart_ker_ck_pres < (3U * huart->Init.BaudRate)) ||
 8004c90:	6efb      	ldr	r3, [r7, #108]	; 0x6c
 8004c92:	4293      	cmp	r3, r2
 8004c94:	d903      	bls.n	8004c9e <UART_SetConfig+0x37e>
      {
        ret = HAL_ERROR;
 8004c96:	2301      	movs	r3, #1
 8004c98:	f887 3073 	strb.w	r3, [r7, #115]	; 0x73
 8004c9c:	e1d2      	b.n	8005044 <UART_SetConfig+0x724>
      }
      else
      {
        switch (clocksource)
 8004c9e:	f897 307b 	ldrb.w	r3, [r7, #123]	; 0x7b
 8004ca2:	2b08      	cmp	r3, #8
 8004ca4:	f200 80b0 	bhi.w	8004e08 <UART_SetConfig+0x4e8>
 8004ca8:	a201      	add	r2, pc, #4	; (adr r2, 8004cb0 <UART_SetConfig+0x390>)
 8004caa:	f852 f023 	ldr.w	pc, [r2, r3, lsl #2]
 8004cae:	bf00      	nop
 8004cb0:	08004cd5 	.word	0x08004cd5
 8004cb4:	08004e09 	.word	0x08004e09
 8004cb8:	08004d35 	.word	0x08004d35
 8004cbc:	08004e09 	.word	0x08004e09
 8004cc0:	08004d75 	.word	0x08004d75
 8004cc4:	08004e09 	.word	0x08004e09
 8004cc8:	08004e09 	.word	0x08004e09
 8004ccc:	08004e09 	.word	0x08004e09
 8004cd0:	08004dd1 	.word	0x08004dd1
        {
          case UART_CLOCKSOURCE_PCLK1:
            pclk = HAL_RCC_GetPCLK1Freq();
 8004cd4:	f7ff fd16 	bl	8004704 <HAL_RCC_GetPCLK1Freq>
 8004cd8:	66b8      	str	r0, [r7, #104]	; 0x68
#if defined(USART_PRESC_PRESCALER)
            usartdiv = (uint32_t)(UART_DIV_LPUART(pclk, huart->Init.BaudRate, huart->Init.ClockPrescaler));
#else
            usartdiv = (uint32_t)(UART_DIV_LPUART(pclk, huart->Init.BaudRate));
 8004cda:	6ebb      	ldr	r3, [r7, #104]	; 0x68
 8004cdc:	2200      	movs	r2, #0
 8004cde:	4698      	mov	r8, r3
 8004ce0:	4691      	mov	r9, r2
 8004ce2:	f04f 0200 	mov.w	r2, #0
 8004ce6:	f04f 0300 	mov.w	r3, #0
 8004cea:	ea4f 2309 	mov.w	r3, r9, lsl #8
 8004cee:	ea43 6318 	orr.w	r3, r3, r8, lsr #24
 8004cf2:	ea4f 2208 	mov.w	r2, r8, lsl #8
 8004cf6:	6df9      	ldr	r1, [r7, #92]	; 0x5c
 8004cf8:	6849      	ldr	r1, [r1, #4]
 8004cfa:	0849      	lsrs	r1, r1, #1
 8004cfc:	2000      	movs	r0, #0
 8004cfe:	6539      	str	r1, [r7, #80]	; 0x50
 8004d00:	6578      	str	r0, [r7, #84]	; 0x54
 8004d02:	e9d7 4514 	ldrd	r4, r5, [r7, #80]	; 0x50
 8004d06:	4621      	mov	r1, r4
 8004d08:	1851      	adds	r1, r2, r1
 8004d0a:	64b9      	str	r1, [r7, #72]	; 0x48
 8004d0c:	4629      	mov	r1, r5
 8004d0e:	eb43 0101 	adc.w	r1, r3, r1
 8004d12:	64f9      	str	r1, [r7, #76]	; 0x4c
 8004d14:	6dfb      	ldr	r3, [r7, #92]	; 0x5c
 8004d16:	685b      	ldr	r3, [r3, #4]
 8004d18:	2200      	movs	r2, #0
 8004d1a:	643b      	str	r3, [r7, #64]	; 0x40
 8004d1c:	647a      	str	r2, [r7, #68]	; 0x44
 8004d1e:	e9d7 2310 	ldrd	r2, r3, [r7, #64]	; 0x40
 8004d22:	e9d7 0112 	ldrd	r0, r1, [r7, #72]	; 0x48
 8004d26:	f7fb ff3f 	bl	8000ba8 <__aeabi_uldivmod>
 8004d2a:	4602      	mov	r2, r0
 8004d2c:	460b      	mov	r3, r1
 8004d2e:	4613      	mov	r3, r2
 8004d30:	677b      	str	r3, [r7, #116]	; 0x74
#endif /* USART_PRESC_PRESCALER */
            break;
 8004d32:	e06d      	b.n	8004e10 <UART_SetConfig+0x4f0>
          case UART_CLOCKSOURCE_HSI:
#if defined(USART_PRESC_PRESCALER)
            usartdiv = (uint32_t)(UART_DIV_LPUART(HSI_VALUE, huart->Init.BaudRate, huart->Init.ClockPrescaler));
#else
            usartdiv = (uint32_t)(UART_DIV_LPUART(HSI_VALUE, huart->Init.BaudRate));
 8004d34:	6dfb      	ldr	r3, [r7, #92]	; 0x5c
 8004d36:	685b      	ldr	r3, [r3, #4]
 8004d38:	085b      	lsrs	r3, r3, #1
 8004d3a:	2200      	movs	r2, #0
 8004d3c:	63bb      	str	r3, [r7, #56]	; 0x38
 8004d3e:	63fa      	str	r2, [r7, #60]	; 0x3c
 8004d40:	4b6c      	ldr	r3, [pc, #432]	; (8004ef4 <UART_SetConfig+0x5d4>)
 8004d42:	e9d7 010e 	ldrd	r0, r1, [r7, #56]	; 0x38
 8004d46:	4602      	mov	r2, r0
 8004d48:	18d3      	adds	r3, r2, r3
 8004d4a:	633b      	str	r3, [r7, #48]	; 0x30
 8004d4c:	460b      	mov	r3, r1
 8004d4e:	f143 0300 	adc.w	r3, r3, #0
 8004d52:	637b      	str	r3, [r7, #52]	; 0x34
 8004d54:	6dfb      	ldr	r3, [r7, #92]	; 0x5c
 8004d56:	685b      	ldr	r3, [r3, #4]
 8004d58:	2200      	movs	r2, #0
 8004d5a:	62bb      	str	r3, [r7, #40]	; 0x28
 8004d5c:	62fa      	str	r2, [r7, #44]	; 0x2c
 8004d5e:	e9d7 230a 	ldrd	r2, r3, [r7, #40]	; 0x28
 8004d62:	e9d7 010c 	ldrd	r0, r1, [r7, #48]	; 0x30
 8004d66:	f7fb ff1f 	bl	8000ba8 <__aeabi_uldivmod>
 8004d6a:	4602      	mov	r2, r0
 8004d6c:	460b      	mov	r3, r1
 8004d6e:	4613      	mov	r3, r2
 8004d70:	677b      	str	r3, [r7, #116]	; 0x74
#endif /* USART_PRESC_PRESCALER */
            break;
 8004d72:	e04d      	b.n	8004e10 <UART_SetConfig+0x4f0>
          case UART_CLOCKSOURCE_SYSCLK:
            pclk = HAL_RCC_GetSysClockFreq();
 8004d74:	f7ff fc2e 	bl	80045d4 <HAL_RCC_GetSysClockFreq>
 8004d78:	66b8      	str	r0, [r7, #104]	; 0x68
#if defined(USART_PRESC_PRESCALER)
            usartdiv = (uint32_t)(UART_DIV_LPUART(pclk, huart->Init.BaudRate, huart->Init.ClockPrescaler));
#else
            usartdiv = (uint32_t)(UART_DIV_LPUART(pclk, huart->Init.BaudRate));
 8004d7a:	6ebb      	ldr	r3, [r7, #104]	; 0x68
 8004d7c:	2200      	movs	r2, #0
 8004d7e:	461c      	mov	r4, r3
 8004d80:	4615      	mov	r5, r2
 8004d82:	f04f 0200 	mov.w	r2, #0
 8004d86:	f04f 0300 	mov.w	r3, #0
 8004d8a:	022b      	lsls	r3, r5, #8
 8004d8c:	ea43 6314 	orr.w	r3, r3, r4, lsr #24
 8004d90:	0222      	lsls	r2, r4, #8
 8004d92:	6df9      	ldr	r1, [r7, #92]	; 0x5c
 8004d94:	6849      	ldr	r1, [r1, #4]
 8004d96:	0849      	lsrs	r1, r1, #1
 8004d98:	2000      	movs	r0, #0
 8004d9a:	6239      	str	r1, [r7, #32]
 8004d9c:	6278      	str	r0, [r7, #36]	; 0x24
 8004d9e:	e9d7 4508 	ldrd	r4, r5, [r7, #32]
 8004da2:	4621      	mov	r1, r4
 8004da4:	1851      	adds	r1, r2, r1
 8004da6:	61b9      	str	r1, [r7, #24]
 8004da8:	4629      	mov	r1, r5
 8004daa:	eb43 0101 	adc.w	r1, r3, r1
 8004dae:	61f9      	str	r1, [r7, #28]
 8004db0:	6dfb      	ldr	r3, [r7, #92]	; 0x5c
 8004db2:	685b      	ldr	r3, [r3, #4]
 8004db4:	2200      	movs	r2, #0
 8004db6:	613b      	str	r3, [r7, #16]
 8004db8:	617a      	str	r2, [r7, #20]
 8004dba:	e9d7 2304 	ldrd	r2, r3, [r7, #16]
 8004dbe:	e9d7 0106 	ldrd	r0, r1, [r7, #24]
 8004dc2:	f7fb fef1 	bl	8000ba8 <__aeabi_uldivmod>
 8004dc6:	4602      	mov	r2, r0
 8004dc8:	460b      	mov	r3, r1
 8004dca:	4613      	mov	r3, r2
 8004dcc:	677b      	str	r3, [r7, #116]	; 0x74
#endif /* USART_PRESC_PRESCALER */
            break;
 8004dce:	e01f      	b.n	8004e10 <UART_SetConfig+0x4f0>
          case UART_CLOCKSOURCE_LSE:
#if defined(USART_PRESC_PRESCALER)
            usartdiv = (uint32_t)(UART_DIV_LPUART(LSE_VALUE, huart->Init.BaudRate, huart->Init.ClockPrescaler));
#else
            usartdiv = (uint32_t)(UART_DIV_LPUART(LSE_VALUE, huart->Init.BaudRate));
 8004dd0:	6dfb      	ldr	r3, [r7, #92]	; 0x5c
 8004dd2:	685b      	ldr	r3, [r3, #4]
 8004dd4:	085b      	lsrs	r3, r3, #1
 8004dd6:	2200      	movs	r2, #0
 8004dd8:	469a      	mov	sl, r3
 8004dda:	4693      	mov	fp, r2
 8004ddc:	f51a 0300 	adds.w	r3, sl, #8388608	; 0x800000
 8004de0:	60bb      	str	r3, [r7, #8]
 8004de2:	f14b 0300 	adc.w	r3, fp, #0
 8004de6:	60fb      	str	r3, [r7, #12]
 8004de8:	6dfb      	ldr	r3, [r7, #92]	; 0x5c
 8004dea:	685b      	ldr	r3, [r3, #4]
 8004dec:	2200      	movs	r2, #0
 8004dee:	603b      	str	r3, [r7, #0]
 8004df0:	607a      	str	r2, [r7, #4]
 8004df2:	e9d7 2300 	ldrd	r2, r3, [r7]
 8004df6:	e9d7 0102 	ldrd	r0, r1, [r7, #8]
 8004dfa:	f7fb fed5 	bl	8000ba8 <__aeabi_uldivmod>
 8004dfe:	4602      	mov	r2, r0
 8004e00:	460b      	mov	r3, r1
 8004e02:	4613      	mov	r3, r2
 8004e04:	677b      	str	r3, [r7, #116]	; 0x74
#endif /* USART_PRESC_PRESCALER */
            break;
 8004e06:	e003      	b.n	8004e10 <UART_SetConfig+0x4f0>
          default:
            ret = HAL_ERROR;
 8004e08:	2301      	movs	r3, #1
 8004e0a:	f887 3073 	strb.w	r3, [r7, #115]	; 0x73
            break;
 8004e0e:	bf00      	nop
        }

        /* It is forbidden to write values lower than 0x300 in the LPUART_BRR register */
        if ((usartdiv >= LPUART_BRR_MIN) && (usartdiv <= LPUART_BRR_MAX))
 8004e10:	6f7b      	ldr	r3, [r7, #116]	; 0x74
 8004e12:	f5b3 7f40 	cmp.w	r3, #768	; 0x300
 8004e16:	d308      	bcc.n	8004e2a <UART_SetConfig+0x50a>
 8004e18:	6f7b      	ldr	r3, [r7, #116]	; 0x74
 8004e1a:	f5b3 1f80 	cmp.w	r3, #1048576	; 0x100000
 8004e1e:	d204      	bcs.n	8004e2a <UART_SetConfig+0x50a>
        {
          huart->Instance->BRR = usartdiv;
 8004e20:	6dfb      	ldr	r3, [r7, #92]	; 0x5c
 8004e22:	681b      	ldr	r3, [r3, #0]
 8004e24:	6f7a      	ldr	r2, [r7, #116]	; 0x74
 8004e26:	60da      	str	r2, [r3, #12]
 8004e28:	e10c      	b.n	8005044 <UART_SetConfig+0x724>
        }
        else
        {
          ret = HAL_ERROR;
 8004e2a:	2301      	movs	r3, #1
 8004e2c:	f887 3073 	strb.w	r3, [r7, #115]	; 0x73
 8004e30:	e108      	b.n	8005044 <UART_SetConfig+0x724>
        }
      } /*   if ( (lpuart_ker_ck_pres < (3 * huart->Init.BaudRate) ) || (lpuart_ker_ck_pres > (4096 * huart->Init.BaudRate) )) */
    } /* if (lpuart_ker_ck_pres != 0) */
  }
  /* Check UART Over Sampling to set Baud Rate Register */
  else if (huart->Init.OverSampling == UART_OVERSAMPLING_8)
 8004e32:	6dfb      	ldr	r3, [r7, #92]	; 0x5c
 8004e34:	69db      	ldr	r3, [r3, #28]
 8004e36:	f5b3 4f00 	cmp.w	r3, #32768	; 0x8000
 8004e3a:	f040 808f 	bne.w	8004f5c <UART_SetConfig+0x63c>
  {
    switch (clocksource)
 8004e3e:	f897 307b 	ldrb.w	r3, [r7, #123]	; 0x7b
 8004e42:	2b08      	cmp	r3, #8
 8004e44:	d864      	bhi.n	8004f10 <UART_SetConfig+0x5f0>
 8004e46:	a201      	add	r2, pc, #4	; (adr r2, 8004e4c <UART_SetConfig+0x52c>)
 8004e48:	f852 f023 	ldr.w	pc, [r2, r3, lsl #2]
 8004e4c:	08004e71 	.word	0x08004e71
 8004e50:	08004e91 	.word	0x08004e91
 8004e54:	08004eb1 	.word	0x08004eb1
 8004e58:	08004f11 	.word	0x08004f11
 8004e5c:	08004ecd 	.word	0x08004ecd
 8004e60:	08004f11 	.word	0x08004f11
 8004e64:	08004f11 	.word	0x08004f11
 8004e68:	08004f11 	.word	0x08004f11
 8004e6c:	08004ef9 	.word	0x08004ef9
    {
      case UART_CLOCKSOURCE_PCLK1:
        pclk = HAL_RCC_GetPCLK1Freq();
 8004e70:	f7ff fc48 	bl	8004704 <HAL_RCC_GetPCLK1Freq>
 8004e74:	66b8      	str	r0, [r7, #104]	; 0x68
#if defined(USART_PRESC_PRESCALER)
        usartdiv = (uint16_t)(UART_DIV_SAMPLING8(pclk, huart->Init.BaudRate, huart->Init.ClockPrescaler));
#else
        usartdiv = (uint16_t)(UART_DIV_SAMPLING8(pclk, huart->Init.BaudRate));
 8004e76:	6ebb      	ldr	r3, [r7, #104]	; 0x68
 8004e78:	005a      	lsls	r2, r3, #1
 8004e7a:	6dfb      	ldr	r3, [r7, #92]	; 0x5c
 8004e7c:	685b      	ldr	r3, [r3, #4]
 8004e7e:	085b      	lsrs	r3, r3, #1
 8004e80:	441a      	add	r2, r3
 8004e82:	6dfb      	ldr	r3, [r7, #92]	; 0x5c
 8004e84:	685b      	ldr	r3, [r3, #4]
 8004e86:	fbb2 f3f3 	udiv	r3, r2, r3
 8004e8a:	b29b      	uxth	r3, r3
 8004e8c:	677b      	str	r3, [r7, #116]	; 0x74
#endif /* USART_PRESC_PRESCALER */
        break;
 8004e8e:	e043      	b.n	8004f18 <UART_SetConfig+0x5f8>
      case UART_CLOCKSOURCE_PCLK2:
        pclk = HAL_RCC_GetPCLK2Freq();
 8004e90:	f7ff fc4e 	bl	8004730 <HAL_RCC_GetPCLK2Freq>
 8004e94:	66b8      	str	r0, [r7, #104]	; 0x68
#if defined(USART_PRESC_PRESCALER)
        usartdiv = (uint16_t)(UART_DIV_SAMPLING8(pclk, huart->Init.BaudRate, huart->Init.ClockPrescaler));
#else
        usartdiv = (uint16_t)(UART_DIV_SAMPLING8(pclk, huart->Init.BaudRate));
 8004e96:	6ebb      	ldr	r3, [r7, #104]	; 0x68
 8004e98:	005a      	lsls	r2, r3, #1
 8004e9a:	6dfb      	ldr	r3, [r7, #92]	; 0x5c
 8004e9c:	685b      	ldr	r3, [r3, #4]
 8004e9e:	085b      	lsrs	r3, r3, #1
 8004ea0:	441a      	add	r2, r3
 8004ea2:	6dfb      	ldr	r3, [r7, #92]	; 0x5c
 8004ea4:	685b      	ldr	r3, [r3, #4]
 8004ea6:	fbb2 f3f3 	udiv	r3, r2, r3
 8004eaa:	b29b      	uxth	r3, r3
 8004eac:	677b      	str	r3, [r7, #116]	; 0x74
#endif /* USART_PRESC_PRESCALER */
        break;
 8004eae:	e033      	b.n	8004f18 <UART_SetConfig+0x5f8>
      case UART_CLOCKSOURCE_HSI:
#if defined(USART_PRESC_PRESCALER)
        usartdiv = (uint16_t)(UART_DIV_SAMPLING8(HSI_VALUE, huart->Init.BaudRate, huart->Init.ClockPrescaler));
#else
        usartdiv = (uint16_t)(UART_DIV_SAMPLING8(HSI_VALUE, huart->Init.BaudRate));
 8004eb0:	6dfb      	ldr	r3, [r7, #92]	; 0x5c
 8004eb2:	685b      	ldr	r3, [r3, #4]
 8004eb4:	085b      	lsrs	r3, r3, #1
 8004eb6:	f103 73f4 	add.w	r3, r3, #31981568	; 0x1e80000
 8004eba:	f503 4390 	add.w	r3, r3, #18432	; 0x4800
 8004ebe:	6dfa      	ldr	r2, [r7, #92]	; 0x5c
 8004ec0:	6852      	ldr	r2, [r2, #4]
 8004ec2:	fbb3 f3f2 	udiv	r3, r3, r2
 8004ec6:	b29b      	uxth	r3, r3
 8004ec8:	677b      	str	r3, [r7, #116]	; 0x74
#endif /* USART_PRESC_PRESCALER */
        break;
 8004eca:	e025      	b.n	8004f18 <UART_SetConfig+0x5f8>
      case UART_CLOCKSOURCE_SYSCLK:
        pclk = HAL_RCC_GetSysClockFreq();
 8004ecc:	f7ff fb82 	bl	80045d4 <HAL_RCC_GetSysClockFreq>
 8004ed0:	66b8      	str	r0, [r7, #104]	; 0x68
#if defined(USART_PRESC_PRESCALER)
        usartdiv = (uint16_t)(UART_DIV_SAMPLING8(pclk, huart->Init.BaudRate, huart->Init.ClockPrescaler));
#else
        usartdiv = (uint16_t)(UART_DIV_SAMPLING8(pclk, huart->Init.BaudRate));
 8004ed2:	6ebb      	ldr	r3, [r7, #104]	; 0x68
 8004ed4:	005a      	lsls	r2, r3, #1
 8004ed6:	6dfb      	ldr	r3, [r7, #92]	; 0x5c
 8004ed8:	685b      	ldr	r3, [r3, #4]
 8004eda:	085b      	lsrs	r3, r3, #1
 8004edc:	441a      	add	r2, r3
 8004ede:	6dfb      	ldr	r3, [r7, #92]	; 0x5c
 8004ee0:	685b      	ldr	r3, [r3, #4]
 8004ee2:	fbb2 f3f3 	udiv	r3, r2, r3
 8004ee6:	b29b      	uxth	r3, r3
 8004ee8:	677b      	str	r3, [r7, #116]	; 0x74
#endif /* USART_PRESC_PRESCALER */
        break;
 8004eea:	e015      	b.n	8004f18 <UART_SetConfig+0x5f8>
 8004eec:	40008000 	.word	0x40008000
 8004ef0:	00f42400 	.word	0x00f42400
 8004ef4:	f4240000 	.word	0xf4240000
      case UART_CLOCKSOURCE_LSE:
#if defined(USART_PRESC_PRESCALER)
        usartdiv = (uint16_t)(UART_DIV_SAMPLING8((uint32_t)LSE_VALUE, huart->Init.BaudRate, huart->Init.ClockPrescaler));
#else
        usartdiv = (uint16_t)(UART_DIV_SAMPLING8(LSE_VALUE, huart->Init.BaudRate));
 8004ef8:	6dfb      	ldr	r3, [r7, #92]	; 0x5c
 8004efa:	685b      	ldr	r3, [r3, #4]
 8004efc:	085b      	lsrs	r3, r3, #1
 8004efe:	f503 3280 	add.w	r2, r3, #65536	; 0x10000
 8004f02:	6dfb      	ldr	r3, [r7, #92]	; 0x5c
 8004f04:	685b      	ldr	r3, [r3, #4]
 8004f06:	fbb2 f3f3 	udiv	r3, r2, r3
 8004f0a:	b29b      	uxth	r3, r3
 8004f0c:	677b      	str	r3, [r7, #116]	; 0x74
#endif /* USART_PRESC_PRESCALER */
        break;
 8004f0e:	e003      	b.n	8004f18 <UART_SetConfig+0x5f8>
      default:
        ret = HAL_ERROR;
 8004f10:	2301      	movs	r3, #1
 8004f12:	f887 3073 	strb.w	r3, [r7, #115]	; 0x73
        break;
 8004f16:	bf00      	nop
    }

    /* USARTDIV must be greater than or equal to 0d16 */
    if ((usartdiv >= UART_BRR_MIN) && (usartdiv <= UART_BRR_MAX))
 8004f18:	6f7b      	ldr	r3, [r7, #116]	; 0x74
 8004f1a:	2b0f      	cmp	r3, #15
 8004f1c:	d91a      	bls.n	8004f54 <UART_SetConfig+0x634>
 8004f1e:	6f7b      	ldr	r3, [r7, #116]	; 0x74
 8004f20:	f5b3 3f80 	cmp.w	r3, #65536	; 0x10000
 8004f24:	d216      	bcs.n	8004f54 <UART_SetConfig+0x634>
    {
      brrtemp = (uint16_t)(usartdiv & 0xFFF0U);
 8004f26:	6f7b      	ldr	r3, [r7, #116]	; 0x74
 8004f28:	b29b      	uxth	r3, r3
 8004f2a:	f023 030f 	bic.w	r3, r3, #15
 8004f2e:	f8a7 3066 	strh.w	r3, [r7, #102]	; 0x66
      brrtemp |= (uint16_t)((usartdiv & (uint16_t)0x000FU) >> 1U);
 8004f32:	6f7b      	ldr	r3, [r7, #116]	; 0x74
 8004f34:	085b      	lsrs	r3, r3, #1
 8004f36:	b29b      	uxth	r3, r3
 8004f38:	f003 0307 	and.w	r3, r3, #7
 8004f3c:	b29a      	uxth	r2, r3
 8004f3e:	f8b7 3066 	ldrh.w	r3, [r7, #102]	; 0x66
 8004f42:	4313      	orrs	r3, r2
 8004f44:	f8a7 3066 	strh.w	r3, [r7, #102]	; 0x66
      huart->Instance->BRR = brrtemp;
 8004f48:	6dfb      	ldr	r3, [r7, #92]	; 0x5c
 8004f4a:	681b      	ldr	r3, [r3, #0]
 8004f4c:	f8b7 2066 	ldrh.w	r2, [r7, #102]	; 0x66
 8004f50:	60da      	str	r2, [r3, #12]
 8004f52:	e077      	b.n	8005044 <UART_SetConfig+0x724>
    }
    else
    {
      ret = HAL_ERROR;
 8004f54:	2301      	movs	r3, #1
 8004f56:	f887 3073 	strb.w	r3, [r7, #115]	; 0x73
 8004f5a:	e073      	b.n	8005044 <UART_SetConfig+0x724>
    }
  }
  else
  {
    switch (clocksource)
 8004f5c:	f897 307b 	ldrb.w	r3, [r7, #123]	; 0x7b
 8004f60:	2b08      	cmp	r3, #8
 8004f62:	d85c      	bhi.n	800501e <UART_SetConfig+0x6fe>
 8004f64:	a201      	add	r2, pc, #4	; (adr r2, 8004f6c <UART_SetConfig+0x64c>)
 8004f66:	f852 f023 	ldr.w	pc, [r2, r3, lsl #2]
 8004f6a:	bf00      	nop
 8004f6c:	08004f91 	.word	0x08004f91
 8004f70:	08004faf 	.word	0x08004faf
 8004f74:	08004fcd 	.word	0x08004fcd
 8004f78:	0800501f 	.word	0x0800501f
 8004f7c:	08004fe9 	.word	0x08004fe9
 8004f80:	0800501f 	.word	0x0800501f
 8004f84:	0800501f 	.word	0x0800501f
 8004f88:	0800501f 	.word	0x0800501f
 8004f8c:	08005007 	.word	0x08005007
    {
      case UART_CLOCKSOURCE_PCLK1:
        pclk = HAL_RCC_GetPCLK1Freq();
 8004f90:	f7ff fbb8 	bl	8004704 <HAL_RCC_GetPCLK1Freq>
 8004f94:	66b8      	str	r0, [r7, #104]	; 0x68
#if defined(USART_PRESC_PRESCALER)
        usartdiv = (uint16_t)(UART_DIV_SAMPLING16(pclk, huart->Init.BaudRate, huart->Init.ClockPrescaler));
#else
        usartdiv = (uint16_t)(UART_DIV_SAMPLING16(pclk, huart->Init.BaudRate));
 8004f96:	6dfb      	ldr	r3, [r7, #92]	; 0x5c
 8004f98:	685b      	ldr	r3, [r3, #4]
 8004f9a:	085a      	lsrs	r2, r3, #1
 8004f9c:	6ebb      	ldr	r3, [r7, #104]	; 0x68
 8004f9e:	441a      	add	r2, r3
 8004fa0:	6dfb      	ldr	r3, [r7, #92]	; 0x5c
 8004fa2:	685b      	ldr	r3, [r3, #4]
 8004fa4:	fbb2 f3f3 	udiv	r3, r2, r3
 8004fa8:	b29b      	uxth	r3, r3
 8004faa:	677b      	str	r3, [r7, #116]	; 0x74
#endif /* USART_PRESC_PRESCALER */
        break;
 8004fac:	e03b      	b.n	8005026 <UART_SetConfig+0x706>
      case UART_CLOCKSOURCE_PCLK2:
        pclk = HAL_RCC_GetPCLK2Freq();
 8004fae:	f7ff fbbf 	bl	8004730 <HAL_RCC_GetPCLK2Freq>
 8004fb2:	66b8      	str	r0, [r7, #104]	; 0x68
#if defined(USART_PRESC_PRESCALER)
        usartdiv = (uint16_t)(UART_DIV_SAMPLING16(pclk, huart->Init.BaudRate, huart->Init.ClockPrescaler));
#else
        usartdiv = (uint16_t)(UART_DIV_SAMPLING16(pclk, huart->Init.BaudRate));
 8004fb4:	6dfb      	ldr	r3, [r7, #92]	; 0x5c
 8004fb6:	685b      	ldr	r3, [r3, #4]
 8004fb8:	085a      	lsrs	r2, r3, #1
 8004fba:	6ebb      	ldr	r3, [r7, #104]	; 0x68
 8004fbc:	441a      	add	r2, r3
 8004fbe:	6dfb      	ldr	r3, [r7, #92]	; 0x5c
 8004fc0:	685b      	ldr	r3, [r3, #4]
 8004fc2:	fbb2 f3f3 	udiv	r3, r2, r3
 8004fc6:	b29b      	uxth	r3, r3
 8004fc8:	677b      	str	r3, [r7, #116]	; 0x74
#endif /* USART_PRESC_PRESCALER */
        break;
 8004fca:	e02c      	b.n	8005026 <UART_SetConfig+0x706>
      case UART_CLOCKSOURCE_HSI:
#if defined(USART_PRESC_PRESCALER)
        usartdiv = (uint16_t)(UART_DIV_SAMPLING16(HSI_VALUE, huart->Init.BaudRate, huart->Init.ClockPrescaler));
#else
        usartdiv = (uint16_t)(UART_DIV_SAMPLING16(HSI_VALUE, huart->Init.BaudRate));
 8004fcc:	6dfb      	ldr	r3, [r7, #92]	; 0x5c
 8004fce:	685b      	ldr	r3, [r3, #4]
 8004fd0:	085b      	lsrs	r3, r3, #1
 8004fd2:	f503 0374 	add.w	r3, r3, #15990784	; 0xf40000
 8004fd6:	f503 5310 	add.w	r3, r3, #9216	; 0x2400
 8004fda:	6dfa      	ldr	r2, [r7, #92]	; 0x5c
 8004fdc:	6852      	ldr	r2, [r2, #4]
 8004fde:	fbb3 f3f2 	udiv	r3, r3, r2
 8004fe2:	b29b      	uxth	r3, r3
 8004fe4:	677b      	str	r3, [r7, #116]	; 0x74
#endif /* USART_PRESC_PRESCALER */
        break;
 8004fe6:	e01e      	b.n	8005026 <UART_SetConfig+0x706>
      case UART_CLOCKSOURCE_SYSCLK:
        pclk = HAL_RCC_GetSysClockFreq();
 8004fe8:	f7ff faf4 	bl	80045d4 <HAL_RCC_GetSysClockFreq>
 8004fec:	66b8      	str	r0, [r7, #104]	; 0x68
#if defined(USART_PRESC_PRESCALER)
        usartdiv = (uint16_t)(UART_DIV_SAMPLING16(pclk, huart->Init.BaudRate, huart->Init.ClockPrescaler));
#else
        usartdiv = (uint16_t)(UART_DIV_SAMPLING16(pclk, huart->Init.BaudRate));
 8004fee:	6dfb      	ldr	r3, [r7, #92]	; 0x5c
 8004ff0:	685b      	ldr	r3, [r3, #4]
 8004ff2:	085a      	lsrs	r2, r3, #1
 8004ff4:	6ebb      	ldr	r3, [r7, #104]	; 0x68
 8004ff6:	441a      	add	r2, r3
 8004ff8:	6dfb      	ldr	r3, [r7, #92]	; 0x5c
 8004ffa:	685b      	ldr	r3, [r3, #4]
 8004ffc:	fbb2 f3f3 	udiv	r3, r2, r3
 8005000:	b29b      	uxth	r3, r3
 8005002:	677b      	str	r3, [r7, #116]	; 0x74
#endif /* USART_PRESC_PRESCALER */
        break;
 8005004:	e00f      	b.n	8005026 <UART_SetConfig+0x706>
      case UART_CLOCKSOURCE_LSE:
#if defined(USART_PRESC_PRESCALER)
        usartdiv = (uint16_t)(UART_DIV_SAMPLING16((uint32_t)LSE_VALUE, huart->Init.BaudRate, huart->Init.ClockPrescaler));
#else
        usartdiv = (uint16_t)(UART_DIV_SAMPLING16(LSE_VALUE, huart->Init.BaudRate));
 8005006:	6dfb      	ldr	r3, [r7, #92]	; 0x5c
 8005008:	685b      	ldr	r3, [r3, #4]
 800500a:	085b      	lsrs	r3, r3, #1
 800500c:	f503 4200 	add.w	r2, r3, #32768	; 0x8000
 8005010:	6dfb      	ldr	r3, [r7, #92]	; 0x5c
 8005012:	685b      	ldr	r3, [r3, #4]
 8005014:	fbb2 f3f3 	udiv	r3, r2, r3
 8005018:	b29b      	uxth	r3, r3
 800501a:	677b      	str	r3, [r7, #116]	; 0x74
#endif /* USART_PRESC_PRESCALER */
        break;
 800501c:	e003      	b.n	8005026 <UART_SetConfig+0x706>
      default:
        ret = HAL_ERROR;
 800501e:	2301      	movs	r3, #1
 8005020:	f887 3073 	strb.w	r3, [r7, #115]	; 0x73
        break;
 8005024:	bf00      	nop
    }

    /* USARTDIV must be greater than or equal to 0d16 */
    if ((usartdiv >= UART_BRR_MIN) && (usartdiv <= UART_BRR_MAX))
 8005026:	6f7b      	ldr	r3, [r7, #116]	; 0x74
 8005028:	2b0f      	cmp	r3, #15
 800502a:	d908      	bls.n	800503e <UART_SetConfig+0x71e>
 800502c:	6f7b      	ldr	r3, [r7, #116]	; 0x74
 800502e:	f5b3 3f80 	cmp.w	r3, #65536	; 0x10000
 8005032:	d204      	bcs.n	800503e <UART_SetConfig+0x71e>
    {
      huart->Instance->BRR = usartdiv;
 8005034:	6dfb      	ldr	r3, [r7, #92]	; 0x5c
 8005036:	681b      	ldr	r3, [r3, #0]
 8005038:	6f7a      	ldr	r2, [r7, #116]	; 0x74
 800503a:	60da      	str	r2, [r3, #12]
 800503c:	e002      	b.n	8005044 <UART_SetConfig+0x724>
    }
    else
    {
      ret = HAL_ERROR;
 800503e:	2301      	movs	r3, #1
 8005040:	f887 3073 	strb.w	r3, [r7, #115]	; 0x73
  huart->NbTxDataToProcess = 1;
  huart->NbRxDataToProcess = 1;
#endif /* USART_CR1_FIFOEN */

  /* Clear ISR function pointers */
  huart->RxISR = NULL;
 8005044:	6dfb      	ldr	r3, [r7, #92]	; 0x5c
 8005046:	2200      	movs	r2, #0
 8005048:	661a      	str	r2, [r3, #96]	; 0x60
  huart->TxISR = NULL;
 800504a:	6dfb      	ldr	r3, [r7, #92]	; 0x5c
 800504c:	2200      	movs	r2, #0
 800504e:	665a      	str	r2, [r3, #100]	; 0x64

  return ret;
 8005050:	f897 3073 	ldrb.w	r3, [r7, #115]	; 0x73
}
 8005054:	4618      	mov	r0, r3
 8005056:	3780      	adds	r7, #128	; 0x80
 8005058:	46bd      	mov	sp, r7
 800505a:	e8bd 8fb0 	ldmia.w	sp!, {r4, r5, r7, r8, r9, sl, fp, pc}
 800505e:	bf00      	nop

08005060 <UART_AdvFeatureConfig>:
  * @brief Configure the UART peripheral advanced features.
  * @param huart UART handle.
  * @retval None
  */
void UART_AdvFeatureConfig(UART_HandleTypeDef *huart)
{
 8005060:	b480      	push	{r7}
 8005062:	b083      	sub	sp, #12
 8005064:	af00      	add	r7, sp, #0
 8005066:	6078      	str	r0, [r7, #4]
  /* Check whether the set of advanced features to configure is properly set */
  assert_param(IS_UART_ADVFEATURE_INIT(huart->AdvancedInit.AdvFeatureInit));

  /* if required, configure TX pin active level inversion */
  if (HAL_IS_BIT_SET(huart->AdvancedInit.AdvFeatureInit, UART_ADVFEATURE_TXINVERT_INIT))
 8005068:	687b      	ldr	r3, [r7, #4]
 800506a:	6a5b      	ldr	r3, [r3, #36]	; 0x24
 800506c:	f003 0301 	and.w	r3, r3, #1
 8005070:	2b00      	cmp	r3, #0
 8005072:	d00a      	beq.n	800508a <UART_AdvFeatureConfig+0x2a>
  {
    assert_param(IS_UART_ADVFEATURE_TXINV(huart->AdvancedInit.TxPinLevelInvert));
    MODIFY_REG(huart->Instance->CR2, USART_CR2_TXINV, huart->AdvancedInit.TxPinLevelInvert);
 8005074:	687b      	ldr	r3, [r7, #4]
 8005076:	681b      	ldr	r3, [r3, #0]
 8005078:	685b      	ldr	r3, [r3, #4]
 800507a:	f423 3100 	bic.w	r1, r3, #131072	; 0x20000
 800507e:	687b      	ldr	r3, [r7, #4]
 8005080:	6a9a      	ldr	r2, [r3, #40]	; 0x28
 8005082:	687b      	ldr	r3, [r7, #4]
 8005084:	681b      	ldr	r3, [r3, #0]
 8005086:	430a      	orrs	r2, r1
 8005088:	605a      	str	r2, [r3, #4]
  }

  /* if required, configure RX pin active level inversion */
  if (HAL_IS_BIT_SET(huart->AdvancedInit.AdvFeatureInit, UART_ADVFEATURE_RXINVERT_INIT))
 800508a:	687b      	ldr	r3, [r7, #4]
 800508c:	6a5b      	ldr	r3, [r3, #36]	; 0x24
 800508e:	f003 0302 	and.w	r3, r3, #2
 8005092:	2b00      	cmp	r3, #0
 8005094:	d00a      	beq.n	80050ac <UART_AdvFeatureConfig+0x4c>
  {
    assert_param(IS_UART_ADVFEATURE_RXINV(huart->AdvancedInit.RxPinLevelInvert));
    MODIFY_REG(huart->Instance->CR2, USART_CR2_RXINV, huart->AdvancedInit.RxPinLevelInvert);
 8005096:	687b      	ldr	r3, [r7, #4]
 8005098:	681b      	ldr	r3, [r3, #0]
 800509a:	685b      	ldr	r3, [r3, #4]
 800509c:	f423 3180 	bic.w	r1, r3, #65536	; 0x10000
 80050a0:	687b      	ldr	r3, [r7, #4]
 80050a2:	6ada      	ldr	r2, [r3, #44]	; 0x2c
 80050a4:	687b      	ldr	r3, [r7, #4]
 80050a6:	681b      	ldr	r3, [r3, #0]
 80050a8:	430a      	orrs	r2, r1
 80050aa:	605a      	str	r2, [r3, #4]
  }

  /* if required, configure data inversion */
  if (HAL_IS_BIT_SET(huart->AdvancedInit.AdvFeatureInit, UART_ADVFEATURE_DATAINVERT_INIT))
 80050ac:	687b      	ldr	r3, [r7, #4]
 80050ae:	6a5b      	ldr	r3, [r3, #36]	; 0x24
 80050b0:	f003 0304 	and.w	r3, r3, #4
 80050b4:	2b00      	cmp	r3, #0
 80050b6:	d00a      	beq.n	80050ce <UART_AdvFeatureConfig+0x6e>
  {
    assert_param(IS_UART_ADVFEATURE_DATAINV(huart->AdvancedInit.DataInvert));
    MODIFY_REG(huart->Instance->CR2, USART_CR2_DATAINV, huart->AdvancedInit.DataInvert);
 80050b8:	687b      	ldr	r3, [r7, #4]
 80050ba:	681b      	ldr	r3, [r3, #0]
 80050bc:	685b      	ldr	r3, [r3, #4]
 80050be:	f423 2180 	bic.w	r1, r3, #262144	; 0x40000
 80050c2:	687b      	ldr	r3, [r7, #4]
 80050c4:	6b1a      	ldr	r2, [r3, #48]	; 0x30
 80050c6:	687b      	ldr	r3, [r7, #4]
 80050c8:	681b      	ldr	r3, [r3, #0]
 80050ca:	430a      	orrs	r2, r1
 80050cc:	605a      	str	r2, [r3, #4]
  }

  /* if required, configure RX/TX pins swap */
  if (HAL_IS_BIT_SET(huart->AdvancedInit.AdvFeatureInit, UART_ADVFEATURE_SWAP_INIT))
 80050ce:	687b      	ldr	r3, [r7, #4]
 80050d0:	6a5b      	ldr	r3, [r3, #36]	; 0x24
 80050d2:	f003 0308 	and.w	r3, r3, #8
 80050d6:	2b00      	cmp	r3, #0
 80050d8:	d00a      	beq.n	80050f0 <UART_AdvFeatureConfig+0x90>
  {
    assert_param(IS_UART_ADVFEATURE_SWAP(huart->AdvancedInit.Swap));
    MODIFY_REG(huart->Instance->CR2, USART_CR2_SWAP, huart->AdvancedInit.Swap);
 80050da:	687b      	ldr	r3, [r7, #4]
 80050dc:	681b      	ldr	r3, [r3, #0]
 80050de:	685b      	ldr	r3, [r3, #4]
 80050e0:	f423 4100 	bic.w	r1, r3, #32768	; 0x8000
 80050e4:	687b      	ldr	r3, [r7, #4]
 80050e6:	6b5a      	ldr	r2, [r3, #52]	; 0x34
 80050e8:	687b      	ldr	r3, [r7, #4]
 80050ea:	681b      	ldr	r3, [r3, #0]
 80050ec:	430a      	orrs	r2, r1
 80050ee:	605a      	str	r2, [r3, #4]
  }

  /* if required, configure RX overrun detection disabling */
  if (HAL_IS_BIT_SET(huart->AdvancedInit.AdvFeatureInit, UART_ADVFEATURE_RXOVERRUNDISABLE_INIT))
 80050f0:	687b      	ldr	r3, [r7, #4]
 80050f2:	6a5b      	ldr	r3, [r3, #36]	; 0x24
 80050f4:	f003 0310 	and.w	r3, r3, #16
 80050f8:	2b00      	cmp	r3, #0
 80050fa:	d00a      	beq.n	8005112 <UART_AdvFeatureConfig+0xb2>
  {
    assert_param(IS_UART_OVERRUN(huart->AdvancedInit.OverrunDisable));
    MODIFY_REG(huart->Instance->CR3, USART_CR3_OVRDIS, huart->AdvancedInit.OverrunDisable);
 80050fc:	687b      	ldr	r3, [r7, #4]
 80050fe:	681b      	ldr	r3, [r3, #0]
 8005100:	689b      	ldr	r3, [r3, #8]
 8005102:	f423 5180 	bic.w	r1, r3, #4096	; 0x1000
 8005106:	687b      	ldr	r3, [r7, #4]
 8005108:	6b9a      	ldr	r2, [r3, #56]	; 0x38
 800510a:	687b      	ldr	r3, [r7, #4]
 800510c:	681b      	ldr	r3, [r3, #0]
 800510e:	430a      	orrs	r2, r1
 8005110:	609a      	str	r2, [r3, #8]
  }

  /* if required, configure DMA disabling on reception error */
  if (HAL_IS_BIT_SET(huart->AdvancedInit.AdvFeatureInit, UART_ADVFEATURE_DMADISABLEONERROR_INIT))
 8005112:	687b      	ldr	r3, [r7, #4]
 8005114:	6a5b      	ldr	r3, [r3, #36]	; 0x24
 8005116:	f003 0320 	and.w	r3, r3, #32
 800511a:	2b00      	cmp	r3, #0
 800511c:	d00a      	beq.n	8005134 <UART_AdvFeatureConfig+0xd4>
  {
    assert_param(IS_UART_ADVFEATURE_DMAONRXERROR(huart->AdvancedInit.DMADisableonRxError));
    MODIFY_REG(huart->Instance->CR3, USART_CR3_DDRE, huart->AdvancedInit.DMADisableonRxError);
 800511e:	687b      	ldr	r3, [r7, #4]
 8005120:	681b      	ldr	r3, [r3, #0]
 8005122:	689b      	ldr	r3, [r3, #8]
 8005124:	f423 5100 	bic.w	r1, r3, #8192	; 0x2000
 8005128:	687b      	ldr	r3, [r7, #4]
 800512a:	6bda      	ldr	r2, [r3, #60]	; 0x3c
 800512c:	687b      	ldr	r3, [r7, #4]
 800512e:	681b      	ldr	r3, [r3, #0]
 8005130:	430a      	orrs	r2, r1
 8005132:	609a      	str	r2, [r3, #8]
  }

  /* if required, configure auto Baud rate detection scheme */
  if (HAL_IS_BIT_SET(huart->AdvancedInit.AdvFeatureInit, UART_ADVFEATURE_AUTOBAUDRATE_INIT))
 8005134:	687b      	ldr	r3, [r7, #4]
 8005136:	6a5b      	ldr	r3, [r3, #36]	; 0x24
 8005138:	f003 0340 	and.w	r3, r3, #64	; 0x40
 800513c:	2b00      	cmp	r3, #0
 800513e:	d01a      	beq.n	8005176 <UART_AdvFeatureConfig+0x116>
  {
    assert_param(IS_USART_AUTOBAUDRATE_DETECTION_INSTANCE(huart->Instance));
    assert_param(IS_UART_ADVFEATURE_AUTOBAUDRATE(huart->AdvancedInit.AutoBaudRateEnable));
    MODIFY_REG(huart->Instance->CR2, USART_CR2_ABREN, huart->AdvancedInit.AutoBaudRateEnable);
 8005140:	687b      	ldr	r3, [r7, #4]
 8005142:	681b      	ldr	r3, [r3, #0]
 8005144:	685b      	ldr	r3, [r3, #4]
 8005146:	f423 1180 	bic.w	r1, r3, #1048576	; 0x100000
 800514a:	687b      	ldr	r3, [r7, #4]
 800514c:	6c1a      	ldr	r2, [r3, #64]	; 0x40
 800514e:	687b      	ldr	r3, [r7, #4]
 8005150:	681b      	ldr	r3, [r3, #0]
 8005152:	430a      	orrs	r2, r1
 8005154:	605a      	str	r2, [r3, #4]
    /* set auto Baudrate detection parameters if detection is enabled */
    if (huart->AdvancedInit.AutoBaudRateEnable == UART_ADVFEATURE_AUTOBAUDRATE_ENABLE)
 8005156:	687b      	ldr	r3, [r7, #4]
 8005158:	6c1b      	ldr	r3, [r3, #64]	; 0x40
 800515a:	f5b3 1f80 	cmp.w	r3, #1048576	; 0x100000
 800515e:	d10a      	bne.n	8005176 <UART_AdvFeatureConfig+0x116>
    {
      assert_param(IS_UART_ADVFEATURE_AUTOBAUDRATEMODE(huart->AdvancedInit.AutoBaudRateMode));
      MODIFY_REG(huart->Instance->CR2, USART_CR2_ABRMODE, huart->AdvancedInit.AutoBaudRateMode);
 8005160:	687b      	ldr	r3, [r7, #4]
 8005162:	681b      	ldr	r3, [r3, #0]
 8005164:	685b      	ldr	r3, [r3, #4]
 8005166:	f423 01c0 	bic.w	r1, r3, #6291456	; 0x600000
 800516a:	687b      	ldr	r3, [r7, #4]
 800516c:	6c5a      	ldr	r2, [r3, #68]	; 0x44
 800516e:	687b      	ldr	r3, [r7, #4]
 8005170:	681b      	ldr	r3, [r3, #0]
 8005172:	430a      	orrs	r2, r1
 8005174:	605a      	str	r2, [r3, #4]
    }
  }

  /* if required, configure MSB first on communication line */
  if (HAL_IS_BIT_SET(huart->AdvancedInit.AdvFeatureInit, UART_ADVFEATURE_MSBFIRST_INIT))
 8005176:	687b      	ldr	r3, [r7, #4]
 8005178:	6a5b      	ldr	r3, [r3, #36]	; 0x24
 800517a:	f003 0380 	and.w	r3, r3, #128	; 0x80
 800517e:	2b00      	cmp	r3, #0
 8005180:	d00a      	beq.n	8005198 <UART_AdvFeatureConfig+0x138>
  {
    assert_param(IS_UART_ADVFEATURE_MSBFIRST(huart->AdvancedInit.MSBFirst));
    MODIFY_REG(huart->Instance->CR2, USART_CR2_MSBFIRST, huart->AdvancedInit.MSBFirst);
 8005182:	687b      	ldr	r3, [r7, #4]
 8005184:	681b      	ldr	r3, [r3, #0]
 8005186:	685b      	ldr	r3, [r3, #4]
 8005188:	f423 2100 	bic.w	r1, r3, #524288	; 0x80000
 800518c:	687b      	ldr	r3, [r7, #4]
 800518e:	6c9a      	ldr	r2, [r3, #72]	; 0x48
 8005190:	687b      	ldr	r3, [r7, #4]
 8005192:	681b      	ldr	r3, [r3, #0]
 8005194:	430a      	orrs	r2, r1
 8005196:	605a      	str	r2, [r3, #4]
  }
}
 8005198:	bf00      	nop
 800519a:	370c      	adds	r7, #12
 800519c:	46bd      	mov	sp, r7
 800519e:	f85d 7b04 	ldr.w	r7, [sp], #4
 80051a2:	4770      	bx	lr

080051a4 <UART_CheckIdleState>:
  * @brief Check the UART Idle State.
  * @param huart UART handle.
  * @retval HAL status
  */
HAL_StatusTypeDef UART_CheckIdleState(UART_HandleTypeDef *huart)
{
 80051a4:	b580      	push	{r7, lr}
 80051a6:	b086      	sub	sp, #24
 80051a8:	af02      	add	r7, sp, #8
 80051aa:	6078      	str	r0, [r7, #4]
  uint32_t tickstart;

  /* Initialize the UART ErrorCode */
  huart->ErrorCode = HAL_UART_ERROR_NONE;
 80051ac:	687b      	ldr	r3, [r7, #4]
 80051ae:	2200      	movs	r2, #0
 80051b0:	67da      	str	r2, [r3, #124]	; 0x7c

  /* Init tickstart for timeout managment*/
  tickstart = HAL_GetTick();
 80051b2:	f7fe f89d 	bl	80032f0 <HAL_GetTick>
 80051b6:	60f8      	str	r0, [r7, #12]

  /* Check if the Transmitter is enabled */
  if ((huart->Instance->CR1 & USART_CR1_TE) == USART_CR1_TE)
 80051b8:	687b      	ldr	r3, [r7, #4]
 80051ba:	681b      	ldr	r3, [r3, #0]
 80051bc:	681b      	ldr	r3, [r3, #0]
 80051be:	f003 0308 	and.w	r3, r3, #8
 80051c2:	2b08      	cmp	r3, #8
 80051c4:	d10e      	bne.n	80051e4 <UART_CheckIdleState+0x40>
  {
    /* Wait until TEACK flag is set */
    if (UART_WaitOnFlagUntilTimeout(huart, USART_ISR_TEACK, RESET, tickstart, HAL_UART_TIMEOUT_VALUE) != HAL_OK)
 80051c6:	f06f 437e 	mvn.w	r3, #4261412864	; 0xfe000000
 80051ca:	9300      	str	r3, [sp, #0]
 80051cc:	68fb      	ldr	r3, [r7, #12]
 80051ce:	2200      	movs	r2, #0
 80051d0:	f44f 1100 	mov.w	r1, #2097152	; 0x200000
 80051d4:	6878      	ldr	r0, [r7, #4]
 80051d6:	f000 f82a 	bl	800522e <UART_WaitOnFlagUntilTimeout>
 80051da:	4603      	mov	r3, r0
 80051dc:	2b00      	cmp	r3, #0
 80051de:	d001      	beq.n	80051e4 <UART_CheckIdleState+0x40>
    {
      /* Timeout occurred */
      return HAL_TIMEOUT;
 80051e0:	2303      	movs	r3, #3
 80051e2:	e020      	b.n	8005226 <UART_CheckIdleState+0x82>
    }
  }

  /* Check if the Receiver is enabled */
  if ((huart->Instance->CR1 & USART_CR1_RE) == USART_CR1_RE)
 80051e4:	687b      	ldr	r3, [r7, #4]
 80051e6:	681b      	ldr	r3, [r3, #0]
 80051e8:	681b      	ldr	r3, [r3, #0]
 80051ea:	f003 0304 	and.w	r3, r3, #4
 80051ee:	2b04      	cmp	r3, #4
 80051f0:	d10e      	bne.n	8005210 <UART_CheckIdleState+0x6c>
  {
    /* Wait until REACK flag is set */
    if (UART_WaitOnFlagUntilTimeout(huart, USART_ISR_REACK, RESET, tickstart, HAL_UART_TIMEOUT_VALUE) != HAL_OK)
 80051f2:	f06f 437e 	mvn.w	r3, #4261412864	; 0xfe000000
 80051f6:	9300      	str	r3, [sp, #0]
 80051f8:	68fb      	ldr	r3, [r7, #12]
 80051fa:	2200      	movs	r2, #0
 80051fc:	f44f 0180 	mov.w	r1, #4194304	; 0x400000
 8005200:	6878      	ldr	r0, [r7, #4]
 8005202:	f000 f814 	bl	800522e <UART_WaitOnFlagUntilTimeout>
 8005206:	4603      	mov	r3, r0
 8005208:	2b00      	cmp	r3, #0
 800520a:	d001      	beq.n	8005210 <UART_CheckIdleState+0x6c>
    {
      /* Timeout occurred */
      return HAL_TIMEOUT;
 800520c:	2303      	movs	r3, #3
 800520e:	e00a      	b.n	8005226 <UART_CheckIdleState+0x82>
    }
  }

  /* Initialize the UART State */
  huart->gState = HAL_UART_STATE_READY;
 8005210:	687b      	ldr	r3, [r7, #4]
 8005212:	2220      	movs	r2, #32
 8005214:	675a      	str	r2, [r3, #116]	; 0x74
  huart->RxState = HAL_UART_STATE_READY;
 8005216:	687b      	ldr	r3, [r7, #4]
 8005218:	2220      	movs	r2, #32
 800521a:	679a      	str	r2, [r3, #120]	; 0x78

  __HAL_UNLOCK(huart);
 800521c:	687b      	ldr	r3, [r7, #4]
 800521e:	2200      	movs	r2, #0
 8005220:	f883 2070 	strb.w	r2, [r3, #112]	; 0x70

  return HAL_OK;
 8005224:	2300      	movs	r3, #0
}
 8005226:	4618      	mov	r0, r3
 8005228:	3710      	adds	r7, #16
 800522a:	46bd      	mov	sp, r7
 800522c:	bd80      	pop	{r7, pc}

0800522e <UART_WaitOnFlagUntilTimeout>:
  * @param Timeout   Timeout duration
  * @retval HAL status
  */
HAL_StatusTypeDef UART_WaitOnFlagUntilTimeout(UART_HandleTypeDef *huart, uint32_t Flag, FlagStatus Status,
                                              uint32_t Tickstart, uint32_t Timeout)
{
 800522e:	b580      	push	{r7, lr}
 8005230:	b084      	sub	sp, #16
 8005232:	af00      	add	r7, sp, #0
 8005234:	60f8      	str	r0, [r7, #12]
 8005236:	60b9      	str	r1, [r7, #8]
 8005238:	603b      	str	r3, [r7, #0]
 800523a:	4613      	mov	r3, r2
 800523c:	71fb      	strb	r3, [r7, #7]
  /* Wait until flag is set */
  while ((__HAL_UART_GET_FLAG(huart, Flag) ? SET : RESET) == Status)
 800523e:	e05d      	b.n	80052fc <UART_WaitOnFlagUntilTimeout+0xce>
  {
    /* Check for the Timeout */
    if (Timeout != HAL_MAX_DELAY)
 8005240:	69bb      	ldr	r3, [r7, #24]
 8005242:	f1b3 3fff 	cmp.w	r3, #4294967295
 8005246:	d059      	beq.n	80052fc <UART_WaitOnFlagUntilTimeout+0xce>
    {
      if (((HAL_GetTick() - Tickstart) > Timeout) || (Timeout == 0U))
 8005248:	f7fe f852 	bl	80032f0 <HAL_GetTick>
 800524c:	4602      	mov	r2, r0
 800524e:	683b      	ldr	r3, [r7, #0]
 8005250:	1ad3      	subs	r3, r2, r3
 8005252:	69ba      	ldr	r2, [r7, #24]
 8005254:	429a      	cmp	r2, r3
 8005256:	d302      	bcc.n	800525e <UART_WaitOnFlagUntilTimeout+0x30>
 8005258:	69bb      	ldr	r3, [r7, #24]
 800525a:	2b00      	cmp	r3, #0
 800525c:	d11b      	bne.n	8005296 <UART_WaitOnFlagUntilTimeout+0x68>
      {
        /* Disable TXE, RXNE, PE and ERR (Frame error, noise error, overrun error) interrupts for the interrupt process */
#if defined(USART_CR1_FIFOEN)
        CLEAR_BIT(huart->Instance->CR1, (USART_CR1_RXNEIE_RXFNEIE | USART_CR1_PEIE | USART_CR1_TXEIE_TXFNFIE));
#else
        CLEAR_BIT(huart->Instance->CR1, (USART_CR1_RXNEIE | USART_CR1_PEIE | USART_CR1_TXEIE));
 800525e:	68fb      	ldr	r3, [r7, #12]
 8005260:	681b      	ldr	r3, [r3, #0]
 8005262:	681a      	ldr	r2, [r3, #0]
 8005264:	68fb      	ldr	r3, [r7, #12]
 8005266:	681b      	ldr	r3, [r3, #0]
 8005268:	f422 72d0 	bic.w	r2, r2, #416	; 0x1a0
 800526c:	601a      	str	r2, [r3, #0]
#endif /* USART_CR1_FIFOEN */
        CLEAR_BIT(huart->Instance->CR3, USART_CR3_EIE);
 800526e:	68fb      	ldr	r3, [r7, #12]
 8005270:	681b      	ldr	r3, [r3, #0]
 8005272:	689a      	ldr	r2, [r3, #8]
 8005274:	68fb      	ldr	r3, [r7, #12]
 8005276:	681b      	ldr	r3, [r3, #0]
 8005278:	f022 0201 	bic.w	r2, r2, #1
 800527c:	609a      	str	r2, [r3, #8]

        huart->gState = HAL_UART_STATE_READY;
 800527e:	68fb      	ldr	r3, [r7, #12]
 8005280:	2220      	movs	r2, #32
 8005282:	675a      	str	r2, [r3, #116]	; 0x74
        huart->RxState = HAL_UART_STATE_READY;
 8005284:	68fb      	ldr	r3, [r7, #12]
 8005286:	2220      	movs	r2, #32
 8005288:	679a      	str	r2, [r3, #120]	; 0x78

        __HAL_UNLOCK(huart);
 800528a:	68fb      	ldr	r3, [r7, #12]
 800528c:	2200      	movs	r2, #0
 800528e:	f883 2070 	strb.w	r2, [r3, #112]	; 0x70

        return HAL_TIMEOUT;
 8005292:	2303      	movs	r3, #3
 8005294:	e042      	b.n	800531c <UART_WaitOnFlagUntilTimeout+0xee>
      }

      if (READ_BIT(huart->Instance->CR1, USART_CR1_RE) != 0U)
 8005296:	68fb      	ldr	r3, [r7, #12]
 8005298:	681b      	ldr	r3, [r3, #0]
 800529a:	681b      	ldr	r3, [r3, #0]
 800529c:	f003 0304 	and.w	r3, r3, #4
 80052a0:	2b00      	cmp	r3, #0
 80052a2:	d02b      	beq.n	80052fc <UART_WaitOnFlagUntilTimeout+0xce>
      {
        if (__HAL_UART_GET_FLAG(huart, UART_FLAG_RTOF) == SET)
 80052a4:	68fb      	ldr	r3, [r7, #12]
 80052a6:	681b      	ldr	r3, [r3, #0]
 80052a8:	69db      	ldr	r3, [r3, #28]
 80052aa:	f403 6300 	and.w	r3, r3, #2048	; 0x800
 80052ae:	f5b3 6f00 	cmp.w	r3, #2048	; 0x800
 80052b2:	d123      	bne.n	80052fc <UART_WaitOnFlagUntilTimeout+0xce>
        {
          /* Clear Receiver Timeout flag*/
          __HAL_UART_CLEAR_FLAG(huart, UART_CLEAR_RTOF);
 80052b4:	68fb      	ldr	r3, [r7, #12]
 80052b6:	681b      	ldr	r3, [r3, #0]
 80052b8:	f44f 6200 	mov.w	r2, #2048	; 0x800
 80052bc:	621a      	str	r2, [r3, #32]
          
          /* Disable TXE, RXNE, PE and ERR (Frame error, noise error, overrun error) interrupts for the interrupt process */
#if defined(USART_CR1_FIFOEN)
          CLEAR_BIT(huart->Instance->CR1, (USART_CR1_RXNEIE_RXFNEIE | USART_CR1_PEIE | USART_CR1_TXEIE_TXFNFIE));
#else
          CLEAR_BIT(huart->Instance->CR1, (USART_CR1_RXNEIE | USART_CR1_PEIE | USART_CR1_TXEIE));
 80052be:	68fb      	ldr	r3, [r7, #12]
 80052c0:	681b      	ldr	r3, [r3, #0]
 80052c2:	681a      	ldr	r2, [r3, #0]
 80052c4:	68fb      	ldr	r3, [r7, #12]
 80052c6:	681b      	ldr	r3, [r3, #0]
 80052c8:	f422 72d0 	bic.w	r2, r2, #416	; 0x1a0
 80052cc:	601a      	str	r2, [r3, #0]
#endif
          CLEAR_BIT(huart->Instance->CR3, USART_CR3_EIE);
 80052ce:	68fb      	ldr	r3, [r7, #12]
 80052d0:	681b      	ldr	r3, [r3, #0]
 80052d2:	689a      	ldr	r2, [r3, #8]
 80052d4:	68fb      	ldr	r3, [r7, #12]
 80052d6:	681b      	ldr	r3, [r3, #0]
 80052d8:	f022 0201 	bic.w	r2, r2, #1
 80052dc:	609a      	str	r2, [r3, #8]

          huart->gState = HAL_UART_STATE_READY;
 80052de:	68fb      	ldr	r3, [r7, #12]
 80052e0:	2220      	movs	r2, #32
 80052e2:	675a      	str	r2, [r3, #116]	; 0x74
          huart->RxState = HAL_UART_STATE_READY;
 80052e4:	68fb      	ldr	r3, [r7, #12]
 80052e6:	2220      	movs	r2, #32
 80052e8:	679a      	str	r2, [r3, #120]	; 0x78
          huart->ErrorCode = HAL_UART_ERROR_RTO;
 80052ea:	68fb      	ldr	r3, [r7, #12]
 80052ec:	2220      	movs	r2, #32
 80052ee:	67da      	str	r2, [r3, #124]	; 0x7c
          
          /* Process Unlocked */
          __HAL_UNLOCK(huart);
 80052f0:	68fb      	ldr	r3, [r7, #12]
 80052f2:	2200      	movs	r2, #0
 80052f4:	f883 2070 	strb.w	r2, [r3, #112]	; 0x70
          
          return HAL_TIMEOUT;
 80052f8:	2303      	movs	r3, #3
 80052fa:	e00f      	b.n	800531c <UART_WaitOnFlagUntilTimeout+0xee>
  while ((__HAL_UART_GET_FLAG(huart, Flag) ? SET : RESET) == Status)
 80052fc:	68fb      	ldr	r3, [r7, #12]
 80052fe:	681b      	ldr	r3, [r3, #0]
 8005300:	69da      	ldr	r2, [r3, #28]
 8005302:	68bb      	ldr	r3, [r7, #8]
 8005304:	4013      	ands	r3, r2
 8005306:	68ba      	ldr	r2, [r7, #8]
 8005308:	429a      	cmp	r2, r3
 800530a:	bf0c      	ite	eq
 800530c:	2301      	moveq	r3, #1
 800530e:	2300      	movne	r3, #0
 8005310:	b2db      	uxtb	r3, r3
 8005312:	461a      	mov	r2, r3
 8005314:	79fb      	ldrb	r3, [r7, #7]
 8005316:	429a      	cmp	r2, r3
 8005318:	d092      	beq.n	8005240 <UART_WaitOnFlagUntilTimeout+0x12>
        }
      }
    }
  }
  return HAL_OK;
 800531a:	2300      	movs	r3, #0
}
 800531c:	4618      	mov	r0, r3
 800531e:	3710      	adds	r7, #16
 8005320:	46bd      	mov	sp, r7
 8005322:	bd80      	pop	{r7, pc}

08005324 <findslot>:
 8005324:	4b0a      	ldr	r3, [pc, #40]	; (8005350 <findslot+0x2c>)
 8005326:	b510      	push	{r4, lr}
 8005328:	4604      	mov	r4, r0
 800532a:	6818      	ldr	r0, [r3, #0]
 800532c:	b118      	cbz	r0, 8005336 <findslot+0x12>
 800532e:	6983      	ldr	r3, [r0, #24]
 8005330:	b90b      	cbnz	r3, 8005336 <findslot+0x12>
 8005332:	f000 f9a1 	bl	8005678 <__sinit>
 8005336:	2c13      	cmp	r4, #19
 8005338:	d807      	bhi.n	800534a <findslot+0x26>
 800533a:	4806      	ldr	r0, [pc, #24]	; (8005354 <findslot+0x30>)
 800533c:	f850 2034 	ldr.w	r2, [r0, r4, lsl #3]
 8005340:	3201      	adds	r2, #1
 8005342:	d002      	beq.n	800534a <findslot+0x26>
 8005344:	eb00 00c4 	add.w	r0, r0, r4, lsl #3
 8005348:	bd10      	pop	{r4, pc}
 800534a:	2000      	movs	r0, #0
 800534c:	e7fc      	b.n	8005348 <findslot+0x24>
 800534e:	bf00      	nop
 8005350:	200000d4 	.word	0x200000d4
 8005354:	200005b0 	.word	0x200005b0

08005358 <error>:
 8005358:	b5f8      	push	{r3, r4, r5, r6, r7, lr}
 800535a:	4604      	mov	r4, r0
 800535c:	f000 f92e 	bl	80055bc <__errno>
 8005360:	2613      	movs	r6, #19
 8005362:	4605      	mov	r5, r0
 8005364:	2700      	movs	r7, #0
 8005366:	4630      	mov	r0, r6
 8005368:	4639      	mov	r1, r7
 800536a:	beab      	bkpt	0x00ab
 800536c:	4606      	mov	r6, r0
 800536e:	602e      	str	r6, [r5, #0]
 8005370:	4620      	mov	r0, r4
 8005372:	bdf8      	pop	{r3, r4, r5, r6, r7, pc}

08005374 <checkerror>:
 8005374:	1c43      	adds	r3, r0, #1
 8005376:	d101      	bne.n	800537c <checkerror+0x8>
 8005378:	f7ff bfee 	b.w	8005358 <error>
 800537c:	4770      	bx	lr

0800537e <_swiread>:
 800537e:	b530      	push	{r4, r5, lr}
 8005380:	b085      	sub	sp, #20
 8005382:	e9cd 0101 	strd	r0, r1, [sp, #4]
 8005386:	9203      	str	r2, [sp, #12]
 8005388:	2406      	movs	r4, #6
 800538a:	ad01      	add	r5, sp, #4
 800538c:	4620      	mov	r0, r4
 800538e:	4629      	mov	r1, r5
 8005390:	beab      	bkpt	0x00ab
 8005392:	4604      	mov	r4, r0
 8005394:	4620      	mov	r0, r4
 8005396:	f7ff ffed 	bl	8005374 <checkerror>
 800539a:	b005      	add	sp, #20
 800539c:	bd30      	pop	{r4, r5, pc}

0800539e <_read>:
 800539e:	b537      	push	{r0, r1, r2, r4, r5, lr}
 80053a0:	4615      	mov	r5, r2
 80053a2:	9101      	str	r1, [sp, #4]
 80053a4:	f7ff ffbe 	bl	8005324 <findslot>
 80053a8:	9901      	ldr	r1, [sp, #4]
 80053aa:	4604      	mov	r4, r0
 80053ac:	b938      	cbnz	r0, 80053be <_read+0x20>
 80053ae:	f000 f905 	bl	80055bc <__errno>
 80053b2:	2309      	movs	r3, #9
 80053b4:	6003      	str	r3, [r0, #0]
 80053b6:	f04f 30ff 	mov.w	r0, #4294967295
 80053ba:	b003      	add	sp, #12
 80053bc:	bd30      	pop	{r4, r5, pc}
 80053be:	6800      	ldr	r0, [r0, #0]
 80053c0:	462a      	mov	r2, r5
 80053c2:	f7ff ffdc 	bl	800537e <_swiread>
 80053c6:	1c43      	adds	r3, r0, #1
 80053c8:	d0f7      	beq.n	80053ba <_read+0x1c>
 80053ca:	6863      	ldr	r3, [r4, #4]
 80053cc:	1a2a      	subs	r2, r5, r0
 80053ce:	4413      	add	r3, r2
 80053d0:	6063      	str	r3, [r4, #4]
 80053d2:	4610      	mov	r0, r2
 80053d4:	e7f1      	b.n	80053ba <_read+0x1c>

080053d6 <_swilseek>:
 80053d6:	b5f7      	push	{r0, r1, r2, r4, r5, r6, r7, lr}
 80053d8:	460c      	mov	r4, r1
 80053da:	4616      	mov	r6, r2
 80053dc:	f7ff ffa2 	bl	8005324 <findslot>
 80053e0:	4605      	mov	r5, r0
 80053e2:	b940      	cbnz	r0, 80053f6 <_swilseek+0x20>
 80053e4:	f000 f8ea 	bl	80055bc <__errno>
 80053e8:	2309      	movs	r3, #9
 80053ea:	6003      	str	r3, [r0, #0]
 80053ec:	f04f 34ff 	mov.w	r4, #4294967295
 80053f0:	4620      	mov	r0, r4
 80053f2:	b003      	add	sp, #12
 80053f4:	bdf0      	pop	{r4, r5, r6, r7, pc}
 80053f6:	2e02      	cmp	r6, #2
 80053f8:	d903      	bls.n	8005402 <_swilseek+0x2c>
 80053fa:	f000 f8df 	bl	80055bc <__errno>
 80053fe:	2316      	movs	r3, #22
 8005400:	e7f3      	b.n	80053ea <_swilseek+0x14>
 8005402:	2e01      	cmp	r6, #1
 8005404:	d112      	bne.n	800542c <_swilseek+0x56>
 8005406:	6843      	ldr	r3, [r0, #4]
 8005408:	18e4      	adds	r4, r4, r3
 800540a:	d4f6      	bmi.n	80053fa <_swilseek+0x24>
 800540c:	682b      	ldr	r3, [r5, #0]
 800540e:	260a      	movs	r6, #10
 8005410:	e9cd 3400 	strd	r3, r4, [sp]
 8005414:	466f      	mov	r7, sp
 8005416:	4630      	mov	r0, r6
 8005418:	4639      	mov	r1, r7
 800541a:	beab      	bkpt	0x00ab
 800541c:	4606      	mov	r6, r0
 800541e:	4630      	mov	r0, r6
 8005420:	f7ff ffa8 	bl	8005374 <checkerror>
 8005424:	2800      	cmp	r0, #0
 8005426:	dbe1      	blt.n	80053ec <_swilseek+0x16>
 8005428:	606c      	str	r4, [r5, #4]
 800542a:	e7e1      	b.n	80053f0 <_swilseek+0x1a>
 800542c:	2e02      	cmp	r6, #2
 800542e:	d1ed      	bne.n	800540c <_swilseek+0x36>
 8005430:	6803      	ldr	r3, [r0, #0]
 8005432:	9300      	str	r3, [sp, #0]
 8005434:	260c      	movs	r6, #12
 8005436:	466f      	mov	r7, sp
 8005438:	4630      	mov	r0, r6
 800543a:	4639      	mov	r1, r7
 800543c:	beab      	bkpt	0x00ab
 800543e:	4606      	mov	r6, r0
 8005440:	4630      	mov	r0, r6
 8005442:	f7ff ff97 	bl	8005374 <checkerror>
 8005446:	1c43      	adds	r3, r0, #1
 8005448:	d0d0      	beq.n	80053ec <_swilseek+0x16>
 800544a:	4404      	add	r4, r0
 800544c:	e7de      	b.n	800540c <_swilseek+0x36>

0800544e <_lseek>:
 800544e:	f7ff bfc2 	b.w	80053d6 <_swilseek>

08005452 <_swiwrite>:
 8005452:	b530      	push	{r4, r5, lr}
 8005454:	b085      	sub	sp, #20
 8005456:	e9cd 0101 	strd	r0, r1, [sp, #4]
 800545a:	9203      	str	r2, [sp, #12]
 800545c:	2405      	movs	r4, #5
 800545e:	ad01      	add	r5, sp, #4
 8005460:	4620      	mov	r0, r4
 8005462:	4629      	mov	r1, r5
 8005464:	beab      	bkpt	0x00ab
 8005466:	4604      	mov	r4, r0
 8005468:	4620      	mov	r0, r4
 800546a:	f7ff ff83 	bl	8005374 <checkerror>
 800546e:	b005      	add	sp, #20
 8005470:	bd30      	pop	{r4, r5, pc}

08005472 <_write>:
 8005472:	b537      	push	{r0, r1, r2, r4, r5, lr}
 8005474:	4615      	mov	r5, r2
 8005476:	9101      	str	r1, [sp, #4]
 8005478:	f7ff ff54 	bl	8005324 <findslot>
 800547c:	9901      	ldr	r1, [sp, #4]
 800547e:	4604      	mov	r4, r0
 8005480:	b930      	cbnz	r0, 8005490 <_write+0x1e>
 8005482:	f000 f89b 	bl	80055bc <__errno>
 8005486:	2309      	movs	r3, #9
 8005488:	6003      	str	r3, [r0, #0]
 800548a:	f04f 30ff 	mov.w	r0, #4294967295
 800548e:	e012      	b.n	80054b6 <_write+0x44>
 8005490:	6800      	ldr	r0, [r0, #0]
 8005492:	462a      	mov	r2, r5
 8005494:	f7ff ffdd 	bl	8005452 <_swiwrite>
 8005498:	2800      	cmp	r0, #0
 800549a:	dbf6      	blt.n	800548a <_write+0x18>
 800549c:	6862      	ldr	r2, [r4, #4]
 800549e:	1a2b      	subs	r3, r5, r0
 80054a0:	441a      	add	r2, r3
 80054a2:	42a8      	cmp	r0, r5
 80054a4:	6062      	str	r2, [r4, #4]
 80054a6:	d105      	bne.n	80054b4 <_write+0x42>
 80054a8:	2000      	movs	r0, #0
 80054aa:	b003      	add	sp, #12
 80054ac:	e8bd 4030 	ldmia.w	sp!, {r4, r5, lr}
 80054b0:	f7ff bf52 	b.w	8005358 <error>
 80054b4:	4618      	mov	r0, r3
 80054b6:	b003      	add	sp, #12
 80054b8:	bd30      	pop	{r4, r5, pc}

080054ba <_swiclose>:
 80054ba:	b537      	push	{r0, r1, r2, r4, r5, lr}
 80054bc:	2402      	movs	r4, #2
 80054be:	9001      	str	r0, [sp, #4]
 80054c0:	ad01      	add	r5, sp, #4
 80054c2:	4620      	mov	r0, r4
 80054c4:	4629      	mov	r1, r5
 80054c6:	beab      	bkpt	0x00ab
 80054c8:	4604      	mov	r4, r0
 80054ca:	4620      	mov	r0, r4
 80054cc:	f7ff ff52 	bl	8005374 <checkerror>
 80054d0:	b003      	add	sp, #12
 80054d2:	bd30      	pop	{r4, r5, pc}

080054d4 <_close>:
 80054d4:	b538      	push	{r3, r4, r5, lr}
 80054d6:	4605      	mov	r5, r0
 80054d8:	f7ff ff24 	bl	8005324 <findslot>
 80054dc:	4604      	mov	r4, r0
 80054de:	b930      	cbnz	r0, 80054ee <_close+0x1a>
 80054e0:	f000 f86c 	bl	80055bc <__errno>
 80054e4:	2309      	movs	r3, #9
 80054e6:	6003      	str	r3, [r0, #0]
 80054e8:	f04f 30ff 	mov.w	r0, #4294967295
 80054ec:	bd38      	pop	{r3, r4, r5, pc}
 80054ee:	3d01      	subs	r5, #1
 80054f0:	2d01      	cmp	r5, #1
 80054f2:	d809      	bhi.n	8005508 <_close+0x34>
 80054f4:	4b09      	ldr	r3, [pc, #36]	; (800551c <_close+0x48>)
 80054f6:	689a      	ldr	r2, [r3, #8]
 80054f8:	691b      	ldr	r3, [r3, #16]
 80054fa:	429a      	cmp	r2, r3
 80054fc:	d104      	bne.n	8005508 <_close+0x34>
 80054fe:	f04f 33ff 	mov.w	r3, #4294967295
 8005502:	6003      	str	r3, [r0, #0]
 8005504:	2000      	movs	r0, #0
 8005506:	e7f1      	b.n	80054ec <_close+0x18>
 8005508:	6820      	ldr	r0, [r4, #0]
 800550a:	f7ff ffd6 	bl	80054ba <_swiclose>
 800550e:	2800      	cmp	r0, #0
 8005510:	d1ec      	bne.n	80054ec <_close+0x18>
 8005512:	f04f 33ff 	mov.w	r3, #4294967295
 8005516:	6023      	str	r3, [r4, #0]
 8005518:	e7e8      	b.n	80054ec <_close+0x18>
 800551a:	bf00      	nop
 800551c:	200005b0 	.word	0x200005b0

08005520 <_getpid>:
 8005520:	2001      	movs	r0, #1
 8005522:	4770      	bx	lr

08005524 <_swistat>:
 8005524:	b570      	push	{r4, r5, r6, lr}
 8005526:	460c      	mov	r4, r1
 8005528:	f7ff fefc 	bl	8005324 <findslot>
 800552c:	4605      	mov	r5, r0
 800552e:	b930      	cbnz	r0, 800553e <_swistat+0x1a>
 8005530:	f000 f844 	bl	80055bc <__errno>
 8005534:	2309      	movs	r3, #9
 8005536:	6003      	str	r3, [r0, #0]
 8005538:	f04f 30ff 	mov.w	r0, #4294967295
 800553c:	bd70      	pop	{r4, r5, r6, pc}
 800553e:	6863      	ldr	r3, [r4, #4]
 8005540:	f443 5300 	orr.w	r3, r3, #8192	; 0x2000
 8005544:	6063      	str	r3, [r4, #4]
 8005546:	f44f 6380 	mov.w	r3, #1024	; 0x400
 800554a:	64a3      	str	r3, [r4, #72]	; 0x48
 800554c:	260c      	movs	r6, #12
 800554e:	4630      	mov	r0, r6
 8005550:	4629      	mov	r1, r5
 8005552:	beab      	bkpt	0x00ab
 8005554:	4605      	mov	r5, r0
 8005556:	4628      	mov	r0, r5
 8005558:	f7ff ff0c 	bl	8005374 <checkerror>
 800555c:	1c43      	adds	r3, r0, #1
 800555e:	bf1c      	itt	ne
 8005560:	6120      	strne	r0, [r4, #16]
 8005562:	2000      	movne	r0, #0
 8005564:	e7ea      	b.n	800553c <_swistat+0x18>

08005566 <_fstat>:
 8005566:	460b      	mov	r3, r1
 8005568:	b510      	push	{r4, lr}
 800556a:	2100      	movs	r1, #0
 800556c:	4604      	mov	r4, r0
 800556e:	2258      	movs	r2, #88	; 0x58
 8005570:	4618      	mov	r0, r3
 8005572:	f000 f954 	bl	800581e <memset>
 8005576:	4601      	mov	r1, r0
 8005578:	4620      	mov	r0, r4
 800557a:	e8bd 4010 	ldmia.w	sp!, {r4, lr}
 800557e:	f7ff bfd1 	b.w	8005524 <_swistat>

08005582 <_isatty>:
 8005582:	b570      	push	{r4, r5, r6, lr}
 8005584:	f7ff fece 	bl	8005324 <findslot>
 8005588:	2509      	movs	r5, #9
 800558a:	4604      	mov	r4, r0
 800558c:	b920      	cbnz	r0, 8005598 <_isatty+0x16>
 800558e:	f000 f815 	bl	80055bc <__errno>
 8005592:	6005      	str	r5, [r0, #0]
 8005594:	4620      	mov	r0, r4
 8005596:	bd70      	pop	{r4, r5, r6, pc}
 8005598:	4628      	mov	r0, r5
 800559a:	4621      	mov	r1, r4
 800559c:	beab      	bkpt	0x00ab
 800559e:	4604      	mov	r4, r0
 80055a0:	2c01      	cmp	r4, #1
 80055a2:	d0f7      	beq.n	8005594 <_isatty+0x12>
 80055a4:	f000 f80a 	bl	80055bc <__errno>
 80055a8:	2400      	movs	r4, #0
 80055aa:	4605      	mov	r5, r0
 80055ac:	2613      	movs	r6, #19
 80055ae:	4630      	mov	r0, r6
 80055b0:	4621      	mov	r1, r4
 80055b2:	beab      	bkpt	0x00ab
 80055b4:	4606      	mov	r6, r0
 80055b6:	602e      	str	r6, [r5, #0]
 80055b8:	e7ec      	b.n	8005594 <_isatty+0x12>
	...

080055bc <__errno>:
 80055bc:	4b01      	ldr	r3, [pc, #4]	; (80055c4 <__errno+0x8>)
 80055be:	6818      	ldr	r0, [r3, #0]
 80055c0:	4770      	bx	lr
 80055c2:	bf00      	nop
 80055c4:	200000d4 	.word	0x200000d4

080055c8 <std>:
 80055c8:	2300      	movs	r3, #0
 80055ca:	b510      	push	{r4, lr}
 80055cc:	4604      	mov	r4, r0
 80055ce:	e9c0 3300 	strd	r3, r3, [r0]
 80055d2:	e9c0 3304 	strd	r3, r3, [r0, #16]
 80055d6:	6083      	str	r3, [r0, #8]
 80055d8:	8181      	strh	r1, [r0, #12]
 80055da:	6643      	str	r3, [r0, #100]	; 0x64
 80055dc:	81c2      	strh	r2, [r0, #14]
 80055de:	6183      	str	r3, [r0, #24]
 80055e0:	4619      	mov	r1, r3
 80055e2:	2208      	movs	r2, #8
 80055e4:	305c      	adds	r0, #92	; 0x5c
 80055e6:	f000 f91a 	bl	800581e <memset>
 80055ea:	4b05      	ldr	r3, [pc, #20]	; (8005600 <std+0x38>)
 80055ec:	6263      	str	r3, [r4, #36]	; 0x24
 80055ee:	4b05      	ldr	r3, [pc, #20]	; (8005604 <std+0x3c>)
 80055f0:	62a3      	str	r3, [r4, #40]	; 0x28
 80055f2:	4b05      	ldr	r3, [pc, #20]	; (8005608 <std+0x40>)
 80055f4:	62e3      	str	r3, [r4, #44]	; 0x2c
 80055f6:	4b05      	ldr	r3, [pc, #20]	; (800560c <std+0x44>)
 80055f8:	6224      	str	r4, [r4, #32]
 80055fa:	6323      	str	r3, [r4, #48]	; 0x30
 80055fc:	bd10      	pop	{r4, pc}
 80055fe:	bf00      	nop
 8005600:	080062b5 	.word	0x080062b5
 8005604:	080062d7 	.word	0x080062d7
 8005608:	0800630f 	.word	0x0800630f
 800560c:	08006333 	.word	0x08006333

08005610 <_cleanup_r>:
 8005610:	4901      	ldr	r1, [pc, #4]	; (8005618 <_cleanup_r+0x8>)
 8005612:	f000 b8af 	b.w	8005774 <_fwalk_reent>
 8005616:	bf00      	nop
 8005618:	08007341 	.word	0x08007341

0800561c <__sfmoreglue>:
 800561c:	b570      	push	{r4, r5, r6, lr}
 800561e:	2268      	movs	r2, #104	; 0x68
 8005620:	1e4d      	subs	r5, r1, #1
 8005622:	4355      	muls	r5, r2
 8005624:	460e      	mov	r6, r1
 8005626:	f105 0174 	add.w	r1, r5, #116	; 0x74
 800562a:	f000 f921 	bl	8005870 <_malloc_r>
 800562e:	4604      	mov	r4, r0
 8005630:	b140      	cbz	r0, 8005644 <__sfmoreglue+0x28>
 8005632:	2100      	movs	r1, #0
 8005634:	e9c0 1600 	strd	r1, r6, [r0]
 8005638:	300c      	adds	r0, #12
 800563a:	60a0      	str	r0, [r4, #8]
 800563c:	f105 0268 	add.w	r2, r5, #104	; 0x68
 8005640:	f000 f8ed 	bl	800581e <memset>
 8005644:	4620      	mov	r0, r4
 8005646:	bd70      	pop	{r4, r5, r6, pc}

08005648 <__sfp_lock_acquire>:
 8005648:	4801      	ldr	r0, [pc, #4]	; (8005650 <__sfp_lock_acquire+0x8>)
 800564a:	f000 b8d8 	b.w	80057fe <__retarget_lock_acquire_recursive>
 800564e:	bf00      	nop
 8005650:	20000651 	.word	0x20000651

08005654 <__sfp_lock_release>:
 8005654:	4801      	ldr	r0, [pc, #4]	; (800565c <__sfp_lock_release+0x8>)
 8005656:	f000 b8d3 	b.w	8005800 <__retarget_lock_release_recursive>
 800565a:	bf00      	nop
 800565c:	20000651 	.word	0x20000651

08005660 <__sinit_lock_acquire>:
 8005660:	4801      	ldr	r0, [pc, #4]	; (8005668 <__sinit_lock_acquire+0x8>)
 8005662:	f000 b8cc 	b.w	80057fe <__retarget_lock_acquire_recursive>
 8005666:	bf00      	nop
 8005668:	20000652 	.word	0x20000652

0800566c <__sinit_lock_release>:
 800566c:	4801      	ldr	r0, [pc, #4]	; (8005674 <__sinit_lock_release+0x8>)
 800566e:	f000 b8c7 	b.w	8005800 <__retarget_lock_release_recursive>
 8005672:	bf00      	nop
 8005674:	20000652 	.word	0x20000652

08005678 <__sinit>:
 8005678:	b510      	push	{r4, lr}
 800567a:	4604      	mov	r4, r0
 800567c:	f7ff fff0 	bl	8005660 <__sinit_lock_acquire>
 8005680:	69a3      	ldr	r3, [r4, #24]
 8005682:	b11b      	cbz	r3, 800568c <__sinit+0x14>
 8005684:	e8bd 4010 	ldmia.w	sp!, {r4, lr}
 8005688:	f7ff bff0 	b.w	800566c <__sinit_lock_release>
 800568c:	e9c4 3312 	strd	r3, r3, [r4, #72]	; 0x48
 8005690:	6523      	str	r3, [r4, #80]	; 0x50
 8005692:	4b13      	ldr	r3, [pc, #76]	; (80056e0 <__sinit+0x68>)
 8005694:	4a13      	ldr	r2, [pc, #76]	; (80056e4 <__sinit+0x6c>)
 8005696:	681b      	ldr	r3, [r3, #0]
 8005698:	62a2      	str	r2, [r4, #40]	; 0x28
 800569a:	42a3      	cmp	r3, r4
 800569c:	bf04      	itt	eq
 800569e:	2301      	moveq	r3, #1
 80056a0:	61a3      	streq	r3, [r4, #24]
 80056a2:	4620      	mov	r0, r4
 80056a4:	f000 f820 	bl	80056e8 <__sfp>
 80056a8:	6060      	str	r0, [r4, #4]
 80056aa:	4620      	mov	r0, r4
 80056ac:	f000 f81c 	bl	80056e8 <__sfp>
 80056b0:	60a0      	str	r0, [r4, #8]
 80056b2:	4620      	mov	r0, r4
 80056b4:	f000 f818 	bl	80056e8 <__sfp>
 80056b8:	2200      	movs	r2, #0
 80056ba:	60e0      	str	r0, [r4, #12]
 80056bc:	2104      	movs	r1, #4
 80056be:	6860      	ldr	r0, [r4, #4]
 80056c0:	f7ff ff82 	bl	80055c8 <std>
 80056c4:	68a0      	ldr	r0, [r4, #8]
 80056c6:	2201      	movs	r2, #1
 80056c8:	2109      	movs	r1, #9
 80056ca:	f7ff ff7d 	bl	80055c8 <std>
 80056ce:	68e0      	ldr	r0, [r4, #12]
 80056d0:	2202      	movs	r2, #2
 80056d2:	2112      	movs	r1, #18
 80056d4:	f7ff ff78 	bl	80055c8 <std>
 80056d8:	2301      	movs	r3, #1
 80056da:	61a3      	str	r3, [r4, #24]
 80056dc:	e7d2      	b.n	8005684 <__sinit+0xc>
 80056de:	bf00      	nop
 80056e0:	08008700 	.word	0x08008700
 80056e4:	08005611 	.word	0x08005611

080056e8 <__sfp>:
 80056e8:	b5f8      	push	{r3, r4, r5, r6, r7, lr}
 80056ea:	4607      	mov	r7, r0
 80056ec:	f7ff ffac 	bl	8005648 <__sfp_lock_acquire>
 80056f0:	4b1e      	ldr	r3, [pc, #120]	; (800576c <__sfp+0x84>)
 80056f2:	681e      	ldr	r6, [r3, #0]
 80056f4:	69b3      	ldr	r3, [r6, #24]
 80056f6:	b913      	cbnz	r3, 80056fe <__sfp+0x16>
 80056f8:	4630      	mov	r0, r6
 80056fa:	f7ff ffbd 	bl	8005678 <__sinit>
 80056fe:	3648      	adds	r6, #72	; 0x48
 8005700:	e9d6 3401 	ldrd	r3, r4, [r6, #4]
 8005704:	3b01      	subs	r3, #1
 8005706:	d503      	bpl.n	8005710 <__sfp+0x28>
 8005708:	6833      	ldr	r3, [r6, #0]
 800570a:	b30b      	cbz	r3, 8005750 <__sfp+0x68>
 800570c:	6836      	ldr	r6, [r6, #0]
 800570e:	e7f7      	b.n	8005700 <__sfp+0x18>
 8005710:	f9b4 500c 	ldrsh.w	r5, [r4, #12]
 8005714:	b9d5      	cbnz	r5, 800574c <__sfp+0x64>
 8005716:	4b16      	ldr	r3, [pc, #88]	; (8005770 <__sfp+0x88>)
 8005718:	60e3      	str	r3, [r4, #12]
 800571a:	f104 0058 	add.w	r0, r4, #88	; 0x58
 800571e:	6665      	str	r5, [r4, #100]	; 0x64
 8005720:	f000 f86c 	bl	80057fc <__retarget_lock_init_recursive>
 8005724:	f7ff ff96 	bl	8005654 <__sfp_lock_release>
 8005728:	e9c4 5501 	strd	r5, r5, [r4, #4]
 800572c:	e9c4 5504 	strd	r5, r5, [r4, #16]
 8005730:	6025      	str	r5, [r4, #0]
 8005732:	61a5      	str	r5, [r4, #24]
 8005734:	2208      	movs	r2, #8
 8005736:	4629      	mov	r1, r5
 8005738:	f104 005c 	add.w	r0, r4, #92	; 0x5c
 800573c:	f000 f86f 	bl	800581e <memset>
 8005740:	e9c4 550d 	strd	r5, r5, [r4, #52]	; 0x34
 8005744:	e9c4 5512 	strd	r5, r5, [r4, #72]	; 0x48
 8005748:	4620      	mov	r0, r4
 800574a:	bdf8      	pop	{r3, r4, r5, r6, r7, pc}
 800574c:	3468      	adds	r4, #104	; 0x68
 800574e:	e7d9      	b.n	8005704 <__sfp+0x1c>
 8005750:	2104      	movs	r1, #4
 8005752:	4638      	mov	r0, r7
 8005754:	f7ff ff62 	bl	800561c <__sfmoreglue>
 8005758:	4604      	mov	r4, r0
 800575a:	6030      	str	r0, [r6, #0]
 800575c:	2800      	cmp	r0, #0
 800575e:	d1d5      	bne.n	800570c <__sfp+0x24>
 8005760:	f7ff ff78 	bl	8005654 <__sfp_lock_release>
 8005764:	230c      	movs	r3, #12
 8005766:	603b      	str	r3, [r7, #0]
 8005768:	e7ee      	b.n	8005748 <__sfp+0x60>
 800576a:	bf00      	nop
 800576c:	08008700 	.word	0x08008700
 8005770:	ffff0001 	.word	0xffff0001

08005774 <_fwalk_reent>:
 8005774:	e92d 43f8 	stmdb	sp!, {r3, r4, r5, r6, r7, r8, r9, lr}
 8005778:	4606      	mov	r6, r0
 800577a:	4688      	mov	r8, r1
 800577c:	f100 0448 	add.w	r4, r0, #72	; 0x48
 8005780:	2700      	movs	r7, #0
 8005782:	e9d4 9501 	ldrd	r9, r5, [r4, #4]
 8005786:	f1b9 0901 	subs.w	r9, r9, #1
 800578a:	d505      	bpl.n	8005798 <_fwalk_reent+0x24>
 800578c:	6824      	ldr	r4, [r4, #0]
 800578e:	2c00      	cmp	r4, #0
 8005790:	d1f7      	bne.n	8005782 <_fwalk_reent+0xe>
 8005792:	4638      	mov	r0, r7
 8005794:	e8bd 83f8 	ldmia.w	sp!, {r3, r4, r5, r6, r7, r8, r9, pc}
 8005798:	89ab      	ldrh	r3, [r5, #12]
 800579a:	2b01      	cmp	r3, #1
 800579c:	d907      	bls.n	80057ae <_fwalk_reent+0x3a>
 800579e:	f9b5 300e 	ldrsh.w	r3, [r5, #14]
 80057a2:	3301      	adds	r3, #1
 80057a4:	d003      	beq.n	80057ae <_fwalk_reent+0x3a>
 80057a6:	4629      	mov	r1, r5
 80057a8:	4630      	mov	r0, r6
 80057aa:	47c0      	blx	r8
 80057ac:	4307      	orrs	r7, r0
 80057ae:	3568      	adds	r5, #104	; 0x68
 80057b0:	e7e9      	b.n	8005786 <_fwalk_reent+0x12>
	...

080057b4 <__libc_init_array>:
 80057b4:	b570      	push	{r4, r5, r6, lr}
 80057b6:	4d0d      	ldr	r5, [pc, #52]	; (80057ec <__libc_init_array+0x38>)
 80057b8:	4c0d      	ldr	r4, [pc, #52]	; (80057f0 <__libc_init_array+0x3c>)
 80057ba:	1b64      	subs	r4, r4, r5
 80057bc:	10a4      	asrs	r4, r4, #2
 80057be:	2600      	movs	r6, #0
 80057c0:	42a6      	cmp	r6, r4
 80057c2:	d109      	bne.n	80057d8 <__libc_init_array+0x24>
 80057c4:	4d0b      	ldr	r5, [pc, #44]	; (80057f4 <__libc_init_array+0x40>)
 80057c6:	4c0c      	ldr	r4, [pc, #48]	; (80057f8 <__libc_init_array+0x44>)
 80057c8:	f002 fe30 	bl	800842c <_init>
 80057cc:	1b64      	subs	r4, r4, r5
 80057ce:	10a4      	asrs	r4, r4, #2
 80057d0:	2600      	movs	r6, #0
 80057d2:	42a6      	cmp	r6, r4
 80057d4:	d105      	bne.n	80057e2 <__libc_init_array+0x2e>
 80057d6:	bd70      	pop	{r4, r5, r6, pc}
 80057d8:	f855 3b04 	ldr.w	r3, [r5], #4
 80057dc:	4798      	blx	r3
 80057de:	3601      	adds	r6, #1
 80057e0:	e7ee      	b.n	80057c0 <__libc_init_array+0xc>
 80057e2:	f855 3b04 	ldr.w	r3, [r5], #4
 80057e6:	4798      	blx	r3
 80057e8:	3601      	adds	r6, #1
 80057ea:	e7f2      	b.n	80057d2 <__libc_init_array+0x1e>
 80057ec:	08008a80 	.word	0x08008a80
 80057f0:	08008a80 	.word	0x08008a80
 80057f4:	08008a80 	.word	0x08008a80
 80057f8:	08008a84 	.word	0x08008a84

080057fc <__retarget_lock_init_recursive>:
 80057fc:	4770      	bx	lr

080057fe <__retarget_lock_acquire_recursive>:
 80057fe:	4770      	bx	lr

08005800 <__retarget_lock_release_recursive>:
 8005800:	4770      	bx	lr

08005802 <memcpy>:
 8005802:	440a      	add	r2, r1
 8005804:	4291      	cmp	r1, r2
 8005806:	f100 33ff 	add.w	r3, r0, #4294967295
 800580a:	d100      	bne.n	800580e <memcpy+0xc>
 800580c:	4770      	bx	lr
 800580e:	b510      	push	{r4, lr}
 8005810:	f811 4b01 	ldrb.w	r4, [r1], #1
 8005814:	f803 4f01 	strb.w	r4, [r3, #1]!
 8005818:	4291      	cmp	r1, r2
 800581a:	d1f9      	bne.n	8005810 <memcpy+0xe>
 800581c:	bd10      	pop	{r4, pc}

0800581e <memset>:
 800581e:	4402      	add	r2, r0
 8005820:	4603      	mov	r3, r0
 8005822:	4293      	cmp	r3, r2
 8005824:	d100      	bne.n	8005828 <memset+0xa>
 8005826:	4770      	bx	lr
 8005828:	f803 1b01 	strb.w	r1, [r3], #1
 800582c:	e7f9      	b.n	8005822 <memset+0x4>
	...

08005830 <sbrk_aligned>:
 8005830:	b570      	push	{r4, r5, r6, lr}
 8005832:	4e0e      	ldr	r6, [pc, #56]	; (800586c <sbrk_aligned+0x3c>)
 8005834:	460c      	mov	r4, r1
 8005836:	6831      	ldr	r1, [r6, #0]
 8005838:	4605      	mov	r5, r0
 800583a:	b911      	cbnz	r1, 8005842 <sbrk_aligned+0x12>
 800583c:	f000 fcf6 	bl	800622c <_sbrk_r>
 8005840:	6030      	str	r0, [r6, #0]
 8005842:	4621      	mov	r1, r4
 8005844:	4628      	mov	r0, r5
 8005846:	f000 fcf1 	bl	800622c <_sbrk_r>
 800584a:	1c43      	adds	r3, r0, #1
 800584c:	d00a      	beq.n	8005864 <sbrk_aligned+0x34>
 800584e:	1cc4      	adds	r4, r0, #3
 8005850:	f024 0403 	bic.w	r4, r4, #3
 8005854:	42a0      	cmp	r0, r4
 8005856:	d007      	beq.n	8005868 <sbrk_aligned+0x38>
 8005858:	1a21      	subs	r1, r4, r0
 800585a:	4628      	mov	r0, r5
 800585c:	f000 fce6 	bl	800622c <_sbrk_r>
 8005860:	3001      	adds	r0, #1
 8005862:	d101      	bne.n	8005868 <sbrk_aligned+0x38>
 8005864:	f04f 34ff 	mov.w	r4, #4294967295
 8005868:	4620      	mov	r0, r4
 800586a:	bd70      	pop	{r4, r5, r6, pc}
 800586c:	20000658 	.word	0x20000658

08005870 <_malloc_r>:
 8005870:	e92d 41f0 	stmdb	sp!, {r4, r5, r6, r7, r8, lr}
 8005874:	1ccd      	adds	r5, r1, #3
 8005876:	f025 0503 	bic.w	r5, r5, #3
 800587a:	3508      	adds	r5, #8
 800587c:	2d0c      	cmp	r5, #12
 800587e:	bf38      	it	cc
 8005880:	250c      	movcc	r5, #12
 8005882:	2d00      	cmp	r5, #0
 8005884:	4607      	mov	r7, r0
 8005886:	db01      	blt.n	800588c <_malloc_r+0x1c>
 8005888:	42a9      	cmp	r1, r5
 800588a:	d905      	bls.n	8005898 <_malloc_r+0x28>
 800588c:	230c      	movs	r3, #12
 800588e:	603b      	str	r3, [r7, #0]
 8005890:	2600      	movs	r6, #0
 8005892:	4630      	mov	r0, r6
 8005894:	e8bd 81f0 	ldmia.w	sp!, {r4, r5, r6, r7, r8, pc}
 8005898:	4e2e      	ldr	r6, [pc, #184]	; (8005954 <_malloc_r+0xe4>)
 800589a:	f001 fe23 	bl	80074e4 <__malloc_lock>
 800589e:	6833      	ldr	r3, [r6, #0]
 80058a0:	461c      	mov	r4, r3
 80058a2:	bb34      	cbnz	r4, 80058f2 <_malloc_r+0x82>
 80058a4:	4629      	mov	r1, r5
 80058a6:	4638      	mov	r0, r7
 80058a8:	f7ff ffc2 	bl	8005830 <sbrk_aligned>
 80058ac:	1c43      	adds	r3, r0, #1
 80058ae:	4604      	mov	r4, r0
 80058b0:	d14d      	bne.n	800594e <_malloc_r+0xde>
 80058b2:	6834      	ldr	r4, [r6, #0]
 80058b4:	4626      	mov	r6, r4
 80058b6:	2e00      	cmp	r6, #0
 80058b8:	d140      	bne.n	800593c <_malloc_r+0xcc>
 80058ba:	6823      	ldr	r3, [r4, #0]
 80058bc:	4631      	mov	r1, r6
 80058be:	4638      	mov	r0, r7
 80058c0:	eb04 0803 	add.w	r8, r4, r3
 80058c4:	f000 fcb2 	bl	800622c <_sbrk_r>
 80058c8:	4580      	cmp	r8, r0
 80058ca:	d13a      	bne.n	8005942 <_malloc_r+0xd2>
 80058cc:	6821      	ldr	r1, [r4, #0]
 80058ce:	3503      	adds	r5, #3
 80058d0:	1a6d      	subs	r5, r5, r1
 80058d2:	f025 0503 	bic.w	r5, r5, #3
 80058d6:	3508      	adds	r5, #8
 80058d8:	2d0c      	cmp	r5, #12
 80058da:	bf38      	it	cc
 80058dc:	250c      	movcc	r5, #12
 80058de:	4629      	mov	r1, r5
 80058e0:	4638      	mov	r0, r7
 80058e2:	f7ff ffa5 	bl	8005830 <sbrk_aligned>
 80058e6:	3001      	adds	r0, #1
 80058e8:	d02b      	beq.n	8005942 <_malloc_r+0xd2>
 80058ea:	6823      	ldr	r3, [r4, #0]
 80058ec:	442b      	add	r3, r5
 80058ee:	6023      	str	r3, [r4, #0]
 80058f0:	e00e      	b.n	8005910 <_malloc_r+0xa0>
 80058f2:	6822      	ldr	r2, [r4, #0]
 80058f4:	1b52      	subs	r2, r2, r5
 80058f6:	d41e      	bmi.n	8005936 <_malloc_r+0xc6>
 80058f8:	2a0b      	cmp	r2, #11
 80058fa:	d916      	bls.n	800592a <_malloc_r+0xba>
 80058fc:	1961      	adds	r1, r4, r5
 80058fe:	42a3      	cmp	r3, r4
 8005900:	6025      	str	r5, [r4, #0]
 8005902:	bf18      	it	ne
 8005904:	6059      	strne	r1, [r3, #4]
 8005906:	6863      	ldr	r3, [r4, #4]
 8005908:	bf08      	it	eq
 800590a:	6031      	streq	r1, [r6, #0]
 800590c:	5162      	str	r2, [r4, r5]
 800590e:	604b      	str	r3, [r1, #4]
 8005910:	4638      	mov	r0, r7
 8005912:	f104 060b 	add.w	r6, r4, #11
 8005916:	f001 fdeb 	bl	80074f0 <__malloc_unlock>
 800591a:	f026 0607 	bic.w	r6, r6, #7
 800591e:	1d23      	adds	r3, r4, #4
 8005920:	1af2      	subs	r2, r6, r3
 8005922:	d0b6      	beq.n	8005892 <_malloc_r+0x22>
 8005924:	1b9b      	subs	r3, r3, r6
 8005926:	50a3      	str	r3, [r4, r2]
 8005928:	e7b3      	b.n	8005892 <_malloc_r+0x22>
 800592a:	6862      	ldr	r2, [r4, #4]
 800592c:	42a3      	cmp	r3, r4
 800592e:	bf0c      	ite	eq
 8005930:	6032      	streq	r2, [r6, #0]
 8005932:	605a      	strne	r2, [r3, #4]
 8005934:	e7ec      	b.n	8005910 <_malloc_r+0xa0>
 8005936:	4623      	mov	r3, r4
 8005938:	6864      	ldr	r4, [r4, #4]
 800593a:	e7b2      	b.n	80058a2 <_malloc_r+0x32>
 800593c:	4634      	mov	r4, r6
 800593e:	6876      	ldr	r6, [r6, #4]
 8005940:	e7b9      	b.n	80058b6 <_malloc_r+0x46>
 8005942:	230c      	movs	r3, #12
 8005944:	603b      	str	r3, [r7, #0]
 8005946:	4638      	mov	r0, r7
 8005948:	f001 fdd2 	bl	80074f0 <__malloc_unlock>
 800594c:	e7a1      	b.n	8005892 <_malloc_r+0x22>
 800594e:	6025      	str	r5, [r4, #0]
 8005950:	e7de      	b.n	8005910 <_malloc_r+0xa0>
 8005952:	bf00      	nop
 8005954:	20000654 	.word	0x20000654

08005958 <__cvt>:
 8005958:	e92d 47ff 	stmdb	sp!, {r0, r1, r2, r3, r4, r5, r6, r7, r8, r9, sl, lr}
 800595c:	ec55 4b10 	vmov	r4, r5, d0
 8005960:	2d00      	cmp	r5, #0
 8005962:	460e      	mov	r6, r1
 8005964:	4619      	mov	r1, r3
 8005966:	462b      	mov	r3, r5
 8005968:	bfbb      	ittet	lt
 800596a:	f105 4300 	addlt.w	r3, r5, #2147483648	; 0x80000000
 800596e:	461d      	movlt	r5, r3
 8005970:	2300      	movge	r3, #0
 8005972:	232d      	movlt	r3, #45	; 0x2d
 8005974:	700b      	strb	r3, [r1, #0]
 8005976:	9b0d      	ldr	r3, [sp, #52]	; 0x34
 8005978:	f8dd a030 	ldr.w	sl, [sp, #48]	; 0x30
 800597c:	4691      	mov	r9, r2
 800597e:	f023 0820 	bic.w	r8, r3, #32
 8005982:	bfbc      	itt	lt
 8005984:	4622      	movlt	r2, r4
 8005986:	4614      	movlt	r4, r2
 8005988:	f1b8 0f46 	cmp.w	r8, #70	; 0x46
 800598c:	d005      	beq.n	800599a <__cvt+0x42>
 800598e:	f1b8 0f45 	cmp.w	r8, #69	; 0x45
 8005992:	d100      	bne.n	8005996 <__cvt+0x3e>
 8005994:	3601      	adds	r6, #1
 8005996:	2102      	movs	r1, #2
 8005998:	e000      	b.n	800599c <__cvt+0x44>
 800599a:	2103      	movs	r1, #3
 800599c:	ab03      	add	r3, sp, #12
 800599e:	9301      	str	r3, [sp, #4]
 80059a0:	ab02      	add	r3, sp, #8
 80059a2:	9300      	str	r3, [sp, #0]
 80059a4:	ec45 4b10 	vmov	d0, r4, r5
 80059a8:	4653      	mov	r3, sl
 80059aa:	4632      	mov	r2, r6
 80059ac:	f000 fe54 	bl	8006658 <_dtoa_r>
 80059b0:	f1b8 0f47 	cmp.w	r8, #71	; 0x47
 80059b4:	4607      	mov	r7, r0
 80059b6:	d102      	bne.n	80059be <__cvt+0x66>
 80059b8:	f019 0f01 	tst.w	r9, #1
 80059bc:	d022      	beq.n	8005a04 <__cvt+0xac>
 80059be:	f1b8 0f46 	cmp.w	r8, #70	; 0x46
 80059c2:	eb07 0906 	add.w	r9, r7, r6
 80059c6:	d110      	bne.n	80059ea <__cvt+0x92>
 80059c8:	783b      	ldrb	r3, [r7, #0]
 80059ca:	2b30      	cmp	r3, #48	; 0x30
 80059cc:	d10a      	bne.n	80059e4 <__cvt+0x8c>
 80059ce:	2200      	movs	r2, #0
 80059d0:	2300      	movs	r3, #0
 80059d2:	4620      	mov	r0, r4
 80059d4:	4629      	mov	r1, r5
 80059d6:	f7fb f877 	bl	8000ac8 <__aeabi_dcmpeq>
 80059da:	b918      	cbnz	r0, 80059e4 <__cvt+0x8c>
 80059dc:	f1c6 0601 	rsb	r6, r6, #1
 80059e0:	f8ca 6000 	str.w	r6, [sl]
 80059e4:	f8da 3000 	ldr.w	r3, [sl]
 80059e8:	4499      	add	r9, r3
 80059ea:	2200      	movs	r2, #0
 80059ec:	2300      	movs	r3, #0
 80059ee:	4620      	mov	r0, r4
 80059f0:	4629      	mov	r1, r5
 80059f2:	f7fb f869 	bl	8000ac8 <__aeabi_dcmpeq>
 80059f6:	b108      	cbz	r0, 80059fc <__cvt+0xa4>
 80059f8:	f8cd 900c 	str.w	r9, [sp, #12]
 80059fc:	2230      	movs	r2, #48	; 0x30
 80059fe:	9b03      	ldr	r3, [sp, #12]
 8005a00:	454b      	cmp	r3, r9
 8005a02:	d307      	bcc.n	8005a14 <__cvt+0xbc>
 8005a04:	9b03      	ldr	r3, [sp, #12]
 8005a06:	9a0e      	ldr	r2, [sp, #56]	; 0x38
 8005a08:	1bdb      	subs	r3, r3, r7
 8005a0a:	4638      	mov	r0, r7
 8005a0c:	6013      	str	r3, [r2, #0]
 8005a0e:	b004      	add	sp, #16
 8005a10:	e8bd 87f0 	ldmia.w	sp!, {r4, r5, r6, r7, r8, r9, sl, pc}
 8005a14:	1c59      	adds	r1, r3, #1
 8005a16:	9103      	str	r1, [sp, #12]
 8005a18:	701a      	strb	r2, [r3, #0]
 8005a1a:	e7f0      	b.n	80059fe <__cvt+0xa6>

08005a1c <__exponent>:
 8005a1c:	b5f7      	push	{r0, r1, r2, r4, r5, r6, r7, lr}
 8005a1e:	4603      	mov	r3, r0
 8005a20:	2900      	cmp	r1, #0
 8005a22:	bfb8      	it	lt
 8005a24:	4249      	neglt	r1, r1
 8005a26:	f803 2b02 	strb.w	r2, [r3], #2
 8005a2a:	bfb4      	ite	lt
 8005a2c:	222d      	movlt	r2, #45	; 0x2d
 8005a2e:	222b      	movge	r2, #43	; 0x2b
 8005a30:	2909      	cmp	r1, #9
 8005a32:	7042      	strb	r2, [r0, #1]
 8005a34:	dd2a      	ble.n	8005a8c <__exponent+0x70>
 8005a36:	f10d 0407 	add.w	r4, sp, #7
 8005a3a:	46a4      	mov	ip, r4
 8005a3c:	270a      	movs	r7, #10
 8005a3e:	46a6      	mov	lr, r4
 8005a40:	460a      	mov	r2, r1
 8005a42:	fb91 f6f7 	sdiv	r6, r1, r7
 8005a46:	fb07 1516 	mls	r5, r7, r6, r1
 8005a4a:	3530      	adds	r5, #48	; 0x30
 8005a4c:	2a63      	cmp	r2, #99	; 0x63
 8005a4e:	f104 34ff 	add.w	r4, r4, #4294967295
 8005a52:	f80e 5c01 	strb.w	r5, [lr, #-1]
 8005a56:	4631      	mov	r1, r6
 8005a58:	dcf1      	bgt.n	8005a3e <__exponent+0x22>
 8005a5a:	3130      	adds	r1, #48	; 0x30
 8005a5c:	f1ae 0502 	sub.w	r5, lr, #2
 8005a60:	f804 1c01 	strb.w	r1, [r4, #-1]
 8005a64:	1c44      	adds	r4, r0, #1
 8005a66:	4629      	mov	r1, r5
 8005a68:	4561      	cmp	r1, ip
 8005a6a:	d30a      	bcc.n	8005a82 <__exponent+0x66>
 8005a6c:	f10d 0209 	add.w	r2, sp, #9
 8005a70:	eba2 020e 	sub.w	r2, r2, lr
 8005a74:	4565      	cmp	r5, ip
 8005a76:	bf88      	it	hi
 8005a78:	2200      	movhi	r2, #0
 8005a7a:	4413      	add	r3, r2
 8005a7c:	1a18      	subs	r0, r3, r0
 8005a7e:	b003      	add	sp, #12
 8005a80:	bdf0      	pop	{r4, r5, r6, r7, pc}
 8005a82:	f811 2b01 	ldrb.w	r2, [r1], #1
 8005a86:	f804 2f01 	strb.w	r2, [r4, #1]!
 8005a8a:	e7ed      	b.n	8005a68 <__exponent+0x4c>
 8005a8c:	2330      	movs	r3, #48	; 0x30
 8005a8e:	3130      	adds	r1, #48	; 0x30
 8005a90:	7083      	strb	r3, [r0, #2]
 8005a92:	70c1      	strb	r1, [r0, #3]
 8005a94:	1d03      	adds	r3, r0, #4
 8005a96:	e7f1      	b.n	8005a7c <__exponent+0x60>

08005a98 <_printf_float>:
 8005a98:	e92d 4ff0 	stmdb	sp!, {r4, r5, r6, r7, r8, r9, sl, fp, lr}
 8005a9c:	ed2d 8b02 	vpush	{d8}
 8005aa0:	b08d      	sub	sp, #52	; 0x34
 8005aa2:	460c      	mov	r4, r1
 8005aa4:	f8dd 8060 	ldr.w	r8, [sp, #96]	; 0x60
 8005aa8:	4616      	mov	r6, r2
 8005aaa:	461f      	mov	r7, r3
 8005aac:	4605      	mov	r5, r0
 8005aae:	f001 fc95 	bl	80073dc <_localeconv_r>
 8005ab2:	f8d0 a000 	ldr.w	sl, [r0]
 8005ab6:	4650      	mov	r0, sl
 8005ab8:	f7fa fb8a 	bl	80001d0 <strlen>
 8005abc:	2300      	movs	r3, #0
 8005abe:	930a      	str	r3, [sp, #40]	; 0x28
 8005ac0:	6823      	ldr	r3, [r4, #0]
 8005ac2:	9305      	str	r3, [sp, #20]
 8005ac4:	f8d8 3000 	ldr.w	r3, [r8]
 8005ac8:	f894 b018 	ldrb.w	fp, [r4, #24]
 8005acc:	3307      	adds	r3, #7
 8005ace:	f023 0307 	bic.w	r3, r3, #7
 8005ad2:	f103 0208 	add.w	r2, r3, #8
 8005ad6:	f8c8 2000 	str.w	r2, [r8]
 8005ada:	e9d3 2300 	ldrd	r2, r3, [r3]
 8005ade:	e9c4 2312 	strd	r2, r3, [r4, #72]	; 0x48
 8005ae2:	e9d4 8912 	ldrd	r8, r9, [r4, #72]	; 0x48
 8005ae6:	f029 4300 	bic.w	r3, r9, #2147483648	; 0x80000000
 8005aea:	9307      	str	r3, [sp, #28]
 8005aec:	f8cd 8018 	str.w	r8, [sp, #24]
 8005af0:	ee08 0a10 	vmov	s16, r0
 8005af4:	4b9f      	ldr	r3, [pc, #636]	; (8005d74 <_printf_float+0x2dc>)
 8005af6:	e9dd 0106 	ldrd	r0, r1, [sp, #24]
 8005afa:	f04f 32ff 	mov.w	r2, #4294967295
 8005afe:	f7fb f815 	bl	8000b2c <__aeabi_dcmpun>
 8005b02:	bb88      	cbnz	r0, 8005b68 <_printf_float+0xd0>
 8005b04:	e9dd 0106 	ldrd	r0, r1, [sp, #24]
 8005b08:	4b9a      	ldr	r3, [pc, #616]	; (8005d74 <_printf_float+0x2dc>)
 8005b0a:	f04f 32ff 	mov.w	r2, #4294967295
 8005b0e:	f7fa ffef 	bl	8000af0 <__aeabi_dcmple>
 8005b12:	bb48      	cbnz	r0, 8005b68 <_printf_float+0xd0>
 8005b14:	2200      	movs	r2, #0
 8005b16:	2300      	movs	r3, #0
 8005b18:	4640      	mov	r0, r8
 8005b1a:	4649      	mov	r1, r9
 8005b1c:	f7fa ffde 	bl	8000adc <__aeabi_dcmplt>
 8005b20:	b110      	cbz	r0, 8005b28 <_printf_float+0x90>
 8005b22:	232d      	movs	r3, #45	; 0x2d
 8005b24:	f884 3043 	strb.w	r3, [r4, #67]	; 0x43
 8005b28:	4b93      	ldr	r3, [pc, #588]	; (8005d78 <_printf_float+0x2e0>)
 8005b2a:	4894      	ldr	r0, [pc, #592]	; (8005d7c <_printf_float+0x2e4>)
 8005b2c:	f1bb 0f47 	cmp.w	fp, #71	; 0x47
 8005b30:	bf94      	ite	ls
 8005b32:	4698      	movls	r8, r3
 8005b34:	4680      	movhi	r8, r0
 8005b36:	2303      	movs	r3, #3
 8005b38:	6123      	str	r3, [r4, #16]
 8005b3a:	9b05      	ldr	r3, [sp, #20]
 8005b3c:	f023 0204 	bic.w	r2, r3, #4
 8005b40:	6022      	str	r2, [r4, #0]
 8005b42:	f04f 0900 	mov.w	r9, #0
 8005b46:	9700      	str	r7, [sp, #0]
 8005b48:	4633      	mov	r3, r6
 8005b4a:	aa0b      	add	r2, sp, #44	; 0x2c
 8005b4c:	4621      	mov	r1, r4
 8005b4e:	4628      	mov	r0, r5
 8005b50:	f000 f9d8 	bl	8005f04 <_printf_common>
 8005b54:	3001      	adds	r0, #1
 8005b56:	f040 8090 	bne.w	8005c7a <_printf_float+0x1e2>
 8005b5a:	f04f 30ff 	mov.w	r0, #4294967295
 8005b5e:	b00d      	add	sp, #52	; 0x34
 8005b60:	ecbd 8b02 	vpop	{d8}
 8005b64:	e8bd 8ff0 	ldmia.w	sp!, {r4, r5, r6, r7, r8, r9, sl, fp, pc}
 8005b68:	4642      	mov	r2, r8
 8005b6a:	464b      	mov	r3, r9
 8005b6c:	4640      	mov	r0, r8
 8005b6e:	4649      	mov	r1, r9
 8005b70:	f7fa ffdc 	bl	8000b2c <__aeabi_dcmpun>
 8005b74:	b140      	cbz	r0, 8005b88 <_printf_float+0xf0>
 8005b76:	464b      	mov	r3, r9
 8005b78:	2b00      	cmp	r3, #0
 8005b7a:	bfbc      	itt	lt
 8005b7c:	232d      	movlt	r3, #45	; 0x2d
 8005b7e:	f884 3043 	strblt.w	r3, [r4, #67]	; 0x43
 8005b82:	487f      	ldr	r0, [pc, #508]	; (8005d80 <_printf_float+0x2e8>)
 8005b84:	4b7f      	ldr	r3, [pc, #508]	; (8005d84 <_printf_float+0x2ec>)
 8005b86:	e7d1      	b.n	8005b2c <_printf_float+0x94>
 8005b88:	6863      	ldr	r3, [r4, #4]
 8005b8a:	f00b 02df 	and.w	r2, fp, #223	; 0xdf
 8005b8e:	9206      	str	r2, [sp, #24]
 8005b90:	1c5a      	adds	r2, r3, #1
 8005b92:	d13f      	bne.n	8005c14 <_printf_float+0x17c>
 8005b94:	2306      	movs	r3, #6
 8005b96:	6063      	str	r3, [r4, #4]
 8005b98:	9b05      	ldr	r3, [sp, #20]
 8005b9a:	6861      	ldr	r1, [r4, #4]
 8005b9c:	f443 6280 	orr.w	r2, r3, #1024	; 0x400
 8005ba0:	2300      	movs	r3, #0
 8005ba2:	9303      	str	r3, [sp, #12]
 8005ba4:	ab0a      	add	r3, sp, #40	; 0x28
 8005ba6:	e9cd b301 	strd	fp, r3, [sp, #4]
 8005baa:	ab09      	add	r3, sp, #36	; 0x24
 8005bac:	ec49 8b10 	vmov	d0, r8, r9
 8005bb0:	9300      	str	r3, [sp, #0]
 8005bb2:	6022      	str	r2, [r4, #0]
 8005bb4:	f10d 0323 	add.w	r3, sp, #35	; 0x23
 8005bb8:	4628      	mov	r0, r5
 8005bba:	f7ff fecd 	bl	8005958 <__cvt>
 8005bbe:	9b06      	ldr	r3, [sp, #24]
 8005bc0:	9909      	ldr	r1, [sp, #36]	; 0x24
 8005bc2:	2b47      	cmp	r3, #71	; 0x47
 8005bc4:	4680      	mov	r8, r0
 8005bc6:	d108      	bne.n	8005bda <_printf_float+0x142>
 8005bc8:	1cc8      	adds	r0, r1, #3
 8005bca:	db02      	blt.n	8005bd2 <_printf_float+0x13a>
 8005bcc:	6863      	ldr	r3, [r4, #4]
 8005bce:	4299      	cmp	r1, r3
 8005bd0:	dd41      	ble.n	8005c56 <_printf_float+0x1be>
 8005bd2:	f1ab 0b02 	sub.w	fp, fp, #2
 8005bd6:	fa5f fb8b 	uxtb.w	fp, fp
 8005bda:	f1bb 0f65 	cmp.w	fp, #101	; 0x65
 8005bde:	d820      	bhi.n	8005c22 <_printf_float+0x18a>
 8005be0:	3901      	subs	r1, #1
 8005be2:	465a      	mov	r2, fp
 8005be4:	f104 0050 	add.w	r0, r4, #80	; 0x50
 8005be8:	9109      	str	r1, [sp, #36]	; 0x24
 8005bea:	f7ff ff17 	bl	8005a1c <__exponent>
 8005bee:	9a0a      	ldr	r2, [sp, #40]	; 0x28
 8005bf0:	1813      	adds	r3, r2, r0
 8005bf2:	2a01      	cmp	r2, #1
 8005bf4:	4681      	mov	r9, r0
 8005bf6:	6123      	str	r3, [r4, #16]
 8005bf8:	dc02      	bgt.n	8005c00 <_printf_float+0x168>
 8005bfa:	6822      	ldr	r2, [r4, #0]
 8005bfc:	07d2      	lsls	r2, r2, #31
 8005bfe:	d501      	bpl.n	8005c04 <_printf_float+0x16c>
 8005c00:	3301      	adds	r3, #1
 8005c02:	6123      	str	r3, [r4, #16]
 8005c04:	f89d 3023 	ldrb.w	r3, [sp, #35]	; 0x23
 8005c08:	2b00      	cmp	r3, #0
 8005c0a:	d09c      	beq.n	8005b46 <_printf_float+0xae>
 8005c0c:	232d      	movs	r3, #45	; 0x2d
 8005c0e:	f884 3043 	strb.w	r3, [r4, #67]	; 0x43
 8005c12:	e798      	b.n	8005b46 <_printf_float+0xae>
 8005c14:	9a06      	ldr	r2, [sp, #24]
 8005c16:	2a47      	cmp	r2, #71	; 0x47
 8005c18:	d1be      	bne.n	8005b98 <_printf_float+0x100>
 8005c1a:	2b00      	cmp	r3, #0
 8005c1c:	d1bc      	bne.n	8005b98 <_printf_float+0x100>
 8005c1e:	2301      	movs	r3, #1
 8005c20:	e7b9      	b.n	8005b96 <_printf_float+0xfe>
 8005c22:	f1bb 0f66 	cmp.w	fp, #102	; 0x66
 8005c26:	d118      	bne.n	8005c5a <_printf_float+0x1c2>
 8005c28:	2900      	cmp	r1, #0
 8005c2a:	6863      	ldr	r3, [r4, #4]
 8005c2c:	dd0b      	ble.n	8005c46 <_printf_float+0x1ae>
 8005c2e:	6121      	str	r1, [r4, #16]
 8005c30:	b913      	cbnz	r3, 8005c38 <_printf_float+0x1a0>
 8005c32:	6822      	ldr	r2, [r4, #0]
 8005c34:	07d0      	lsls	r0, r2, #31
 8005c36:	d502      	bpl.n	8005c3e <_printf_float+0x1a6>
 8005c38:	3301      	adds	r3, #1
 8005c3a:	440b      	add	r3, r1
 8005c3c:	6123      	str	r3, [r4, #16]
 8005c3e:	65a1      	str	r1, [r4, #88]	; 0x58
 8005c40:	f04f 0900 	mov.w	r9, #0
 8005c44:	e7de      	b.n	8005c04 <_printf_float+0x16c>
 8005c46:	b913      	cbnz	r3, 8005c4e <_printf_float+0x1b6>
 8005c48:	6822      	ldr	r2, [r4, #0]
 8005c4a:	07d2      	lsls	r2, r2, #31
 8005c4c:	d501      	bpl.n	8005c52 <_printf_float+0x1ba>
 8005c4e:	3302      	adds	r3, #2
 8005c50:	e7f4      	b.n	8005c3c <_printf_float+0x1a4>
 8005c52:	2301      	movs	r3, #1
 8005c54:	e7f2      	b.n	8005c3c <_printf_float+0x1a4>
 8005c56:	f04f 0b67 	mov.w	fp, #103	; 0x67
 8005c5a:	9b0a      	ldr	r3, [sp, #40]	; 0x28
 8005c5c:	4299      	cmp	r1, r3
 8005c5e:	db05      	blt.n	8005c6c <_printf_float+0x1d4>
 8005c60:	6823      	ldr	r3, [r4, #0]
 8005c62:	6121      	str	r1, [r4, #16]
 8005c64:	07d8      	lsls	r0, r3, #31
 8005c66:	d5ea      	bpl.n	8005c3e <_printf_float+0x1a6>
 8005c68:	1c4b      	adds	r3, r1, #1
 8005c6a:	e7e7      	b.n	8005c3c <_printf_float+0x1a4>
 8005c6c:	2900      	cmp	r1, #0
 8005c6e:	bfd4      	ite	le
 8005c70:	f1c1 0202 	rsble	r2, r1, #2
 8005c74:	2201      	movgt	r2, #1
 8005c76:	4413      	add	r3, r2
 8005c78:	e7e0      	b.n	8005c3c <_printf_float+0x1a4>
 8005c7a:	6823      	ldr	r3, [r4, #0]
 8005c7c:	055a      	lsls	r2, r3, #21
 8005c7e:	d407      	bmi.n	8005c90 <_printf_float+0x1f8>
 8005c80:	6923      	ldr	r3, [r4, #16]
 8005c82:	4642      	mov	r2, r8
 8005c84:	4631      	mov	r1, r6
 8005c86:	4628      	mov	r0, r5
 8005c88:	47b8      	blx	r7
 8005c8a:	3001      	adds	r0, #1
 8005c8c:	d12c      	bne.n	8005ce8 <_printf_float+0x250>
 8005c8e:	e764      	b.n	8005b5a <_printf_float+0xc2>
 8005c90:	f1bb 0f65 	cmp.w	fp, #101	; 0x65
 8005c94:	f240 80e0 	bls.w	8005e58 <_printf_float+0x3c0>
 8005c98:	e9d4 0112 	ldrd	r0, r1, [r4, #72]	; 0x48
 8005c9c:	2200      	movs	r2, #0
 8005c9e:	2300      	movs	r3, #0
 8005ca0:	f7fa ff12 	bl	8000ac8 <__aeabi_dcmpeq>
 8005ca4:	2800      	cmp	r0, #0
 8005ca6:	d034      	beq.n	8005d12 <_printf_float+0x27a>
 8005ca8:	4a37      	ldr	r2, [pc, #220]	; (8005d88 <_printf_float+0x2f0>)
 8005caa:	2301      	movs	r3, #1
 8005cac:	4631      	mov	r1, r6
 8005cae:	4628      	mov	r0, r5
 8005cb0:	47b8      	blx	r7
 8005cb2:	3001      	adds	r0, #1
 8005cb4:	f43f af51 	beq.w	8005b5a <_printf_float+0xc2>
 8005cb8:	e9dd 2309 	ldrd	r2, r3, [sp, #36]	; 0x24
 8005cbc:	429a      	cmp	r2, r3
 8005cbe:	db02      	blt.n	8005cc6 <_printf_float+0x22e>
 8005cc0:	6823      	ldr	r3, [r4, #0]
 8005cc2:	07d8      	lsls	r0, r3, #31
 8005cc4:	d510      	bpl.n	8005ce8 <_printf_float+0x250>
 8005cc6:	ee18 3a10 	vmov	r3, s16
 8005cca:	4652      	mov	r2, sl
 8005ccc:	4631      	mov	r1, r6
 8005cce:	4628      	mov	r0, r5
 8005cd0:	47b8      	blx	r7
 8005cd2:	3001      	adds	r0, #1
 8005cd4:	f43f af41 	beq.w	8005b5a <_printf_float+0xc2>
 8005cd8:	f04f 0800 	mov.w	r8, #0
 8005cdc:	f104 091a 	add.w	r9, r4, #26
 8005ce0:	9b0a      	ldr	r3, [sp, #40]	; 0x28
 8005ce2:	3b01      	subs	r3, #1
 8005ce4:	4543      	cmp	r3, r8
 8005ce6:	dc09      	bgt.n	8005cfc <_printf_float+0x264>
 8005ce8:	6823      	ldr	r3, [r4, #0]
 8005cea:	079b      	lsls	r3, r3, #30
 8005cec:	f100 8105 	bmi.w	8005efa <_printf_float+0x462>
 8005cf0:	68e0      	ldr	r0, [r4, #12]
 8005cf2:	9b0b      	ldr	r3, [sp, #44]	; 0x2c
 8005cf4:	4298      	cmp	r0, r3
 8005cf6:	bfb8      	it	lt
 8005cf8:	4618      	movlt	r0, r3
 8005cfa:	e730      	b.n	8005b5e <_printf_float+0xc6>
 8005cfc:	2301      	movs	r3, #1
 8005cfe:	464a      	mov	r2, r9
 8005d00:	4631      	mov	r1, r6
 8005d02:	4628      	mov	r0, r5
 8005d04:	47b8      	blx	r7
 8005d06:	3001      	adds	r0, #1
 8005d08:	f43f af27 	beq.w	8005b5a <_printf_float+0xc2>
 8005d0c:	f108 0801 	add.w	r8, r8, #1
 8005d10:	e7e6      	b.n	8005ce0 <_printf_float+0x248>
 8005d12:	9b09      	ldr	r3, [sp, #36]	; 0x24
 8005d14:	2b00      	cmp	r3, #0
 8005d16:	dc39      	bgt.n	8005d8c <_printf_float+0x2f4>
 8005d18:	4a1b      	ldr	r2, [pc, #108]	; (8005d88 <_printf_float+0x2f0>)
 8005d1a:	2301      	movs	r3, #1
 8005d1c:	4631      	mov	r1, r6
 8005d1e:	4628      	mov	r0, r5
 8005d20:	47b8      	blx	r7
 8005d22:	3001      	adds	r0, #1
 8005d24:	f43f af19 	beq.w	8005b5a <_printf_float+0xc2>
 8005d28:	e9dd 2309 	ldrd	r2, r3, [sp, #36]	; 0x24
 8005d2c:	4313      	orrs	r3, r2
 8005d2e:	d102      	bne.n	8005d36 <_printf_float+0x29e>
 8005d30:	6823      	ldr	r3, [r4, #0]
 8005d32:	07d9      	lsls	r1, r3, #31
 8005d34:	d5d8      	bpl.n	8005ce8 <_printf_float+0x250>
 8005d36:	ee18 3a10 	vmov	r3, s16
 8005d3a:	4652      	mov	r2, sl
 8005d3c:	4631      	mov	r1, r6
 8005d3e:	4628      	mov	r0, r5
 8005d40:	47b8      	blx	r7
 8005d42:	3001      	adds	r0, #1
 8005d44:	f43f af09 	beq.w	8005b5a <_printf_float+0xc2>
 8005d48:	f04f 0900 	mov.w	r9, #0
 8005d4c:	f104 0a1a 	add.w	sl, r4, #26
 8005d50:	9b09      	ldr	r3, [sp, #36]	; 0x24
 8005d52:	425b      	negs	r3, r3
 8005d54:	454b      	cmp	r3, r9
 8005d56:	dc01      	bgt.n	8005d5c <_printf_float+0x2c4>
 8005d58:	9b0a      	ldr	r3, [sp, #40]	; 0x28
 8005d5a:	e792      	b.n	8005c82 <_printf_float+0x1ea>
 8005d5c:	2301      	movs	r3, #1
 8005d5e:	4652      	mov	r2, sl
 8005d60:	4631      	mov	r1, r6
 8005d62:	4628      	mov	r0, r5
 8005d64:	47b8      	blx	r7
 8005d66:	3001      	adds	r0, #1
 8005d68:	f43f aef7 	beq.w	8005b5a <_printf_float+0xc2>
 8005d6c:	f109 0901 	add.w	r9, r9, #1
 8005d70:	e7ee      	b.n	8005d50 <_printf_float+0x2b8>
 8005d72:	bf00      	nop
 8005d74:	7fefffff 	.word	0x7fefffff
 8005d78:	08008704 	.word	0x08008704
 8005d7c:	08008708 	.word	0x08008708
 8005d80:	08008710 	.word	0x08008710
 8005d84:	0800870c 	.word	0x0800870c
 8005d88:	08008714 	.word	0x08008714
 8005d8c:	9a0a      	ldr	r2, [sp, #40]	; 0x28
 8005d8e:	6da3      	ldr	r3, [r4, #88]	; 0x58
 8005d90:	429a      	cmp	r2, r3
 8005d92:	bfa8      	it	ge
 8005d94:	461a      	movge	r2, r3
 8005d96:	2a00      	cmp	r2, #0
 8005d98:	4691      	mov	r9, r2
 8005d9a:	dc37      	bgt.n	8005e0c <_printf_float+0x374>
 8005d9c:	f04f 0b00 	mov.w	fp, #0
 8005da0:	ea29 79e9 	bic.w	r9, r9, r9, asr #31
 8005da4:	f104 021a 	add.w	r2, r4, #26
 8005da8:	6da3      	ldr	r3, [r4, #88]	; 0x58
 8005daa:	9305      	str	r3, [sp, #20]
 8005dac:	eba3 0309 	sub.w	r3, r3, r9
 8005db0:	455b      	cmp	r3, fp
 8005db2:	dc33      	bgt.n	8005e1c <_printf_float+0x384>
 8005db4:	e9dd 2309 	ldrd	r2, r3, [sp, #36]	; 0x24
 8005db8:	429a      	cmp	r2, r3
 8005dba:	db3b      	blt.n	8005e34 <_printf_float+0x39c>
 8005dbc:	6823      	ldr	r3, [r4, #0]
 8005dbe:	07da      	lsls	r2, r3, #31
 8005dc0:	d438      	bmi.n	8005e34 <_printf_float+0x39c>
 8005dc2:	9b0a      	ldr	r3, [sp, #40]	; 0x28
 8005dc4:	9a05      	ldr	r2, [sp, #20]
 8005dc6:	9909      	ldr	r1, [sp, #36]	; 0x24
 8005dc8:	1a9a      	subs	r2, r3, r2
 8005dca:	eba3 0901 	sub.w	r9, r3, r1
 8005dce:	4591      	cmp	r9, r2
 8005dd0:	bfa8      	it	ge
 8005dd2:	4691      	movge	r9, r2
 8005dd4:	f1b9 0f00 	cmp.w	r9, #0
 8005dd8:	dc35      	bgt.n	8005e46 <_printf_float+0x3ae>
 8005dda:	f04f 0800 	mov.w	r8, #0
 8005dde:	ea29 79e9 	bic.w	r9, r9, r9, asr #31
 8005de2:	f104 0a1a 	add.w	sl, r4, #26
 8005de6:	e9dd 2309 	ldrd	r2, r3, [sp, #36]	; 0x24
 8005dea:	1a9b      	subs	r3, r3, r2
 8005dec:	eba3 0309 	sub.w	r3, r3, r9
 8005df0:	4543      	cmp	r3, r8
 8005df2:	f77f af79 	ble.w	8005ce8 <_printf_float+0x250>
 8005df6:	2301      	movs	r3, #1
 8005df8:	4652      	mov	r2, sl
 8005dfa:	4631      	mov	r1, r6
 8005dfc:	4628      	mov	r0, r5
 8005dfe:	47b8      	blx	r7
 8005e00:	3001      	adds	r0, #1
 8005e02:	f43f aeaa 	beq.w	8005b5a <_printf_float+0xc2>
 8005e06:	f108 0801 	add.w	r8, r8, #1
 8005e0a:	e7ec      	b.n	8005de6 <_printf_float+0x34e>
 8005e0c:	4613      	mov	r3, r2
 8005e0e:	4631      	mov	r1, r6
 8005e10:	4642      	mov	r2, r8
 8005e12:	4628      	mov	r0, r5
 8005e14:	47b8      	blx	r7
 8005e16:	3001      	adds	r0, #1
 8005e18:	d1c0      	bne.n	8005d9c <_printf_float+0x304>
 8005e1a:	e69e      	b.n	8005b5a <_printf_float+0xc2>
 8005e1c:	2301      	movs	r3, #1
 8005e1e:	4631      	mov	r1, r6
 8005e20:	4628      	mov	r0, r5
 8005e22:	9205      	str	r2, [sp, #20]
 8005e24:	47b8      	blx	r7
 8005e26:	3001      	adds	r0, #1
 8005e28:	f43f ae97 	beq.w	8005b5a <_printf_float+0xc2>
 8005e2c:	9a05      	ldr	r2, [sp, #20]
 8005e2e:	f10b 0b01 	add.w	fp, fp, #1
 8005e32:	e7b9      	b.n	8005da8 <_printf_float+0x310>
 8005e34:	ee18 3a10 	vmov	r3, s16
 8005e38:	4652      	mov	r2, sl
 8005e3a:	4631      	mov	r1, r6
 8005e3c:	4628      	mov	r0, r5
 8005e3e:	47b8      	blx	r7
 8005e40:	3001      	adds	r0, #1
 8005e42:	d1be      	bne.n	8005dc2 <_printf_float+0x32a>
 8005e44:	e689      	b.n	8005b5a <_printf_float+0xc2>
 8005e46:	9a05      	ldr	r2, [sp, #20]
 8005e48:	464b      	mov	r3, r9
 8005e4a:	4442      	add	r2, r8
 8005e4c:	4631      	mov	r1, r6
 8005e4e:	4628      	mov	r0, r5
 8005e50:	47b8      	blx	r7
 8005e52:	3001      	adds	r0, #1
 8005e54:	d1c1      	bne.n	8005dda <_printf_float+0x342>
 8005e56:	e680      	b.n	8005b5a <_printf_float+0xc2>
 8005e58:	9a0a      	ldr	r2, [sp, #40]	; 0x28
 8005e5a:	2a01      	cmp	r2, #1
 8005e5c:	dc01      	bgt.n	8005e62 <_printf_float+0x3ca>
 8005e5e:	07db      	lsls	r3, r3, #31
 8005e60:	d538      	bpl.n	8005ed4 <_printf_float+0x43c>
 8005e62:	2301      	movs	r3, #1
 8005e64:	4642      	mov	r2, r8
 8005e66:	4631      	mov	r1, r6
 8005e68:	4628      	mov	r0, r5
 8005e6a:	47b8      	blx	r7
 8005e6c:	3001      	adds	r0, #1
 8005e6e:	f43f ae74 	beq.w	8005b5a <_printf_float+0xc2>
 8005e72:	ee18 3a10 	vmov	r3, s16
 8005e76:	4652      	mov	r2, sl
 8005e78:	4631      	mov	r1, r6
 8005e7a:	4628      	mov	r0, r5
 8005e7c:	47b8      	blx	r7
 8005e7e:	3001      	adds	r0, #1
 8005e80:	f43f ae6b 	beq.w	8005b5a <_printf_float+0xc2>
 8005e84:	e9d4 0112 	ldrd	r0, r1, [r4, #72]	; 0x48
 8005e88:	2200      	movs	r2, #0
 8005e8a:	2300      	movs	r3, #0
 8005e8c:	f7fa fe1c 	bl	8000ac8 <__aeabi_dcmpeq>
 8005e90:	b9d8      	cbnz	r0, 8005eca <_printf_float+0x432>
 8005e92:	9b0a      	ldr	r3, [sp, #40]	; 0x28
 8005e94:	f108 0201 	add.w	r2, r8, #1
 8005e98:	3b01      	subs	r3, #1
 8005e9a:	4631      	mov	r1, r6
 8005e9c:	4628      	mov	r0, r5
 8005e9e:	47b8      	blx	r7
 8005ea0:	3001      	adds	r0, #1
 8005ea2:	d10e      	bne.n	8005ec2 <_printf_float+0x42a>
 8005ea4:	e659      	b.n	8005b5a <_printf_float+0xc2>
 8005ea6:	2301      	movs	r3, #1
 8005ea8:	4652      	mov	r2, sl
 8005eaa:	4631      	mov	r1, r6
 8005eac:	4628      	mov	r0, r5
 8005eae:	47b8      	blx	r7
 8005eb0:	3001      	adds	r0, #1
 8005eb2:	f43f ae52 	beq.w	8005b5a <_printf_float+0xc2>
 8005eb6:	f108 0801 	add.w	r8, r8, #1
 8005eba:	9b0a      	ldr	r3, [sp, #40]	; 0x28
 8005ebc:	3b01      	subs	r3, #1
 8005ebe:	4543      	cmp	r3, r8
 8005ec0:	dcf1      	bgt.n	8005ea6 <_printf_float+0x40e>
 8005ec2:	464b      	mov	r3, r9
 8005ec4:	f104 0250 	add.w	r2, r4, #80	; 0x50
 8005ec8:	e6dc      	b.n	8005c84 <_printf_float+0x1ec>
 8005eca:	f04f 0800 	mov.w	r8, #0
 8005ece:	f104 0a1a 	add.w	sl, r4, #26
 8005ed2:	e7f2      	b.n	8005eba <_printf_float+0x422>
 8005ed4:	2301      	movs	r3, #1
 8005ed6:	4642      	mov	r2, r8
 8005ed8:	e7df      	b.n	8005e9a <_printf_float+0x402>
 8005eda:	2301      	movs	r3, #1
 8005edc:	464a      	mov	r2, r9
 8005ede:	4631      	mov	r1, r6
 8005ee0:	4628      	mov	r0, r5
 8005ee2:	47b8      	blx	r7
 8005ee4:	3001      	adds	r0, #1
 8005ee6:	f43f ae38 	beq.w	8005b5a <_printf_float+0xc2>
 8005eea:	f108 0801 	add.w	r8, r8, #1
 8005eee:	68e3      	ldr	r3, [r4, #12]
 8005ef0:	990b      	ldr	r1, [sp, #44]	; 0x2c
 8005ef2:	1a5b      	subs	r3, r3, r1
 8005ef4:	4543      	cmp	r3, r8
 8005ef6:	dcf0      	bgt.n	8005eda <_printf_float+0x442>
 8005ef8:	e6fa      	b.n	8005cf0 <_printf_float+0x258>
 8005efa:	f04f 0800 	mov.w	r8, #0
 8005efe:	f104 0919 	add.w	r9, r4, #25
 8005f02:	e7f4      	b.n	8005eee <_printf_float+0x456>

08005f04 <_printf_common>:
 8005f04:	e92d 47f0 	stmdb	sp!, {r4, r5, r6, r7, r8, r9, sl, lr}
 8005f08:	4616      	mov	r6, r2
 8005f0a:	4699      	mov	r9, r3
 8005f0c:	688a      	ldr	r2, [r1, #8]
 8005f0e:	690b      	ldr	r3, [r1, #16]
 8005f10:	f8dd 8020 	ldr.w	r8, [sp, #32]
 8005f14:	4293      	cmp	r3, r2
 8005f16:	bfb8      	it	lt
 8005f18:	4613      	movlt	r3, r2
 8005f1a:	6033      	str	r3, [r6, #0]
 8005f1c:	f891 2043 	ldrb.w	r2, [r1, #67]	; 0x43
 8005f20:	4607      	mov	r7, r0
 8005f22:	460c      	mov	r4, r1
 8005f24:	b10a      	cbz	r2, 8005f2a <_printf_common+0x26>
 8005f26:	3301      	adds	r3, #1
 8005f28:	6033      	str	r3, [r6, #0]
 8005f2a:	6823      	ldr	r3, [r4, #0]
 8005f2c:	0699      	lsls	r1, r3, #26
 8005f2e:	bf42      	ittt	mi
 8005f30:	6833      	ldrmi	r3, [r6, #0]
 8005f32:	3302      	addmi	r3, #2
 8005f34:	6033      	strmi	r3, [r6, #0]
 8005f36:	6825      	ldr	r5, [r4, #0]
 8005f38:	f015 0506 	ands.w	r5, r5, #6
 8005f3c:	d106      	bne.n	8005f4c <_printf_common+0x48>
 8005f3e:	f104 0a19 	add.w	sl, r4, #25
 8005f42:	68e3      	ldr	r3, [r4, #12]
 8005f44:	6832      	ldr	r2, [r6, #0]
 8005f46:	1a9b      	subs	r3, r3, r2
 8005f48:	42ab      	cmp	r3, r5
 8005f4a:	dc26      	bgt.n	8005f9a <_printf_common+0x96>
 8005f4c:	f894 2043 	ldrb.w	r2, [r4, #67]	; 0x43
 8005f50:	1e13      	subs	r3, r2, #0
 8005f52:	6822      	ldr	r2, [r4, #0]
 8005f54:	bf18      	it	ne
 8005f56:	2301      	movne	r3, #1
 8005f58:	0692      	lsls	r2, r2, #26
 8005f5a:	d42b      	bmi.n	8005fb4 <_printf_common+0xb0>
 8005f5c:	f104 0243 	add.w	r2, r4, #67	; 0x43
 8005f60:	4649      	mov	r1, r9
 8005f62:	4638      	mov	r0, r7
 8005f64:	47c0      	blx	r8
 8005f66:	3001      	adds	r0, #1
 8005f68:	d01e      	beq.n	8005fa8 <_printf_common+0xa4>
 8005f6a:	6823      	ldr	r3, [r4, #0]
 8005f6c:	68e5      	ldr	r5, [r4, #12]
 8005f6e:	6832      	ldr	r2, [r6, #0]
 8005f70:	f003 0306 	and.w	r3, r3, #6
 8005f74:	2b04      	cmp	r3, #4
 8005f76:	bf08      	it	eq
 8005f78:	1aad      	subeq	r5, r5, r2
 8005f7a:	68a3      	ldr	r3, [r4, #8]
 8005f7c:	6922      	ldr	r2, [r4, #16]
 8005f7e:	bf0c      	ite	eq
 8005f80:	ea25 75e5 	biceq.w	r5, r5, r5, asr #31
 8005f84:	2500      	movne	r5, #0
 8005f86:	4293      	cmp	r3, r2
 8005f88:	bfc4      	itt	gt
 8005f8a:	1a9b      	subgt	r3, r3, r2
 8005f8c:	18ed      	addgt	r5, r5, r3
 8005f8e:	2600      	movs	r6, #0
 8005f90:	341a      	adds	r4, #26
 8005f92:	42b5      	cmp	r5, r6
 8005f94:	d11a      	bne.n	8005fcc <_printf_common+0xc8>
 8005f96:	2000      	movs	r0, #0
 8005f98:	e008      	b.n	8005fac <_printf_common+0xa8>
 8005f9a:	2301      	movs	r3, #1
 8005f9c:	4652      	mov	r2, sl
 8005f9e:	4649      	mov	r1, r9
 8005fa0:	4638      	mov	r0, r7
 8005fa2:	47c0      	blx	r8
 8005fa4:	3001      	adds	r0, #1
 8005fa6:	d103      	bne.n	8005fb0 <_printf_common+0xac>
 8005fa8:	f04f 30ff 	mov.w	r0, #4294967295
 8005fac:	e8bd 87f0 	ldmia.w	sp!, {r4, r5, r6, r7, r8, r9, sl, pc}
 8005fb0:	3501      	adds	r5, #1
 8005fb2:	e7c6      	b.n	8005f42 <_printf_common+0x3e>
 8005fb4:	18e1      	adds	r1, r4, r3
 8005fb6:	1c5a      	adds	r2, r3, #1
 8005fb8:	2030      	movs	r0, #48	; 0x30
 8005fba:	f881 0043 	strb.w	r0, [r1, #67]	; 0x43
 8005fbe:	4422      	add	r2, r4
 8005fc0:	f894 1045 	ldrb.w	r1, [r4, #69]	; 0x45
 8005fc4:	f882 1043 	strb.w	r1, [r2, #67]	; 0x43
 8005fc8:	3302      	adds	r3, #2
 8005fca:	e7c7      	b.n	8005f5c <_printf_common+0x58>
 8005fcc:	2301      	movs	r3, #1
 8005fce:	4622      	mov	r2, r4
 8005fd0:	4649      	mov	r1, r9
 8005fd2:	4638      	mov	r0, r7
 8005fd4:	47c0      	blx	r8
 8005fd6:	3001      	adds	r0, #1
 8005fd8:	d0e6      	beq.n	8005fa8 <_printf_common+0xa4>
 8005fda:	3601      	adds	r6, #1
 8005fdc:	e7d9      	b.n	8005f92 <_printf_common+0x8e>
	...

08005fe0 <_printf_i>:
 8005fe0:	e92d 47ff 	stmdb	sp!, {r0, r1, r2, r3, r4, r5, r6, r7, r8, r9, sl, lr}
 8005fe4:	7e0f      	ldrb	r7, [r1, #24]
 8005fe6:	9d0c      	ldr	r5, [sp, #48]	; 0x30
 8005fe8:	2f78      	cmp	r7, #120	; 0x78
 8005fea:	4691      	mov	r9, r2
 8005fec:	4680      	mov	r8, r0
 8005fee:	460c      	mov	r4, r1
 8005ff0:	469a      	mov	sl, r3
 8005ff2:	f101 0243 	add.w	r2, r1, #67	; 0x43
 8005ff6:	d807      	bhi.n	8006008 <_printf_i+0x28>
 8005ff8:	2f62      	cmp	r7, #98	; 0x62
 8005ffa:	d80a      	bhi.n	8006012 <_printf_i+0x32>
 8005ffc:	2f00      	cmp	r7, #0
 8005ffe:	f000 80d8 	beq.w	80061b2 <_printf_i+0x1d2>
 8006002:	2f58      	cmp	r7, #88	; 0x58
 8006004:	f000 80a3 	beq.w	800614e <_printf_i+0x16e>
 8006008:	f104 0542 	add.w	r5, r4, #66	; 0x42
 800600c:	f884 7042 	strb.w	r7, [r4, #66]	; 0x42
 8006010:	e03a      	b.n	8006088 <_printf_i+0xa8>
 8006012:	f1a7 0363 	sub.w	r3, r7, #99	; 0x63
 8006016:	2b15      	cmp	r3, #21
 8006018:	d8f6      	bhi.n	8006008 <_printf_i+0x28>
 800601a:	a101      	add	r1, pc, #4	; (adr r1, 8006020 <_printf_i+0x40>)
 800601c:	f851 f023 	ldr.w	pc, [r1, r3, lsl #2]
 8006020:	08006079 	.word	0x08006079
 8006024:	0800608d 	.word	0x0800608d
 8006028:	08006009 	.word	0x08006009
 800602c:	08006009 	.word	0x08006009
 8006030:	08006009 	.word	0x08006009
 8006034:	08006009 	.word	0x08006009
 8006038:	0800608d 	.word	0x0800608d
 800603c:	08006009 	.word	0x08006009
 8006040:	08006009 	.word	0x08006009
 8006044:	08006009 	.word	0x08006009
 8006048:	08006009 	.word	0x08006009
 800604c:	08006199 	.word	0x08006199
 8006050:	080060bd 	.word	0x080060bd
 8006054:	0800617b 	.word	0x0800617b
 8006058:	08006009 	.word	0x08006009
 800605c:	08006009 	.word	0x08006009
 8006060:	080061bb 	.word	0x080061bb
 8006064:	08006009 	.word	0x08006009
 8006068:	080060bd 	.word	0x080060bd
 800606c:	08006009 	.word	0x08006009
 8006070:	08006009 	.word	0x08006009
 8006074:	08006183 	.word	0x08006183
 8006078:	682b      	ldr	r3, [r5, #0]
 800607a:	1d1a      	adds	r2, r3, #4
 800607c:	681b      	ldr	r3, [r3, #0]
 800607e:	602a      	str	r2, [r5, #0]
 8006080:	f104 0542 	add.w	r5, r4, #66	; 0x42
 8006084:	f884 3042 	strb.w	r3, [r4, #66]	; 0x42
 8006088:	2301      	movs	r3, #1
 800608a:	e0a3      	b.n	80061d4 <_printf_i+0x1f4>
 800608c:	6820      	ldr	r0, [r4, #0]
 800608e:	6829      	ldr	r1, [r5, #0]
 8006090:	0606      	lsls	r6, r0, #24
 8006092:	f101 0304 	add.w	r3, r1, #4
 8006096:	d50a      	bpl.n	80060ae <_printf_i+0xce>
 8006098:	680e      	ldr	r6, [r1, #0]
 800609a:	602b      	str	r3, [r5, #0]
 800609c:	2e00      	cmp	r6, #0
 800609e:	da03      	bge.n	80060a8 <_printf_i+0xc8>
 80060a0:	232d      	movs	r3, #45	; 0x2d
 80060a2:	4276      	negs	r6, r6
 80060a4:	f884 3043 	strb.w	r3, [r4, #67]	; 0x43
 80060a8:	485e      	ldr	r0, [pc, #376]	; (8006224 <_printf_i+0x244>)
 80060aa:	230a      	movs	r3, #10
 80060ac:	e019      	b.n	80060e2 <_printf_i+0x102>
 80060ae:	680e      	ldr	r6, [r1, #0]
 80060b0:	602b      	str	r3, [r5, #0]
 80060b2:	f010 0f40 	tst.w	r0, #64	; 0x40
 80060b6:	bf18      	it	ne
 80060b8:	b236      	sxthne	r6, r6
 80060ba:	e7ef      	b.n	800609c <_printf_i+0xbc>
 80060bc:	682b      	ldr	r3, [r5, #0]
 80060be:	6820      	ldr	r0, [r4, #0]
 80060c0:	1d19      	adds	r1, r3, #4
 80060c2:	6029      	str	r1, [r5, #0]
 80060c4:	0601      	lsls	r1, r0, #24
 80060c6:	d501      	bpl.n	80060cc <_printf_i+0xec>
 80060c8:	681e      	ldr	r6, [r3, #0]
 80060ca:	e002      	b.n	80060d2 <_printf_i+0xf2>
 80060cc:	0646      	lsls	r6, r0, #25
 80060ce:	d5fb      	bpl.n	80060c8 <_printf_i+0xe8>
 80060d0:	881e      	ldrh	r6, [r3, #0]
 80060d2:	4854      	ldr	r0, [pc, #336]	; (8006224 <_printf_i+0x244>)
 80060d4:	2f6f      	cmp	r7, #111	; 0x6f
 80060d6:	bf0c      	ite	eq
 80060d8:	2308      	moveq	r3, #8
 80060da:	230a      	movne	r3, #10
 80060dc:	2100      	movs	r1, #0
 80060de:	f884 1043 	strb.w	r1, [r4, #67]	; 0x43
 80060e2:	6865      	ldr	r5, [r4, #4]
 80060e4:	60a5      	str	r5, [r4, #8]
 80060e6:	2d00      	cmp	r5, #0
 80060e8:	bfa2      	ittt	ge
 80060ea:	6821      	ldrge	r1, [r4, #0]
 80060ec:	f021 0104 	bicge.w	r1, r1, #4
 80060f0:	6021      	strge	r1, [r4, #0]
 80060f2:	b90e      	cbnz	r6, 80060f8 <_printf_i+0x118>
 80060f4:	2d00      	cmp	r5, #0
 80060f6:	d04d      	beq.n	8006194 <_printf_i+0x1b4>
 80060f8:	4615      	mov	r5, r2
 80060fa:	fbb6 f1f3 	udiv	r1, r6, r3
 80060fe:	fb03 6711 	mls	r7, r3, r1, r6
 8006102:	5dc7      	ldrb	r7, [r0, r7]
 8006104:	f805 7d01 	strb.w	r7, [r5, #-1]!
 8006108:	4637      	mov	r7, r6
 800610a:	42bb      	cmp	r3, r7
 800610c:	460e      	mov	r6, r1
 800610e:	d9f4      	bls.n	80060fa <_printf_i+0x11a>
 8006110:	2b08      	cmp	r3, #8
 8006112:	d10b      	bne.n	800612c <_printf_i+0x14c>
 8006114:	6823      	ldr	r3, [r4, #0]
 8006116:	07de      	lsls	r6, r3, #31
 8006118:	d508      	bpl.n	800612c <_printf_i+0x14c>
 800611a:	6923      	ldr	r3, [r4, #16]
 800611c:	6861      	ldr	r1, [r4, #4]
 800611e:	4299      	cmp	r1, r3
 8006120:	bfde      	ittt	le
 8006122:	2330      	movle	r3, #48	; 0x30
 8006124:	f805 3c01 	strble.w	r3, [r5, #-1]
 8006128:	f105 35ff 	addle.w	r5, r5, #4294967295
 800612c:	1b52      	subs	r2, r2, r5
 800612e:	6122      	str	r2, [r4, #16]
 8006130:	f8cd a000 	str.w	sl, [sp]
 8006134:	464b      	mov	r3, r9
 8006136:	aa03      	add	r2, sp, #12
 8006138:	4621      	mov	r1, r4
 800613a:	4640      	mov	r0, r8
 800613c:	f7ff fee2 	bl	8005f04 <_printf_common>
 8006140:	3001      	adds	r0, #1
 8006142:	d14c      	bne.n	80061de <_printf_i+0x1fe>
 8006144:	f04f 30ff 	mov.w	r0, #4294967295
 8006148:	b004      	add	sp, #16
 800614a:	e8bd 87f0 	ldmia.w	sp!, {r4, r5, r6, r7, r8, r9, sl, pc}
 800614e:	4835      	ldr	r0, [pc, #212]	; (8006224 <_printf_i+0x244>)
 8006150:	f881 7045 	strb.w	r7, [r1, #69]	; 0x45
 8006154:	6829      	ldr	r1, [r5, #0]
 8006156:	6823      	ldr	r3, [r4, #0]
 8006158:	f851 6b04 	ldr.w	r6, [r1], #4
 800615c:	6029      	str	r1, [r5, #0]
 800615e:	061d      	lsls	r5, r3, #24
 8006160:	d514      	bpl.n	800618c <_printf_i+0x1ac>
 8006162:	07df      	lsls	r7, r3, #31
 8006164:	bf44      	itt	mi
 8006166:	f043 0320 	orrmi.w	r3, r3, #32
 800616a:	6023      	strmi	r3, [r4, #0]
 800616c:	b91e      	cbnz	r6, 8006176 <_printf_i+0x196>
 800616e:	6823      	ldr	r3, [r4, #0]
 8006170:	f023 0320 	bic.w	r3, r3, #32
 8006174:	6023      	str	r3, [r4, #0]
 8006176:	2310      	movs	r3, #16
 8006178:	e7b0      	b.n	80060dc <_printf_i+0xfc>
 800617a:	6823      	ldr	r3, [r4, #0]
 800617c:	f043 0320 	orr.w	r3, r3, #32
 8006180:	6023      	str	r3, [r4, #0]
 8006182:	2378      	movs	r3, #120	; 0x78
 8006184:	4828      	ldr	r0, [pc, #160]	; (8006228 <_printf_i+0x248>)
 8006186:	f884 3045 	strb.w	r3, [r4, #69]	; 0x45
 800618a:	e7e3      	b.n	8006154 <_printf_i+0x174>
 800618c:	0659      	lsls	r1, r3, #25
 800618e:	bf48      	it	mi
 8006190:	b2b6      	uxthmi	r6, r6
 8006192:	e7e6      	b.n	8006162 <_printf_i+0x182>
 8006194:	4615      	mov	r5, r2
 8006196:	e7bb      	b.n	8006110 <_printf_i+0x130>
 8006198:	682b      	ldr	r3, [r5, #0]
 800619a:	6826      	ldr	r6, [r4, #0]
 800619c:	6961      	ldr	r1, [r4, #20]
 800619e:	1d18      	adds	r0, r3, #4
 80061a0:	6028      	str	r0, [r5, #0]
 80061a2:	0635      	lsls	r5, r6, #24
 80061a4:	681b      	ldr	r3, [r3, #0]
 80061a6:	d501      	bpl.n	80061ac <_printf_i+0x1cc>
 80061a8:	6019      	str	r1, [r3, #0]
 80061aa:	e002      	b.n	80061b2 <_printf_i+0x1d2>
 80061ac:	0670      	lsls	r0, r6, #25
 80061ae:	d5fb      	bpl.n	80061a8 <_printf_i+0x1c8>
 80061b0:	8019      	strh	r1, [r3, #0]
 80061b2:	2300      	movs	r3, #0
 80061b4:	6123      	str	r3, [r4, #16]
 80061b6:	4615      	mov	r5, r2
 80061b8:	e7ba      	b.n	8006130 <_printf_i+0x150>
 80061ba:	682b      	ldr	r3, [r5, #0]
 80061bc:	1d1a      	adds	r2, r3, #4
 80061be:	602a      	str	r2, [r5, #0]
 80061c0:	681d      	ldr	r5, [r3, #0]
 80061c2:	6862      	ldr	r2, [r4, #4]
 80061c4:	2100      	movs	r1, #0
 80061c6:	4628      	mov	r0, r5
 80061c8:	f7fa f80a 	bl	80001e0 <memchr>
 80061cc:	b108      	cbz	r0, 80061d2 <_printf_i+0x1f2>
 80061ce:	1b40      	subs	r0, r0, r5
 80061d0:	6060      	str	r0, [r4, #4]
 80061d2:	6863      	ldr	r3, [r4, #4]
 80061d4:	6123      	str	r3, [r4, #16]
 80061d6:	2300      	movs	r3, #0
 80061d8:	f884 3043 	strb.w	r3, [r4, #67]	; 0x43
 80061dc:	e7a8      	b.n	8006130 <_printf_i+0x150>
 80061de:	6923      	ldr	r3, [r4, #16]
 80061e0:	462a      	mov	r2, r5
 80061e2:	4649      	mov	r1, r9
 80061e4:	4640      	mov	r0, r8
 80061e6:	47d0      	blx	sl
 80061e8:	3001      	adds	r0, #1
 80061ea:	d0ab      	beq.n	8006144 <_printf_i+0x164>
 80061ec:	6823      	ldr	r3, [r4, #0]
 80061ee:	079b      	lsls	r3, r3, #30
 80061f0:	d413      	bmi.n	800621a <_printf_i+0x23a>
 80061f2:	68e0      	ldr	r0, [r4, #12]
 80061f4:	9b03      	ldr	r3, [sp, #12]
 80061f6:	4298      	cmp	r0, r3
 80061f8:	bfb8      	it	lt
 80061fa:	4618      	movlt	r0, r3
 80061fc:	e7a4      	b.n	8006148 <_printf_i+0x168>
 80061fe:	2301      	movs	r3, #1
 8006200:	4632      	mov	r2, r6
 8006202:	4649      	mov	r1, r9
 8006204:	4640      	mov	r0, r8
 8006206:	47d0      	blx	sl
 8006208:	3001      	adds	r0, #1
 800620a:	d09b      	beq.n	8006144 <_printf_i+0x164>
 800620c:	3501      	adds	r5, #1
 800620e:	68e3      	ldr	r3, [r4, #12]
 8006210:	9903      	ldr	r1, [sp, #12]
 8006212:	1a5b      	subs	r3, r3, r1
 8006214:	42ab      	cmp	r3, r5
 8006216:	dcf2      	bgt.n	80061fe <_printf_i+0x21e>
 8006218:	e7eb      	b.n	80061f2 <_printf_i+0x212>
 800621a:	2500      	movs	r5, #0
 800621c:	f104 0619 	add.w	r6, r4, #25
 8006220:	e7f5      	b.n	800620e <_printf_i+0x22e>
 8006222:	bf00      	nop
 8006224:	08008716 	.word	0x08008716
 8006228:	08008727 	.word	0x08008727

0800622c <_sbrk_r>:
 800622c:	b538      	push	{r3, r4, r5, lr}
 800622e:	4d06      	ldr	r5, [pc, #24]	; (8006248 <_sbrk_r+0x1c>)
 8006230:	2300      	movs	r3, #0
 8006232:	4604      	mov	r4, r0
 8006234:	4608      	mov	r0, r1
 8006236:	602b      	str	r3, [r5, #0]
 8006238:	f7fb ff2a 	bl	8002090 <_sbrk>
 800623c:	1c43      	adds	r3, r0, #1
 800623e:	d102      	bne.n	8006246 <_sbrk_r+0x1a>
 8006240:	682b      	ldr	r3, [r5, #0]
 8006242:	b103      	cbz	r3, 8006246 <_sbrk_r+0x1a>
 8006244:	6023      	str	r3, [r4, #0]
 8006246:	bd38      	pop	{r3, r4, r5, pc}
 8006248:	2000065c 	.word	0x2000065c

0800624c <sniprintf>:
 800624c:	b40c      	push	{r2, r3}
 800624e:	b530      	push	{r4, r5, lr}
 8006250:	4b17      	ldr	r3, [pc, #92]	; (80062b0 <sniprintf+0x64>)
 8006252:	1e0c      	subs	r4, r1, #0
 8006254:	681d      	ldr	r5, [r3, #0]
 8006256:	b09d      	sub	sp, #116	; 0x74
 8006258:	da08      	bge.n	800626c <sniprintf+0x20>
 800625a:	238b      	movs	r3, #139	; 0x8b
 800625c:	602b      	str	r3, [r5, #0]
 800625e:	f04f 30ff 	mov.w	r0, #4294967295
 8006262:	b01d      	add	sp, #116	; 0x74
 8006264:	e8bd 4030 	ldmia.w	sp!, {r4, r5, lr}
 8006268:	b002      	add	sp, #8
 800626a:	4770      	bx	lr
 800626c:	f44f 7302 	mov.w	r3, #520	; 0x208
 8006270:	f8ad 3014 	strh.w	r3, [sp, #20]
 8006274:	bf14      	ite	ne
 8006276:	f104 33ff 	addne.w	r3, r4, #4294967295
 800627a:	4623      	moveq	r3, r4
 800627c:	9304      	str	r3, [sp, #16]
 800627e:	9307      	str	r3, [sp, #28]
 8006280:	f64f 73ff 	movw	r3, #65535	; 0xffff
 8006284:	9002      	str	r0, [sp, #8]
 8006286:	9006      	str	r0, [sp, #24]
 8006288:	f8ad 3016 	strh.w	r3, [sp, #22]
 800628c:	9a20      	ldr	r2, [sp, #128]	; 0x80
 800628e:	ab21      	add	r3, sp, #132	; 0x84
 8006290:	a902      	add	r1, sp, #8
 8006292:	4628      	mov	r0, r5
 8006294:	9301      	str	r3, [sp, #4]
 8006296:	f001 fd73 	bl	8007d80 <_svfiprintf_r>
 800629a:	1c43      	adds	r3, r0, #1
 800629c:	bfbc      	itt	lt
 800629e:	238b      	movlt	r3, #139	; 0x8b
 80062a0:	602b      	strlt	r3, [r5, #0]
 80062a2:	2c00      	cmp	r4, #0
 80062a4:	d0dd      	beq.n	8006262 <sniprintf+0x16>
 80062a6:	9b02      	ldr	r3, [sp, #8]
 80062a8:	2200      	movs	r2, #0
 80062aa:	701a      	strb	r2, [r3, #0]
 80062ac:	e7d9      	b.n	8006262 <sniprintf+0x16>
 80062ae:	bf00      	nop
 80062b0:	200000d4 	.word	0x200000d4

080062b4 <__sread>:
 80062b4:	b510      	push	{r4, lr}
 80062b6:	460c      	mov	r4, r1
 80062b8:	f9b1 100e 	ldrsh.w	r1, [r1, #14]
 80062bc:	f001 ffba 	bl	8008234 <_read_r>
 80062c0:	2800      	cmp	r0, #0
 80062c2:	bfab      	itete	ge
 80062c4:	6d63      	ldrge	r3, [r4, #84]	; 0x54
 80062c6:	89a3      	ldrhlt	r3, [r4, #12]
 80062c8:	181b      	addge	r3, r3, r0
 80062ca:	f423 5380 	biclt.w	r3, r3, #4096	; 0x1000
 80062ce:	bfac      	ite	ge
 80062d0:	6563      	strge	r3, [r4, #84]	; 0x54
 80062d2:	81a3      	strhlt	r3, [r4, #12]
 80062d4:	bd10      	pop	{r4, pc}

080062d6 <__swrite>:
 80062d6:	e92d 41f0 	stmdb	sp!, {r4, r5, r6, r7, r8, lr}
 80062da:	461f      	mov	r7, r3
 80062dc:	898b      	ldrh	r3, [r1, #12]
 80062de:	05db      	lsls	r3, r3, #23
 80062e0:	4605      	mov	r5, r0
 80062e2:	460c      	mov	r4, r1
 80062e4:	4616      	mov	r6, r2
 80062e6:	d505      	bpl.n	80062f4 <__swrite+0x1e>
 80062e8:	f9b1 100e 	ldrsh.w	r1, [r1, #14]
 80062ec:	2302      	movs	r3, #2
 80062ee:	2200      	movs	r2, #0
 80062f0:	f001 f878 	bl	80073e4 <_lseek_r>
 80062f4:	89a3      	ldrh	r3, [r4, #12]
 80062f6:	f9b4 100e 	ldrsh.w	r1, [r4, #14]
 80062fa:	f423 5380 	bic.w	r3, r3, #4096	; 0x1000
 80062fe:	81a3      	strh	r3, [r4, #12]
 8006300:	4632      	mov	r2, r6
 8006302:	463b      	mov	r3, r7
 8006304:	4628      	mov	r0, r5
 8006306:	e8bd 41f0 	ldmia.w	sp!, {r4, r5, r6, r7, r8, lr}
 800630a:	f000 b869 	b.w	80063e0 <_write_r>

0800630e <__sseek>:
 800630e:	b510      	push	{r4, lr}
 8006310:	460c      	mov	r4, r1
 8006312:	f9b1 100e 	ldrsh.w	r1, [r1, #14]
 8006316:	f001 f865 	bl	80073e4 <_lseek_r>
 800631a:	1c43      	adds	r3, r0, #1
 800631c:	89a3      	ldrh	r3, [r4, #12]
 800631e:	bf15      	itete	ne
 8006320:	6560      	strne	r0, [r4, #84]	; 0x54
 8006322:	f423 5380 	biceq.w	r3, r3, #4096	; 0x1000
 8006326:	f443 5380 	orrne.w	r3, r3, #4096	; 0x1000
 800632a:	81a3      	strheq	r3, [r4, #12]
 800632c:	bf18      	it	ne
 800632e:	81a3      	strhne	r3, [r4, #12]
 8006330:	bd10      	pop	{r4, pc}

08006332 <__sclose>:
 8006332:	f9b1 100e 	ldrsh.w	r1, [r1, #14]
 8006336:	f000 b8f1 	b.w	800651c <_close_r>
	...

0800633c <__swbuf_r>:
 800633c:	b5f8      	push	{r3, r4, r5, r6, r7, lr}
 800633e:	460e      	mov	r6, r1
 8006340:	4614      	mov	r4, r2
 8006342:	4605      	mov	r5, r0
 8006344:	b118      	cbz	r0, 800634e <__swbuf_r+0x12>
 8006346:	6983      	ldr	r3, [r0, #24]
 8006348:	b90b      	cbnz	r3, 800634e <__swbuf_r+0x12>
 800634a:	f7ff f995 	bl	8005678 <__sinit>
 800634e:	4b21      	ldr	r3, [pc, #132]	; (80063d4 <__swbuf_r+0x98>)
 8006350:	429c      	cmp	r4, r3
 8006352:	d12b      	bne.n	80063ac <__swbuf_r+0x70>
 8006354:	686c      	ldr	r4, [r5, #4]
 8006356:	69a3      	ldr	r3, [r4, #24]
 8006358:	60a3      	str	r3, [r4, #8]
 800635a:	89a3      	ldrh	r3, [r4, #12]
 800635c:	071a      	lsls	r2, r3, #28
 800635e:	d52f      	bpl.n	80063c0 <__swbuf_r+0x84>
 8006360:	6923      	ldr	r3, [r4, #16]
 8006362:	b36b      	cbz	r3, 80063c0 <__swbuf_r+0x84>
 8006364:	6923      	ldr	r3, [r4, #16]
 8006366:	6820      	ldr	r0, [r4, #0]
 8006368:	1ac0      	subs	r0, r0, r3
 800636a:	6963      	ldr	r3, [r4, #20]
 800636c:	b2f6      	uxtb	r6, r6
 800636e:	4283      	cmp	r3, r0
 8006370:	4637      	mov	r7, r6
 8006372:	dc04      	bgt.n	800637e <__swbuf_r+0x42>
 8006374:	4621      	mov	r1, r4
 8006376:	4628      	mov	r0, r5
 8006378:	f000 ffe2 	bl	8007340 <_fflush_r>
 800637c:	bb30      	cbnz	r0, 80063cc <__swbuf_r+0x90>
 800637e:	68a3      	ldr	r3, [r4, #8]
 8006380:	3b01      	subs	r3, #1
 8006382:	60a3      	str	r3, [r4, #8]
 8006384:	6823      	ldr	r3, [r4, #0]
 8006386:	1c5a      	adds	r2, r3, #1
 8006388:	6022      	str	r2, [r4, #0]
 800638a:	701e      	strb	r6, [r3, #0]
 800638c:	6963      	ldr	r3, [r4, #20]
 800638e:	3001      	adds	r0, #1
 8006390:	4283      	cmp	r3, r0
 8006392:	d004      	beq.n	800639e <__swbuf_r+0x62>
 8006394:	89a3      	ldrh	r3, [r4, #12]
 8006396:	07db      	lsls	r3, r3, #31
 8006398:	d506      	bpl.n	80063a8 <__swbuf_r+0x6c>
 800639a:	2e0a      	cmp	r6, #10
 800639c:	d104      	bne.n	80063a8 <__swbuf_r+0x6c>
 800639e:	4621      	mov	r1, r4
 80063a0:	4628      	mov	r0, r5
 80063a2:	f000 ffcd 	bl	8007340 <_fflush_r>
 80063a6:	b988      	cbnz	r0, 80063cc <__swbuf_r+0x90>
 80063a8:	4638      	mov	r0, r7
 80063aa:	bdf8      	pop	{r3, r4, r5, r6, r7, pc}
 80063ac:	4b0a      	ldr	r3, [pc, #40]	; (80063d8 <__swbuf_r+0x9c>)
 80063ae:	429c      	cmp	r4, r3
 80063b0:	d101      	bne.n	80063b6 <__swbuf_r+0x7a>
 80063b2:	68ac      	ldr	r4, [r5, #8]
 80063b4:	e7cf      	b.n	8006356 <__swbuf_r+0x1a>
 80063b6:	4b09      	ldr	r3, [pc, #36]	; (80063dc <__swbuf_r+0xa0>)
 80063b8:	429c      	cmp	r4, r3
 80063ba:	bf08      	it	eq
 80063bc:	68ec      	ldreq	r4, [r5, #12]
 80063be:	e7ca      	b.n	8006356 <__swbuf_r+0x1a>
 80063c0:	4621      	mov	r1, r4
 80063c2:	4628      	mov	r0, r5
 80063c4:	f000 f81e 	bl	8006404 <__swsetup_r>
 80063c8:	2800      	cmp	r0, #0
 80063ca:	d0cb      	beq.n	8006364 <__swbuf_r+0x28>
 80063cc:	f04f 37ff 	mov.w	r7, #4294967295
 80063d0:	e7ea      	b.n	80063a8 <__swbuf_r+0x6c>
 80063d2:	bf00      	nop
 80063d4:	080086c0 	.word	0x080086c0
 80063d8:	080086e0 	.word	0x080086e0
 80063dc:	080086a0 	.word	0x080086a0

080063e0 <_write_r>:
 80063e0:	b538      	push	{r3, r4, r5, lr}
 80063e2:	4d07      	ldr	r5, [pc, #28]	; (8006400 <_write_r+0x20>)
 80063e4:	4604      	mov	r4, r0
 80063e6:	4608      	mov	r0, r1
 80063e8:	4611      	mov	r1, r2
 80063ea:	2200      	movs	r2, #0
 80063ec:	602a      	str	r2, [r5, #0]
 80063ee:	461a      	mov	r2, r3
 80063f0:	f7ff f83f 	bl	8005472 <_write>
 80063f4:	1c43      	adds	r3, r0, #1
 80063f6:	d102      	bne.n	80063fe <_write_r+0x1e>
 80063f8:	682b      	ldr	r3, [r5, #0]
 80063fa:	b103      	cbz	r3, 80063fe <_write_r+0x1e>
 80063fc:	6023      	str	r3, [r4, #0]
 80063fe:	bd38      	pop	{r3, r4, r5, pc}
 8006400:	2000065c 	.word	0x2000065c

08006404 <__swsetup_r>:
 8006404:	4b32      	ldr	r3, [pc, #200]	; (80064d0 <__swsetup_r+0xcc>)
 8006406:	b570      	push	{r4, r5, r6, lr}
 8006408:	681d      	ldr	r5, [r3, #0]
 800640a:	4606      	mov	r6, r0
 800640c:	460c      	mov	r4, r1
 800640e:	b125      	cbz	r5, 800641a <__swsetup_r+0x16>
 8006410:	69ab      	ldr	r3, [r5, #24]
 8006412:	b913      	cbnz	r3, 800641a <__swsetup_r+0x16>
 8006414:	4628      	mov	r0, r5
 8006416:	f7ff f92f 	bl	8005678 <__sinit>
 800641a:	4b2e      	ldr	r3, [pc, #184]	; (80064d4 <__swsetup_r+0xd0>)
 800641c:	429c      	cmp	r4, r3
 800641e:	d10f      	bne.n	8006440 <__swsetup_r+0x3c>
 8006420:	686c      	ldr	r4, [r5, #4]
 8006422:	89a3      	ldrh	r3, [r4, #12]
 8006424:	f9b4 200c 	ldrsh.w	r2, [r4, #12]
 8006428:	0719      	lsls	r1, r3, #28
 800642a:	d42c      	bmi.n	8006486 <__swsetup_r+0x82>
 800642c:	06dd      	lsls	r5, r3, #27
 800642e:	d411      	bmi.n	8006454 <__swsetup_r+0x50>
 8006430:	2309      	movs	r3, #9
 8006432:	6033      	str	r3, [r6, #0]
 8006434:	f042 0340 	orr.w	r3, r2, #64	; 0x40
 8006438:	81a3      	strh	r3, [r4, #12]
 800643a:	f04f 30ff 	mov.w	r0, #4294967295
 800643e:	e03e      	b.n	80064be <__swsetup_r+0xba>
 8006440:	4b25      	ldr	r3, [pc, #148]	; (80064d8 <__swsetup_r+0xd4>)
 8006442:	429c      	cmp	r4, r3
 8006444:	d101      	bne.n	800644a <__swsetup_r+0x46>
 8006446:	68ac      	ldr	r4, [r5, #8]
 8006448:	e7eb      	b.n	8006422 <__swsetup_r+0x1e>
 800644a:	4b24      	ldr	r3, [pc, #144]	; (80064dc <__swsetup_r+0xd8>)
 800644c:	429c      	cmp	r4, r3
 800644e:	bf08      	it	eq
 8006450:	68ec      	ldreq	r4, [r5, #12]
 8006452:	e7e6      	b.n	8006422 <__swsetup_r+0x1e>
 8006454:	0758      	lsls	r0, r3, #29
 8006456:	d512      	bpl.n	800647e <__swsetup_r+0x7a>
 8006458:	6b61      	ldr	r1, [r4, #52]	; 0x34
 800645a:	b141      	cbz	r1, 800646e <__swsetup_r+0x6a>
 800645c:	f104 0344 	add.w	r3, r4, #68	; 0x44
 8006460:	4299      	cmp	r1, r3
 8006462:	d002      	beq.n	800646a <__swsetup_r+0x66>
 8006464:	4630      	mov	r0, r6
 8006466:	f001 fbe3 	bl	8007c30 <_free_r>
 800646a:	2300      	movs	r3, #0
 800646c:	6363      	str	r3, [r4, #52]	; 0x34
 800646e:	89a3      	ldrh	r3, [r4, #12]
 8006470:	f023 0324 	bic.w	r3, r3, #36	; 0x24
 8006474:	81a3      	strh	r3, [r4, #12]
 8006476:	2300      	movs	r3, #0
 8006478:	6063      	str	r3, [r4, #4]
 800647a:	6923      	ldr	r3, [r4, #16]
 800647c:	6023      	str	r3, [r4, #0]
 800647e:	89a3      	ldrh	r3, [r4, #12]
 8006480:	f043 0308 	orr.w	r3, r3, #8
 8006484:	81a3      	strh	r3, [r4, #12]
 8006486:	6923      	ldr	r3, [r4, #16]
 8006488:	b94b      	cbnz	r3, 800649e <__swsetup_r+0x9a>
 800648a:	89a3      	ldrh	r3, [r4, #12]
 800648c:	f403 7320 	and.w	r3, r3, #640	; 0x280
 8006490:	f5b3 7f00 	cmp.w	r3, #512	; 0x200
 8006494:	d003      	beq.n	800649e <__swsetup_r+0x9a>
 8006496:	4621      	mov	r1, r4
 8006498:	4630      	mov	r0, r6
 800649a:	f000 ffdb 	bl	8007454 <__smakebuf_r>
 800649e:	89a0      	ldrh	r0, [r4, #12]
 80064a0:	f9b4 200c 	ldrsh.w	r2, [r4, #12]
 80064a4:	f010 0301 	ands.w	r3, r0, #1
 80064a8:	d00a      	beq.n	80064c0 <__swsetup_r+0xbc>
 80064aa:	2300      	movs	r3, #0
 80064ac:	60a3      	str	r3, [r4, #8]
 80064ae:	6963      	ldr	r3, [r4, #20]
 80064b0:	425b      	negs	r3, r3
 80064b2:	61a3      	str	r3, [r4, #24]
 80064b4:	6923      	ldr	r3, [r4, #16]
 80064b6:	b943      	cbnz	r3, 80064ca <__swsetup_r+0xc6>
 80064b8:	f010 0080 	ands.w	r0, r0, #128	; 0x80
 80064bc:	d1ba      	bne.n	8006434 <__swsetup_r+0x30>
 80064be:	bd70      	pop	{r4, r5, r6, pc}
 80064c0:	0781      	lsls	r1, r0, #30
 80064c2:	bf58      	it	pl
 80064c4:	6963      	ldrpl	r3, [r4, #20]
 80064c6:	60a3      	str	r3, [r4, #8]
 80064c8:	e7f4      	b.n	80064b4 <__swsetup_r+0xb0>
 80064ca:	2000      	movs	r0, #0
 80064cc:	e7f7      	b.n	80064be <__swsetup_r+0xba>
 80064ce:	bf00      	nop
 80064d0:	200000d4 	.word	0x200000d4
 80064d4:	080086c0 	.word	0x080086c0
 80064d8:	080086e0 	.word	0x080086e0
 80064dc:	080086a0 	.word	0x080086a0

080064e0 <__assert_func>:
 80064e0:	b51f      	push	{r0, r1, r2, r3, r4, lr}
 80064e2:	4614      	mov	r4, r2
 80064e4:	461a      	mov	r2, r3
 80064e6:	4b09      	ldr	r3, [pc, #36]	; (800650c <__assert_func+0x2c>)
 80064e8:	681b      	ldr	r3, [r3, #0]
 80064ea:	4605      	mov	r5, r0
 80064ec:	68d8      	ldr	r0, [r3, #12]
 80064ee:	b14c      	cbz	r4, 8006504 <__assert_func+0x24>
 80064f0:	4b07      	ldr	r3, [pc, #28]	; (8006510 <__assert_func+0x30>)
 80064f2:	9100      	str	r1, [sp, #0]
 80064f4:	e9cd 3401 	strd	r3, r4, [sp, #4]
 80064f8:	4906      	ldr	r1, [pc, #24]	; (8006514 <__assert_func+0x34>)
 80064fa:	462b      	mov	r3, r5
 80064fc:	f000 ff5c 	bl	80073b8 <fiprintf>
 8006500:	f001 feaa 	bl	8008258 <abort>
 8006504:	4b04      	ldr	r3, [pc, #16]	; (8006518 <__assert_func+0x38>)
 8006506:	461c      	mov	r4, r3
 8006508:	e7f3      	b.n	80064f2 <__assert_func+0x12>
 800650a:	bf00      	nop
 800650c:	200000d4 	.word	0x200000d4
 8006510:	08008738 	.word	0x08008738
 8006514:	08008745 	.word	0x08008745
 8006518:	08008773 	.word	0x08008773

0800651c <_close_r>:
 800651c:	b538      	push	{r3, r4, r5, lr}
 800651e:	4d06      	ldr	r5, [pc, #24]	; (8006538 <_close_r+0x1c>)
 8006520:	2300      	movs	r3, #0
 8006522:	4604      	mov	r4, r0
 8006524:	4608      	mov	r0, r1
 8006526:	602b      	str	r3, [r5, #0]
 8006528:	f7fe ffd4 	bl	80054d4 <_close>
 800652c:	1c43      	adds	r3, r0, #1
 800652e:	d102      	bne.n	8006536 <_close_r+0x1a>
 8006530:	682b      	ldr	r3, [r5, #0]
 8006532:	b103      	cbz	r3, 8006536 <_close_r+0x1a>
 8006534:	6023      	str	r3, [r4, #0]
 8006536:	bd38      	pop	{r3, r4, r5, pc}
 8006538:	2000065c 	.word	0x2000065c

0800653c <quorem>:
 800653c:	e92d 4ff7 	stmdb	sp!, {r0, r1, r2, r4, r5, r6, r7, r8, r9, sl, fp, lr}
 8006540:	6903      	ldr	r3, [r0, #16]
 8006542:	690c      	ldr	r4, [r1, #16]
 8006544:	42a3      	cmp	r3, r4
 8006546:	4607      	mov	r7, r0
 8006548:	f2c0 8081 	blt.w	800664e <quorem+0x112>
 800654c:	3c01      	subs	r4, #1
 800654e:	f101 0814 	add.w	r8, r1, #20
 8006552:	f100 0514 	add.w	r5, r0, #20
 8006556:	eb05 0384 	add.w	r3, r5, r4, lsl #2
 800655a:	9301      	str	r3, [sp, #4]
 800655c:	f858 3024 	ldr.w	r3, [r8, r4, lsl #2]
 8006560:	f855 2024 	ldr.w	r2, [r5, r4, lsl #2]
 8006564:	3301      	adds	r3, #1
 8006566:	429a      	cmp	r2, r3
 8006568:	ea4f 0b84 	mov.w	fp, r4, lsl #2
 800656c:	eb08 0984 	add.w	r9, r8, r4, lsl #2
 8006570:	fbb2 f6f3 	udiv	r6, r2, r3
 8006574:	d331      	bcc.n	80065da <quorem+0x9e>
 8006576:	f04f 0e00 	mov.w	lr, #0
 800657a:	4640      	mov	r0, r8
 800657c:	46ac      	mov	ip, r5
 800657e:	46f2      	mov	sl, lr
 8006580:	f850 2b04 	ldr.w	r2, [r0], #4
 8006584:	b293      	uxth	r3, r2
 8006586:	fb06 e303 	mla	r3, r6, r3, lr
 800658a:	ea4f 4e13 	mov.w	lr, r3, lsr #16
 800658e:	b29b      	uxth	r3, r3
 8006590:	ebaa 0303 	sub.w	r3, sl, r3
 8006594:	f8dc a000 	ldr.w	sl, [ip]
 8006598:	0c12      	lsrs	r2, r2, #16
 800659a:	fa13 f38a 	uxtah	r3, r3, sl
 800659e:	fb06 e202 	mla	r2, r6, r2, lr
 80065a2:	9300      	str	r3, [sp, #0]
 80065a4:	9b00      	ldr	r3, [sp, #0]
 80065a6:	ea4f 4e12 	mov.w	lr, r2, lsr #16
 80065aa:	b292      	uxth	r2, r2
 80065ac:	ebc2 421a 	rsb	r2, r2, sl, lsr #16
 80065b0:	eb02 4223 	add.w	r2, r2, r3, asr #16
 80065b4:	f8bd 3000 	ldrh.w	r3, [sp]
 80065b8:	4581      	cmp	r9, r0
 80065ba:	ea43 4302 	orr.w	r3, r3, r2, lsl #16
 80065be:	f84c 3b04 	str.w	r3, [ip], #4
 80065c2:	ea4f 4a22 	mov.w	sl, r2, asr #16
 80065c6:	d2db      	bcs.n	8006580 <quorem+0x44>
 80065c8:	f855 300b 	ldr.w	r3, [r5, fp]
 80065cc:	b92b      	cbnz	r3, 80065da <quorem+0x9e>
 80065ce:	9b01      	ldr	r3, [sp, #4]
 80065d0:	3b04      	subs	r3, #4
 80065d2:	429d      	cmp	r5, r3
 80065d4:	461a      	mov	r2, r3
 80065d6:	d32e      	bcc.n	8006636 <quorem+0xfa>
 80065d8:	613c      	str	r4, [r7, #16]
 80065da:	4638      	mov	r0, r7
 80065dc:	f001 fa10 	bl	8007a00 <__mcmp>
 80065e0:	2800      	cmp	r0, #0
 80065e2:	db24      	blt.n	800662e <quorem+0xf2>
 80065e4:	3601      	adds	r6, #1
 80065e6:	4628      	mov	r0, r5
 80065e8:	f04f 0c00 	mov.w	ip, #0
 80065ec:	f858 2b04 	ldr.w	r2, [r8], #4
 80065f0:	f8d0 e000 	ldr.w	lr, [r0]
 80065f4:	b293      	uxth	r3, r2
 80065f6:	ebac 0303 	sub.w	r3, ip, r3
 80065fa:	0c12      	lsrs	r2, r2, #16
 80065fc:	fa13 f38e 	uxtah	r3, r3, lr
 8006600:	ebc2 421e 	rsb	r2, r2, lr, lsr #16
 8006604:	eb02 4223 	add.w	r2, r2, r3, asr #16
 8006608:	b29b      	uxth	r3, r3
 800660a:	ea43 4302 	orr.w	r3, r3, r2, lsl #16
 800660e:	45c1      	cmp	r9, r8
 8006610:	f840 3b04 	str.w	r3, [r0], #4
 8006614:	ea4f 4c22 	mov.w	ip, r2, asr #16
 8006618:	d2e8      	bcs.n	80065ec <quorem+0xb0>
 800661a:	f855 2024 	ldr.w	r2, [r5, r4, lsl #2]
 800661e:	eb05 0384 	add.w	r3, r5, r4, lsl #2
 8006622:	b922      	cbnz	r2, 800662e <quorem+0xf2>
 8006624:	3b04      	subs	r3, #4
 8006626:	429d      	cmp	r5, r3
 8006628:	461a      	mov	r2, r3
 800662a:	d30a      	bcc.n	8006642 <quorem+0x106>
 800662c:	613c      	str	r4, [r7, #16]
 800662e:	4630      	mov	r0, r6
 8006630:	b003      	add	sp, #12
 8006632:	e8bd 8ff0 	ldmia.w	sp!, {r4, r5, r6, r7, r8, r9, sl, fp, pc}
 8006636:	6812      	ldr	r2, [r2, #0]
 8006638:	3b04      	subs	r3, #4
 800663a:	2a00      	cmp	r2, #0
 800663c:	d1cc      	bne.n	80065d8 <quorem+0x9c>
 800663e:	3c01      	subs	r4, #1
 8006640:	e7c7      	b.n	80065d2 <quorem+0x96>
 8006642:	6812      	ldr	r2, [r2, #0]
 8006644:	3b04      	subs	r3, #4
 8006646:	2a00      	cmp	r2, #0
 8006648:	d1f0      	bne.n	800662c <quorem+0xf0>
 800664a:	3c01      	subs	r4, #1
 800664c:	e7eb      	b.n	8006626 <quorem+0xea>
 800664e:	2000      	movs	r0, #0
 8006650:	e7ee      	b.n	8006630 <quorem+0xf4>
 8006652:	0000      	movs	r0, r0
 8006654:	0000      	movs	r0, r0
	...

08006658 <_dtoa_r>:
 8006658:	e92d 4ff0 	stmdb	sp!, {r4, r5, r6, r7, r8, r9, sl, fp, lr}
 800665c:	ed2d 8b04 	vpush	{d8-d9}
 8006660:	ec57 6b10 	vmov	r6, r7, d0
 8006664:	b093      	sub	sp, #76	; 0x4c
 8006666:	6a45      	ldr	r5, [r0, #36]	; 0x24
 8006668:	f8dd 8080 	ldr.w	r8, [sp, #128]	; 0x80
 800666c:	9106      	str	r1, [sp, #24]
 800666e:	ee10 aa10 	vmov	sl, s0
 8006672:	4604      	mov	r4, r0
 8006674:	9209      	str	r2, [sp, #36]	; 0x24
 8006676:	930c      	str	r3, [sp, #48]	; 0x30
 8006678:	46bb      	mov	fp, r7
 800667a:	b975      	cbnz	r5, 800669a <_dtoa_r+0x42>
 800667c:	2010      	movs	r0, #16
 800667e:	f000 ff29 	bl	80074d4 <malloc>
 8006682:	4602      	mov	r2, r0
 8006684:	6260      	str	r0, [r4, #36]	; 0x24
 8006686:	b920      	cbnz	r0, 8006692 <_dtoa_r+0x3a>
 8006688:	4ba7      	ldr	r3, [pc, #668]	; (8006928 <_dtoa_r+0x2d0>)
 800668a:	21ea      	movs	r1, #234	; 0xea
 800668c:	48a7      	ldr	r0, [pc, #668]	; (800692c <_dtoa_r+0x2d4>)
 800668e:	f7ff ff27 	bl	80064e0 <__assert_func>
 8006692:	e9c0 5501 	strd	r5, r5, [r0, #4]
 8006696:	6005      	str	r5, [r0, #0]
 8006698:	60c5      	str	r5, [r0, #12]
 800669a:	6a63      	ldr	r3, [r4, #36]	; 0x24
 800669c:	6819      	ldr	r1, [r3, #0]
 800669e:	b151      	cbz	r1, 80066b6 <_dtoa_r+0x5e>
 80066a0:	685a      	ldr	r2, [r3, #4]
 80066a2:	604a      	str	r2, [r1, #4]
 80066a4:	2301      	movs	r3, #1
 80066a6:	4093      	lsls	r3, r2
 80066a8:	608b      	str	r3, [r1, #8]
 80066aa:	4620      	mov	r0, r4
 80066ac:	f000 ff66 	bl	800757c <_Bfree>
 80066b0:	6a63      	ldr	r3, [r4, #36]	; 0x24
 80066b2:	2200      	movs	r2, #0
 80066b4:	601a      	str	r2, [r3, #0]
 80066b6:	1e3b      	subs	r3, r7, #0
 80066b8:	bfaa      	itet	ge
 80066ba:	2300      	movge	r3, #0
 80066bc:	f023 4b00 	biclt.w	fp, r3, #2147483648	; 0x80000000
 80066c0:	f8c8 3000 	strge.w	r3, [r8]
 80066c4:	4b9a      	ldr	r3, [pc, #616]	; (8006930 <_dtoa_r+0x2d8>)
 80066c6:	bfbc      	itt	lt
 80066c8:	2201      	movlt	r2, #1
 80066ca:	f8c8 2000 	strlt.w	r2, [r8]
 80066ce:	ea33 030b 	bics.w	r3, r3, fp
 80066d2:	d11b      	bne.n	800670c <_dtoa_r+0xb4>
 80066d4:	9a0c      	ldr	r2, [sp, #48]	; 0x30
 80066d6:	f242 730f 	movw	r3, #9999	; 0x270f
 80066da:	6013      	str	r3, [r2, #0]
 80066dc:	f3cb 0313 	ubfx	r3, fp, #0, #20
 80066e0:	4333      	orrs	r3, r6
 80066e2:	f000 8592 	beq.w	800720a <_dtoa_r+0xbb2>
 80066e6:	9b21      	ldr	r3, [sp, #132]	; 0x84
 80066e8:	b963      	cbnz	r3, 8006704 <_dtoa_r+0xac>
 80066ea:	4b92      	ldr	r3, [pc, #584]	; (8006934 <_dtoa_r+0x2dc>)
 80066ec:	e022      	b.n	8006734 <_dtoa_r+0xdc>
 80066ee:	4b92      	ldr	r3, [pc, #584]	; (8006938 <_dtoa_r+0x2e0>)
 80066f0:	9301      	str	r3, [sp, #4]
 80066f2:	3308      	adds	r3, #8
 80066f4:	9a21      	ldr	r2, [sp, #132]	; 0x84
 80066f6:	6013      	str	r3, [r2, #0]
 80066f8:	9801      	ldr	r0, [sp, #4]
 80066fa:	b013      	add	sp, #76	; 0x4c
 80066fc:	ecbd 8b04 	vpop	{d8-d9}
 8006700:	e8bd 8ff0 	ldmia.w	sp!, {r4, r5, r6, r7, r8, r9, sl, fp, pc}
 8006704:	4b8b      	ldr	r3, [pc, #556]	; (8006934 <_dtoa_r+0x2dc>)
 8006706:	9301      	str	r3, [sp, #4]
 8006708:	3303      	adds	r3, #3
 800670a:	e7f3      	b.n	80066f4 <_dtoa_r+0x9c>
 800670c:	2200      	movs	r2, #0
 800670e:	2300      	movs	r3, #0
 8006710:	4650      	mov	r0, sl
 8006712:	4659      	mov	r1, fp
 8006714:	f7fa f9d8 	bl	8000ac8 <__aeabi_dcmpeq>
 8006718:	ec4b ab19 	vmov	d9, sl, fp
 800671c:	4680      	mov	r8, r0
 800671e:	b158      	cbz	r0, 8006738 <_dtoa_r+0xe0>
 8006720:	9a0c      	ldr	r2, [sp, #48]	; 0x30
 8006722:	2301      	movs	r3, #1
 8006724:	6013      	str	r3, [r2, #0]
 8006726:	9b21      	ldr	r3, [sp, #132]	; 0x84
 8006728:	2b00      	cmp	r3, #0
 800672a:	f000 856b 	beq.w	8007204 <_dtoa_r+0xbac>
 800672e:	4883      	ldr	r0, [pc, #524]	; (800693c <_dtoa_r+0x2e4>)
 8006730:	6018      	str	r0, [r3, #0]
 8006732:	1e43      	subs	r3, r0, #1
 8006734:	9301      	str	r3, [sp, #4]
 8006736:	e7df      	b.n	80066f8 <_dtoa_r+0xa0>
 8006738:	ec4b ab10 	vmov	d0, sl, fp
 800673c:	aa10      	add	r2, sp, #64	; 0x40
 800673e:	a911      	add	r1, sp, #68	; 0x44
 8006740:	4620      	mov	r0, r4
 8006742:	f001 fa03 	bl	8007b4c <__d2b>
 8006746:	f3cb 550a 	ubfx	r5, fp, #20, #11
 800674a:	ee08 0a10 	vmov	s16, r0
 800674e:	2d00      	cmp	r5, #0
 8006750:	f000 8084 	beq.w	800685c <_dtoa_r+0x204>
 8006754:	ee19 3a90 	vmov	r3, s19
 8006758:	f3c3 0313 	ubfx	r3, r3, #0, #20
 800675c:	f043 577f 	orr.w	r7, r3, #1069547520	; 0x3fc00000
 8006760:	4656      	mov	r6, sl
 8006762:	f447 1740 	orr.w	r7, r7, #3145728	; 0x300000
 8006766:	f2a5 35ff 	subw	r5, r5, #1023	; 0x3ff
 800676a:	f8cd 8038 	str.w	r8, [sp, #56]	; 0x38
 800676e:	4b74      	ldr	r3, [pc, #464]	; (8006940 <_dtoa_r+0x2e8>)
 8006770:	2200      	movs	r2, #0
 8006772:	4630      	mov	r0, r6
 8006774:	4639      	mov	r1, r7
 8006776:	f7f9 fd87 	bl	8000288 <__aeabi_dsub>
 800677a:	a365      	add	r3, pc, #404	; (adr r3, 8006910 <_dtoa_r+0x2b8>)
 800677c:	e9d3 2300 	ldrd	r2, r3, [r3]
 8006780:	f7f9 ff3a 	bl	80005f8 <__aeabi_dmul>
 8006784:	a364      	add	r3, pc, #400	; (adr r3, 8006918 <_dtoa_r+0x2c0>)
 8006786:	e9d3 2300 	ldrd	r2, r3, [r3]
 800678a:	f7f9 fd7f 	bl	800028c <__adddf3>
 800678e:	4606      	mov	r6, r0
 8006790:	4628      	mov	r0, r5
 8006792:	460f      	mov	r7, r1
 8006794:	f7f9 fec6 	bl	8000524 <__aeabi_i2d>
 8006798:	a361      	add	r3, pc, #388	; (adr r3, 8006920 <_dtoa_r+0x2c8>)
 800679a:	e9d3 2300 	ldrd	r2, r3, [r3]
 800679e:	f7f9 ff2b 	bl	80005f8 <__aeabi_dmul>
 80067a2:	4602      	mov	r2, r0
 80067a4:	460b      	mov	r3, r1
 80067a6:	4630      	mov	r0, r6
 80067a8:	4639      	mov	r1, r7
 80067aa:	f7f9 fd6f 	bl	800028c <__adddf3>
 80067ae:	4606      	mov	r6, r0
 80067b0:	460f      	mov	r7, r1
 80067b2:	f7fa f9d1 	bl	8000b58 <__aeabi_d2iz>
 80067b6:	2200      	movs	r2, #0
 80067b8:	9000      	str	r0, [sp, #0]
 80067ba:	2300      	movs	r3, #0
 80067bc:	4630      	mov	r0, r6
 80067be:	4639      	mov	r1, r7
 80067c0:	f7fa f98c 	bl	8000adc <__aeabi_dcmplt>
 80067c4:	b150      	cbz	r0, 80067dc <_dtoa_r+0x184>
 80067c6:	9800      	ldr	r0, [sp, #0]
 80067c8:	f7f9 feac 	bl	8000524 <__aeabi_i2d>
 80067cc:	4632      	mov	r2, r6
 80067ce:	463b      	mov	r3, r7
 80067d0:	f7fa f97a 	bl	8000ac8 <__aeabi_dcmpeq>
 80067d4:	b910      	cbnz	r0, 80067dc <_dtoa_r+0x184>
 80067d6:	9b00      	ldr	r3, [sp, #0]
 80067d8:	3b01      	subs	r3, #1
 80067da:	9300      	str	r3, [sp, #0]
 80067dc:	9b00      	ldr	r3, [sp, #0]
 80067de:	2b16      	cmp	r3, #22
 80067e0:	d85a      	bhi.n	8006898 <_dtoa_r+0x240>
 80067e2:	9a00      	ldr	r2, [sp, #0]
 80067e4:	4b57      	ldr	r3, [pc, #348]	; (8006944 <_dtoa_r+0x2ec>)
 80067e6:	eb03 03c2 	add.w	r3, r3, r2, lsl #3
 80067ea:	e9d3 2300 	ldrd	r2, r3, [r3]
 80067ee:	ec51 0b19 	vmov	r0, r1, d9
 80067f2:	f7fa f973 	bl	8000adc <__aeabi_dcmplt>
 80067f6:	2800      	cmp	r0, #0
 80067f8:	d050      	beq.n	800689c <_dtoa_r+0x244>
 80067fa:	9b00      	ldr	r3, [sp, #0]
 80067fc:	3b01      	subs	r3, #1
 80067fe:	9300      	str	r3, [sp, #0]
 8006800:	2300      	movs	r3, #0
 8006802:	930b      	str	r3, [sp, #44]	; 0x2c
 8006804:	9b10      	ldr	r3, [sp, #64]	; 0x40
 8006806:	1b5d      	subs	r5, r3, r5
 8006808:	1e6b      	subs	r3, r5, #1
 800680a:	9305      	str	r3, [sp, #20]
 800680c:	bf45      	ittet	mi
 800680e:	f1c5 0301 	rsbmi	r3, r5, #1
 8006812:	9304      	strmi	r3, [sp, #16]
 8006814:	2300      	movpl	r3, #0
 8006816:	2300      	movmi	r3, #0
 8006818:	bf4c      	ite	mi
 800681a:	9305      	strmi	r3, [sp, #20]
 800681c:	9304      	strpl	r3, [sp, #16]
 800681e:	9b00      	ldr	r3, [sp, #0]
 8006820:	2b00      	cmp	r3, #0
 8006822:	db3d      	blt.n	80068a0 <_dtoa_r+0x248>
 8006824:	9b05      	ldr	r3, [sp, #20]
 8006826:	9a00      	ldr	r2, [sp, #0]
 8006828:	920a      	str	r2, [sp, #40]	; 0x28
 800682a:	4413      	add	r3, r2
 800682c:	9305      	str	r3, [sp, #20]
 800682e:	2300      	movs	r3, #0
 8006830:	9307      	str	r3, [sp, #28]
 8006832:	9b06      	ldr	r3, [sp, #24]
 8006834:	2b09      	cmp	r3, #9
 8006836:	f200 8089 	bhi.w	800694c <_dtoa_r+0x2f4>
 800683a:	2b05      	cmp	r3, #5
 800683c:	bfc4      	itt	gt
 800683e:	3b04      	subgt	r3, #4
 8006840:	9306      	strgt	r3, [sp, #24]
 8006842:	9b06      	ldr	r3, [sp, #24]
 8006844:	f1a3 0302 	sub.w	r3, r3, #2
 8006848:	bfcc      	ite	gt
 800684a:	2500      	movgt	r5, #0
 800684c:	2501      	movle	r5, #1
 800684e:	2b03      	cmp	r3, #3
 8006850:	f200 8087 	bhi.w	8006962 <_dtoa_r+0x30a>
 8006854:	e8df f003 	tbb	[pc, r3]
 8006858:	59383a2d 	.word	0x59383a2d
 800685c:	e9dd 5310 	ldrd	r5, r3, [sp, #64]	; 0x40
 8006860:	441d      	add	r5, r3
 8006862:	f205 4332 	addw	r3, r5, #1074	; 0x432
 8006866:	2b20      	cmp	r3, #32
 8006868:	bfc1      	itttt	gt
 800686a:	f1c3 0340 	rsbgt	r3, r3, #64	; 0x40
 800686e:	f205 4012 	addwgt	r0, r5, #1042	; 0x412
 8006872:	fa0b f303 	lslgt.w	r3, fp, r3
 8006876:	fa26 f000 	lsrgt.w	r0, r6, r0
 800687a:	bfda      	itte	le
 800687c:	f1c3 0320 	rsble	r3, r3, #32
 8006880:	fa06 f003 	lslle.w	r0, r6, r3
 8006884:	4318      	orrgt	r0, r3
 8006886:	f7f9 fe3d 	bl	8000504 <__aeabi_ui2d>
 800688a:	2301      	movs	r3, #1
 800688c:	4606      	mov	r6, r0
 800688e:	f1a1 77f8 	sub.w	r7, r1, #32505856	; 0x1f00000
 8006892:	3d01      	subs	r5, #1
 8006894:	930e      	str	r3, [sp, #56]	; 0x38
 8006896:	e76a      	b.n	800676e <_dtoa_r+0x116>
 8006898:	2301      	movs	r3, #1
 800689a:	e7b2      	b.n	8006802 <_dtoa_r+0x1aa>
 800689c:	900b      	str	r0, [sp, #44]	; 0x2c
 800689e:	e7b1      	b.n	8006804 <_dtoa_r+0x1ac>
 80068a0:	9b04      	ldr	r3, [sp, #16]
 80068a2:	9a00      	ldr	r2, [sp, #0]
 80068a4:	1a9b      	subs	r3, r3, r2
 80068a6:	9304      	str	r3, [sp, #16]
 80068a8:	4253      	negs	r3, r2
 80068aa:	9307      	str	r3, [sp, #28]
 80068ac:	2300      	movs	r3, #0
 80068ae:	930a      	str	r3, [sp, #40]	; 0x28
 80068b0:	e7bf      	b.n	8006832 <_dtoa_r+0x1da>
 80068b2:	2300      	movs	r3, #0
 80068b4:	9308      	str	r3, [sp, #32]
 80068b6:	9b09      	ldr	r3, [sp, #36]	; 0x24
 80068b8:	2b00      	cmp	r3, #0
 80068ba:	dc55      	bgt.n	8006968 <_dtoa_r+0x310>
 80068bc:	2301      	movs	r3, #1
 80068be:	e9cd 3302 	strd	r3, r3, [sp, #8]
 80068c2:	461a      	mov	r2, r3
 80068c4:	9209      	str	r2, [sp, #36]	; 0x24
 80068c6:	e00c      	b.n	80068e2 <_dtoa_r+0x28a>
 80068c8:	2301      	movs	r3, #1
 80068ca:	e7f3      	b.n	80068b4 <_dtoa_r+0x25c>
 80068cc:	2300      	movs	r3, #0
 80068ce:	9a09      	ldr	r2, [sp, #36]	; 0x24
 80068d0:	9308      	str	r3, [sp, #32]
 80068d2:	9b00      	ldr	r3, [sp, #0]
 80068d4:	4413      	add	r3, r2
 80068d6:	9302      	str	r3, [sp, #8]
 80068d8:	3301      	adds	r3, #1
 80068da:	2b01      	cmp	r3, #1
 80068dc:	9303      	str	r3, [sp, #12]
 80068de:	bfb8      	it	lt
 80068e0:	2301      	movlt	r3, #1
 80068e2:	6a60      	ldr	r0, [r4, #36]	; 0x24
 80068e4:	2200      	movs	r2, #0
 80068e6:	6042      	str	r2, [r0, #4]
 80068e8:	2204      	movs	r2, #4
 80068ea:	f102 0614 	add.w	r6, r2, #20
 80068ee:	429e      	cmp	r6, r3
 80068f0:	6841      	ldr	r1, [r0, #4]
 80068f2:	d93d      	bls.n	8006970 <_dtoa_r+0x318>
 80068f4:	4620      	mov	r0, r4
 80068f6:	f000 fe01 	bl	80074fc <_Balloc>
 80068fa:	9001      	str	r0, [sp, #4]
 80068fc:	2800      	cmp	r0, #0
 80068fe:	d13b      	bne.n	8006978 <_dtoa_r+0x320>
 8006900:	4b11      	ldr	r3, [pc, #68]	; (8006948 <_dtoa_r+0x2f0>)
 8006902:	4602      	mov	r2, r0
 8006904:	f44f 71d5 	mov.w	r1, #426	; 0x1aa
 8006908:	e6c0      	b.n	800668c <_dtoa_r+0x34>
 800690a:	2301      	movs	r3, #1
 800690c:	e7df      	b.n	80068ce <_dtoa_r+0x276>
 800690e:	bf00      	nop
 8006910:	636f4361 	.word	0x636f4361
 8006914:	3fd287a7 	.word	0x3fd287a7
 8006918:	8b60c8b3 	.word	0x8b60c8b3
 800691c:	3fc68a28 	.word	0x3fc68a28
 8006920:	509f79fb 	.word	0x509f79fb
 8006924:	3fd34413 	.word	0x3fd34413
 8006928:	08008781 	.word	0x08008781
 800692c:	08008798 	.word	0x08008798
 8006930:	7ff00000 	.word	0x7ff00000
 8006934:	0800877d 	.word	0x0800877d
 8006938:	08008774 	.word	0x08008774
 800693c:	08008715 	.word	0x08008715
 8006940:	3ff80000 	.word	0x3ff80000
 8006944:	08008888 	.word	0x08008888
 8006948:	080087f3 	.word	0x080087f3
 800694c:	2501      	movs	r5, #1
 800694e:	2300      	movs	r3, #0
 8006950:	9306      	str	r3, [sp, #24]
 8006952:	9508      	str	r5, [sp, #32]
 8006954:	f04f 33ff 	mov.w	r3, #4294967295
 8006958:	e9cd 3302 	strd	r3, r3, [sp, #8]
 800695c:	2200      	movs	r2, #0
 800695e:	2312      	movs	r3, #18
 8006960:	e7b0      	b.n	80068c4 <_dtoa_r+0x26c>
 8006962:	2301      	movs	r3, #1
 8006964:	9308      	str	r3, [sp, #32]
 8006966:	e7f5      	b.n	8006954 <_dtoa_r+0x2fc>
 8006968:	9b09      	ldr	r3, [sp, #36]	; 0x24
 800696a:	e9cd 3302 	strd	r3, r3, [sp, #8]
 800696e:	e7b8      	b.n	80068e2 <_dtoa_r+0x28a>
 8006970:	3101      	adds	r1, #1
 8006972:	6041      	str	r1, [r0, #4]
 8006974:	0052      	lsls	r2, r2, #1
 8006976:	e7b8      	b.n	80068ea <_dtoa_r+0x292>
 8006978:	6a63      	ldr	r3, [r4, #36]	; 0x24
 800697a:	9a01      	ldr	r2, [sp, #4]
 800697c:	601a      	str	r2, [r3, #0]
 800697e:	9b03      	ldr	r3, [sp, #12]
 8006980:	2b0e      	cmp	r3, #14
 8006982:	f200 809d 	bhi.w	8006ac0 <_dtoa_r+0x468>
 8006986:	2d00      	cmp	r5, #0
 8006988:	f000 809a 	beq.w	8006ac0 <_dtoa_r+0x468>
 800698c:	9b00      	ldr	r3, [sp, #0]
 800698e:	2b00      	cmp	r3, #0
 8006990:	dd32      	ble.n	80069f8 <_dtoa_r+0x3a0>
 8006992:	4ab7      	ldr	r2, [pc, #732]	; (8006c70 <_dtoa_r+0x618>)
 8006994:	f003 030f 	and.w	r3, r3, #15
 8006998:	eb02 03c3 	add.w	r3, r2, r3, lsl #3
 800699c:	e9d3 8900 	ldrd	r8, r9, [r3]
 80069a0:	9b00      	ldr	r3, [sp, #0]
 80069a2:	05d8      	lsls	r0, r3, #23
 80069a4:	ea4f 1723 	mov.w	r7, r3, asr #4
 80069a8:	d516      	bpl.n	80069d8 <_dtoa_r+0x380>
 80069aa:	4bb2      	ldr	r3, [pc, #712]	; (8006c74 <_dtoa_r+0x61c>)
 80069ac:	ec51 0b19 	vmov	r0, r1, d9
 80069b0:	e9d3 2308 	ldrd	r2, r3, [r3, #32]
 80069b4:	f7f9 ff4a 	bl	800084c <__aeabi_ddiv>
 80069b8:	f007 070f 	and.w	r7, r7, #15
 80069bc:	4682      	mov	sl, r0
 80069be:	468b      	mov	fp, r1
 80069c0:	2503      	movs	r5, #3
 80069c2:	4eac      	ldr	r6, [pc, #688]	; (8006c74 <_dtoa_r+0x61c>)
 80069c4:	b957      	cbnz	r7, 80069dc <_dtoa_r+0x384>
 80069c6:	4642      	mov	r2, r8
 80069c8:	464b      	mov	r3, r9
 80069ca:	4650      	mov	r0, sl
 80069cc:	4659      	mov	r1, fp
 80069ce:	f7f9 ff3d 	bl	800084c <__aeabi_ddiv>
 80069d2:	4682      	mov	sl, r0
 80069d4:	468b      	mov	fp, r1
 80069d6:	e028      	b.n	8006a2a <_dtoa_r+0x3d2>
 80069d8:	2502      	movs	r5, #2
 80069da:	e7f2      	b.n	80069c2 <_dtoa_r+0x36a>
 80069dc:	07f9      	lsls	r1, r7, #31
 80069de:	d508      	bpl.n	80069f2 <_dtoa_r+0x39a>
 80069e0:	4640      	mov	r0, r8
 80069e2:	4649      	mov	r1, r9
 80069e4:	e9d6 2300 	ldrd	r2, r3, [r6]
 80069e8:	f7f9 fe06 	bl	80005f8 <__aeabi_dmul>
 80069ec:	3501      	adds	r5, #1
 80069ee:	4680      	mov	r8, r0
 80069f0:	4689      	mov	r9, r1
 80069f2:	107f      	asrs	r7, r7, #1
 80069f4:	3608      	adds	r6, #8
 80069f6:	e7e5      	b.n	80069c4 <_dtoa_r+0x36c>
 80069f8:	f000 809b 	beq.w	8006b32 <_dtoa_r+0x4da>
 80069fc:	9b00      	ldr	r3, [sp, #0]
 80069fe:	4f9d      	ldr	r7, [pc, #628]	; (8006c74 <_dtoa_r+0x61c>)
 8006a00:	425e      	negs	r6, r3
 8006a02:	4b9b      	ldr	r3, [pc, #620]	; (8006c70 <_dtoa_r+0x618>)
 8006a04:	f006 020f 	and.w	r2, r6, #15
 8006a08:	eb03 03c2 	add.w	r3, r3, r2, lsl #3
 8006a0c:	e9d3 2300 	ldrd	r2, r3, [r3]
 8006a10:	ec51 0b19 	vmov	r0, r1, d9
 8006a14:	f7f9 fdf0 	bl	80005f8 <__aeabi_dmul>
 8006a18:	1136      	asrs	r6, r6, #4
 8006a1a:	4682      	mov	sl, r0
 8006a1c:	468b      	mov	fp, r1
 8006a1e:	2300      	movs	r3, #0
 8006a20:	2502      	movs	r5, #2
 8006a22:	2e00      	cmp	r6, #0
 8006a24:	d17a      	bne.n	8006b1c <_dtoa_r+0x4c4>
 8006a26:	2b00      	cmp	r3, #0
 8006a28:	d1d3      	bne.n	80069d2 <_dtoa_r+0x37a>
 8006a2a:	9b0b      	ldr	r3, [sp, #44]	; 0x2c
 8006a2c:	2b00      	cmp	r3, #0
 8006a2e:	f000 8082 	beq.w	8006b36 <_dtoa_r+0x4de>
 8006a32:	4b91      	ldr	r3, [pc, #580]	; (8006c78 <_dtoa_r+0x620>)
 8006a34:	2200      	movs	r2, #0
 8006a36:	4650      	mov	r0, sl
 8006a38:	4659      	mov	r1, fp
 8006a3a:	f7fa f84f 	bl	8000adc <__aeabi_dcmplt>
 8006a3e:	2800      	cmp	r0, #0
 8006a40:	d079      	beq.n	8006b36 <_dtoa_r+0x4de>
 8006a42:	9b03      	ldr	r3, [sp, #12]
 8006a44:	2b00      	cmp	r3, #0
 8006a46:	d076      	beq.n	8006b36 <_dtoa_r+0x4de>
 8006a48:	9b02      	ldr	r3, [sp, #8]
 8006a4a:	2b00      	cmp	r3, #0
 8006a4c:	dd36      	ble.n	8006abc <_dtoa_r+0x464>
 8006a4e:	9b00      	ldr	r3, [sp, #0]
 8006a50:	4650      	mov	r0, sl
 8006a52:	4659      	mov	r1, fp
 8006a54:	1e5f      	subs	r7, r3, #1
 8006a56:	2200      	movs	r2, #0
 8006a58:	4b88      	ldr	r3, [pc, #544]	; (8006c7c <_dtoa_r+0x624>)
 8006a5a:	f7f9 fdcd 	bl	80005f8 <__aeabi_dmul>
 8006a5e:	9e02      	ldr	r6, [sp, #8]
 8006a60:	4682      	mov	sl, r0
 8006a62:	468b      	mov	fp, r1
 8006a64:	3501      	adds	r5, #1
 8006a66:	4628      	mov	r0, r5
 8006a68:	f7f9 fd5c 	bl	8000524 <__aeabi_i2d>
 8006a6c:	4652      	mov	r2, sl
 8006a6e:	465b      	mov	r3, fp
 8006a70:	f7f9 fdc2 	bl	80005f8 <__aeabi_dmul>
 8006a74:	4b82      	ldr	r3, [pc, #520]	; (8006c80 <_dtoa_r+0x628>)
 8006a76:	2200      	movs	r2, #0
 8006a78:	f7f9 fc08 	bl	800028c <__adddf3>
 8006a7c:	46d0      	mov	r8, sl
 8006a7e:	46d9      	mov	r9, fp
 8006a80:	4682      	mov	sl, r0
 8006a82:	f1a1 7b50 	sub.w	fp, r1, #54525952	; 0x3400000
 8006a86:	2e00      	cmp	r6, #0
 8006a88:	d158      	bne.n	8006b3c <_dtoa_r+0x4e4>
 8006a8a:	4b7e      	ldr	r3, [pc, #504]	; (8006c84 <_dtoa_r+0x62c>)
 8006a8c:	2200      	movs	r2, #0
 8006a8e:	4640      	mov	r0, r8
 8006a90:	4649      	mov	r1, r9
 8006a92:	f7f9 fbf9 	bl	8000288 <__aeabi_dsub>
 8006a96:	4652      	mov	r2, sl
 8006a98:	465b      	mov	r3, fp
 8006a9a:	4680      	mov	r8, r0
 8006a9c:	4689      	mov	r9, r1
 8006a9e:	f7fa f83b 	bl	8000b18 <__aeabi_dcmpgt>
 8006aa2:	2800      	cmp	r0, #0
 8006aa4:	f040 8295 	bne.w	8006fd2 <_dtoa_r+0x97a>
 8006aa8:	4652      	mov	r2, sl
 8006aaa:	f10b 4300 	add.w	r3, fp, #2147483648	; 0x80000000
 8006aae:	4640      	mov	r0, r8
 8006ab0:	4649      	mov	r1, r9
 8006ab2:	f7fa f813 	bl	8000adc <__aeabi_dcmplt>
 8006ab6:	2800      	cmp	r0, #0
 8006ab8:	f040 8289 	bne.w	8006fce <_dtoa_r+0x976>
 8006abc:	ec5b ab19 	vmov	sl, fp, d9
 8006ac0:	9b11      	ldr	r3, [sp, #68]	; 0x44
 8006ac2:	2b00      	cmp	r3, #0
 8006ac4:	f2c0 8148 	blt.w	8006d58 <_dtoa_r+0x700>
 8006ac8:	9a00      	ldr	r2, [sp, #0]
 8006aca:	2a0e      	cmp	r2, #14
 8006acc:	f300 8144 	bgt.w	8006d58 <_dtoa_r+0x700>
 8006ad0:	4b67      	ldr	r3, [pc, #412]	; (8006c70 <_dtoa_r+0x618>)
 8006ad2:	eb03 03c2 	add.w	r3, r3, r2, lsl #3
 8006ad6:	e9d3 8900 	ldrd	r8, r9, [r3]
 8006ada:	9b09      	ldr	r3, [sp, #36]	; 0x24
 8006adc:	2b00      	cmp	r3, #0
 8006ade:	f280 80d5 	bge.w	8006c8c <_dtoa_r+0x634>
 8006ae2:	9b03      	ldr	r3, [sp, #12]
 8006ae4:	2b00      	cmp	r3, #0
 8006ae6:	f300 80d1 	bgt.w	8006c8c <_dtoa_r+0x634>
 8006aea:	f040 826f 	bne.w	8006fcc <_dtoa_r+0x974>
 8006aee:	4b65      	ldr	r3, [pc, #404]	; (8006c84 <_dtoa_r+0x62c>)
 8006af0:	2200      	movs	r2, #0
 8006af2:	4640      	mov	r0, r8
 8006af4:	4649      	mov	r1, r9
 8006af6:	f7f9 fd7f 	bl	80005f8 <__aeabi_dmul>
 8006afa:	4652      	mov	r2, sl
 8006afc:	465b      	mov	r3, fp
 8006afe:	f7fa f801 	bl	8000b04 <__aeabi_dcmpge>
 8006b02:	9e03      	ldr	r6, [sp, #12]
 8006b04:	4637      	mov	r7, r6
 8006b06:	2800      	cmp	r0, #0
 8006b08:	f040 8245 	bne.w	8006f96 <_dtoa_r+0x93e>
 8006b0c:	9d01      	ldr	r5, [sp, #4]
 8006b0e:	2331      	movs	r3, #49	; 0x31
 8006b10:	f805 3b01 	strb.w	r3, [r5], #1
 8006b14:	9b00      	ldr	r3, [sp, #0]
 8006b16:	3301      	adds	r3, #1
 8006b18:	9300      	str	r3, [sp, #0]
 8006b1a:	e240      	b.n	8006f9e <_dtoa_r+0x946>
 8006b1c:	07f2      	lsls	r2, r6, #31
 8006b1e:	d505      	bpl.n	8006b2c <_dtoa_r+0x4d4>
 8006b20:	e9d7 2300 	ldrd	r2, r3, [r7]
 8006b24:	f7f9 fd68 	bl	80005f8 <__aeabi_dmul>
 8006b28:	3501      	adds	r5, #1
 8006b2a:	2301      	movs	r3, #1
 8006b2c:	1076      	asrs	r6, r6, #1
 8006b2e:	3708      	adds	r7, #8
 8006b30:	e777      	b.n	8006a22 <_dtoa_r+0x3ca>
 8006b32:	2502      	movs	r5, #2
 8006b34:	e779      	b.n	8006a2a <_dtoa_r+0x3d2>
 8006b36:	9f00      	ldr	r7, [sp, #0]
 8006b38:	9e03      	ldr	r6, [sp, #12]
 8006b3a:	e794      	b.n	8006a66 <_dtoa_r+0x40e>
 8006b3c:	9901      	ldr	r1, [sp, #4]
 8006b3e:	4b4c      	ldr	r3, [pc, #304]	; (8006c70 <_dtoa_r+0x618>)
 8006b40:	4431      	add	r1, r6
 8006b42:	910d      	str	r1, [sp, #52]	; 0x34
 8006b44:	9908      	ldr	r1, [sp, #32]
 8006b46:	eb03 03c6 	add.w	r3, r3, r6, lsl #3
 8006b4a:	e953 2302 	ldrd	r2, r3, [r3, #-8]
 8006b4e:	2900      	cmp	r1, #0
 8006b50:	d043      	beq.n	8006bda <_dtoa_r+0x582>
 8006b52:	494d      	ldr	r1, [pc, #308]	; (8006c88 <_dtoa_r+0x630>)
 8006b54:	2000      	movs	r0, #0
 8006b56:	f7f9 fe79 	bl	800084c <__aeabi_ddiv>
 8006b5a:	4652      	mov	r2, sl
 8006b5c:	465b      	mov	r3, fp
 8006b5e:	f7f9 fb93 	bl	8000288 <__aeabi_dsub>
 8006b62:	9d01      	ldr	r5, [sp, #4]
 8006b64:	4682      	mov	sl, r0
 8006b66:	468b      	mov	fp, r1
 8006b68:	4649      	mov	r1, r9
 8006b6a:	4640      	mov	r0, r8
 8006b6c:	f7f9 fff4 	bl	8000b58 <__aeabi_d2iz>
 8006b70:	4606      	mov	r6, r0
 8006b72:	f7f9 fcd7 	bl	8000524 <__aeabi_i2d>
 8006b76:	4602      	mov	r2, r0
 8006b78:	460b      	mov	r3, r1
 8006b7a:	4640      	mov	r0, r8
 8006b7c:	4649      	mov	r1, r9
 8006b7e:	f7f9 fb83 	bl	8000288 <__aeabi_dsub>
 8006b82:	3630      	adds	r6, #48	; 0x30
 8006b84:	f805 6b01 	strb.w	r6, [r5], #1
 8006b88:	4652      	mov	r2, sl
 8006b8a:	465b      	mov	r3, fp
 8006b8c:	4680      	mov	r8, r0
 8006b8e:	4689      	mov	r9, r1
 8006b90:	f7f9 ffa4 	bl	8000adc <__aeabi_dcmplt>
 8006b94:	2800      	cmp	r0, #0
 8006b96:	d163      	bne.n	8006c60 <_dtoa_r+0x608>
 8006b98:	4642      	mov	r2, r8
 8006b9a:	464b      	mov	r3, r9
 8006b9c:	4936      	ldr	r1, [pc, #216]	; (8006c78 <_dtoa_r+0x620>)
 8006b9e:	2000      	movs	r0, #0
 8006ba0:	f7f9 fb72 	bl	8000288 <__aeabi_dsub>
 8006ba4:	4652      	mov	r2, sl
 8006ba6:	465b      	mov	r3, fp
 8006ba8:	f7f9 ff98 	bl	8000adc <__aeabi_dcmplt>
 8006bac:	2800      	cmp	r0, #0
 8006bae:	f040 80b5 	bne.w	8006d1c <_dtoa_r+0x6c4>
 8006bb2:	9b0d      	ldr	r3, [sp, #52]	; 0x34
 8006bb4:	429d      	cmp	r5, r3
 8006bb6:	d081      	beq.n	8006abc <_dtoa_r+0x464>
 8006bb8:	4b30      	ldr	r3, [pc, #192]	; (8006c7c <_dtoa_r+0x624>)
 8006bba:	2200      	movs	r2, #0
 8006bbc:	4650      	mov	r0, sl
 8006bbe:	4659      	mov	r1, fp
 8006bc0:	f7f9 fd1a 	bl	80005f8 <__aeabi_dmul>
 8006bc4:	4b2d      	ldr	r3, [pc, #180]	; (8006c7c <_dtoa_r+0x624>)
 8006bc6:	4682      	mov	sl, r0
 8006bc8:	468b      	mov	fp, r1
 8006bca:	4640      	mov	r0, r8
 8006bcc:	4649      	mov	r1, r9
 8006bce:	2200      	movs	r2, #0
 8006bd0:	f7f9 fd12 	bl	80005f8 <__aeabi_dmul>
 8006bd4:	4680      	mov	r8, r0
 8006bd6:	4689      	mov	r9, r1
 8006bd8:	e7c6      	b.n	8006b68 <_dtoa_r+0x510>
 8006bda:	4650      	mov	r0, sl
 8006bdc:	4659      	mov	r1, fp
 8006bde:	f7f9 fd0b 	bl	80005f8 <__aeabi_dmul>
 8006be2:	9b0d      	ldr	r3, [sp, #52]	; 0x34
 8006be4:	9d01      	ldr	r5, [sp, #4]
 8006be6:	930f      	str	r3, [sp, #60]	; 0x3c
 8006be8:	4682      	mov	sl, r0
 8006bea:	468b      	mov	fp, r1
 8006bec:	4649      	mov	r1, r9
 8006bee:	4640      	mov	r0, r8
 8006bf0:	f7f9 ffb2 	bl	8000b58 <__aeabi_d2iz>
 8006bf4:	4606      	mov	r6, r0
 8006bf6:	f7f9 fc95 	bl	8000524 <__aeabi_i2d>
 8006bfa:	3630      	adds	r6, #48	; 0x30
 8006bfc:	4602      	mov	r2, r0
 8006bfe:	460b      	mov	r3, r1
 8006c00:	4640      	mov	r0, r8
 8006c02:	4649      	mov	r1, r9
 8006c04:	f7f9 fb40 	bl	8000288 <__aeabi_dsub>
 8006c08:	f805 6b01 	strb.w	r6, [r5], #1
 8006c0c:	9b0d      	ldr	r3, [sp, #52]	; 0x34
 8006c0e:	429d      	cmp	r5, r3
 8006c10:	4680      	mov	r8, r0
 8006c12:	4689      	mov	r9, r1
 8006c14:	f04f 0200 	mov.w	r2, #0
 8006c18:	d124      	bne.n	8006c64 <_dtoa_r+0x60c>
 8006c1a:	4b1b      	ldr	r3, [pc, #108]	; (8006c88 <_dtoa_r+0x630>)
 8006c1c:	4650      	mov	r0, sl
 8006c1e:	4659      	mov	r1, fp
 8006c20:	f7f9 fb34 	bl	800028c <__adddf3>
 8006c24:	4602      	mov	r2, r0
 8006c26:	460b      	mov	r3, r1
 8006c28:	4640      	mov	r0, r8
 8006c2a:	4649      	mov	r1, r9
 8006c2c:	f7f9 ff74 	bl	8000b18 <__aeabi_dcmpgt>
 8006c30:	2800      	cmp	r0, #0
 8006c32:	d173      	bne.n	8006d1c <_dtoa_r+0x6c4>
 8006c34:	4652      	mov	r2, sl
 8006c36:	465b      	mov	r3, fp
 8006c38:	4913      	ldr	r1, [pc, #76]	; (8006c88 <_dtoa_r+0x630>)
 8006c3a:	2000      	movs	r0, #0
 8006c3c:	f7f9 fb24 	bl	8000288 <__aeabi_dsub>
 8006c40:	4602      	mov	r2, r0
 8006c42:	460b      	mov	r3, r1
 8006c44:	4640      	mov	r0, r8
 8006c46:	4649      	mov	r1, r9
 8006c48:	f7f9 ff48 	bl	8000adc <__aeabi_dcmplt>
 8006c4c:	2800      	cmp	r0, #0
 8006c4e:	f43f af35 	beq.w	8006abc <_dtoa_r+0x464>
 8006c52:	9d0f      	ldr	r5, [sp, #60]	; 0x3c
 8006c54:	1e6b      	subs	r3, r5, #1
 8006c56:	930f      	str	r3, [sp, #60]	; 0x3c
 8006c58:	f815 3c01 	ldrb.w	r3, [r5, #-1]
 8006c5c:	2b30      	cmp	r3, #48	; 0x30
 8006c5e:	d0f8      	beq.n	8006c52 <_dtoa_r+0x5fa>
 8006c60:	9700      	str	r7, [sp, #0]
 8006c62:	e049      	b.n	8006cf8 <_dtoa_r+0x6a0>
 8006c64:	4b05      	ldr	r3, [pc, #20]	; (8006c7c <_dtoa_r+0x624>)
 8006c66:	f7f9 fcc7 	bl	80005f8 <__aeabi_dmul>
 8006c6a:	4680      	mov	r8, r0
 8006c6c:	4689      	mov	r9, r1
 8006c6e:	e7bd      	b.n	8006bec <_dtoa_r+0x594>
 8006c70:	08008888 	.word	0x08008888
 8006c74:	08008860 	.word	0x08008860
 8006c78:	3ff00000 	.word	0x3ff00000
 8006c7c:	40240000 	.word	0x40240000
 8006c80:	401c0000 	.word	0x401c0000
 8006c84:	40140000 	.word	0x40140000
 8006c88:	3fe00000 	.word	0x3fe00000
 8006c8c:	9d01      	ldr	r5, [sp, #4]
 8006c8e:	4656      	mov	r6, sl
 8006c90:	465f      	mov	r7, fp
 8006c92:	4642      	mov	r2, r8
 8006c94:	464b      	mov	r3, r9
 8006c96:	4630      	mov	r0, r6
 8006c98:	4639      	mov	r1, r7
 8006c9a:	f7f9 fdd7 	bl	800084c <__aeabi_ddiv>
 8006c9e:	f7f9 ff5b 	bl	8000b58 <__aeabi_d2iz>
 8006ca2:	4682      	mov	sl, r0
 8006ca4:	f7f9 fc3e 	bl	8000524 <__aeabi_i2d>
 8006ca8:	4642      	mov	r2, r8
 8006caa:	464b      	mov	r3, r9
 8006cac:	f7f9 fca4 	bl	80005f8 <__aeabi_dmul>
 8006cb0:	4602      	mov	r2, r0
 8006cb2:	460b      	mov	r3, r1
 8006cb4:	4630      	mov	r0, r6
 8006cb6:	4639      	mov	r1, r7
 8006cb8:	f10a 0630 	add.w	r6, sl, #48	; 0x30
 8006cbc:	f7f9 fae4 	bl	8000288 <__aeabi_dsub>
 8006cc0:	f805 6b01 	strb.w	r6, [r5], #1
 8006cc4:	9e01      	ldr	r6, [sp, #4]
 8006cc6:	9f03      	ldr	r7, [sp, #12]
 8006cc8:	1bae      	subs	r6, r5, r6
 8006cca:	42b7      	cmp	r7, r6
 8006ccc:	4602      	mov	r2, r0
 8006cce:	460b      	mov	r3, r1
 8006cd0:	d135      	bne.n	8006d3e <_dtoa_r+0x6e6>
 8006cd2:	f7f9 fadb 	bl	800028c <__adddf3>
 8006cd6:	4642      	mov	r2, r8
 8006cd8:	464b      	mov	r3, r9
 8006cda:	4606      	mov	r6, r0
 8006cdc:	460f      	mov	r7, r1
 8006cde:	f7f9 ff1b 	bl	8000b18 <__aeabi_dcmpgt>
 8006ce2:	b9d0      	cbnz	r0, 8006d1a <_dtoa_r+0x6c2>
 8006ce4:	4642      	mov	r2, r8
 8006ce6:	464b      	mov	r3, r9
 8006ce8:	4630      	mov	r0, r6
 8006cea:	4639      	mov	r1, r7
 8006cec:	f7f9 feec 	bl	8000ac8 <__aeabi_dcmpeq>
 8006cf0:	b110      	cbz	r0, 8006cf8 <_dtoa_r+0x6a0>
 8006cf2:	f01a 0f01 	tst.w	sl, #1
 8006cf6:	d110      	bne.n	8006d1a <_dtoa_r+0x6c2>
 8006cf8:	4620      	mov	r0, r4
 8006cfa:	ee18 1a10 	vmov	r1, s16
 8006cfe:	f000 fc3d 	bl	800757c <_Bfree>
 8006d02:	2300      	movs	r3, #0
 8006d04:	9800      	ldr	r0, [sp, #0]
 8006d06:	702b      	strb	r3, [r5, #0]
 8006d08:	9b0c      	ldr	r3, [sp, #48]	; 0x30
 8006d0a:	3001      	adds	r0, #1
 8006d0c:	6018      	str	r0, [r3, #0]
 8006d0e:	9b21      	ldr	r3, [sp, #132]	; 0x84
 8006d10:	2b00      	cmp	r3, #0
 8006d12:	f43f acf1 	beq.w	80066f8 <_dtoa_r+0xa0>
 8006d16:	601d      	str	r5, [r3, #0]
 8006d18:	e4ee      	b.n	80066f8 <_dtoa_r+0xa0>
 8006d1a:	9f00      	ldr	r7, [sp, #0]
 8006d1c:	462b      	mov	r3, r5
 8006d1e:	461d      	mov	r5, r3
 8006d20:	f813 2d01 	ldrb.w	r2, [r3, #-1]!
 8006d24:	2a39      	cmp	r2, #57	; 0x39
 8006d26:	d106      	bne.n	8006d36 <_dtoa_r+0x6de>
 8006d28:	9a01      	ldr	r2, [sp, #4]
 8006d2a:	429a      	cmp	r2, r3
 8006d2c:	d1f7      	bne.n	8006d1e <_dtoa_r+0x6c6>
 8006d2e:	9901      	ldr	r1, [sp, #4]
 8006d30:	2230      	movs	r2, #48	; 0x30
 8006d32:	3701      	adds	r7, #1
 8006d34:	700a      	strb	r2, [r1, #0]
 8006d36:	781a      	ldrb	r2, [r3, #0]
 8006d38:	3201      	adds	r2, #1
 8006d3a:	701a      	strb	r2, [r3, #0]
 8006d3c:	e790      	b.n	8006c60 <_dtoa_r+0x608>
 8006d3e:	4ba6      	ldr	r3, [pc, #664]	; (8006fd8 <_dtoa_r+0x980>)
 8006d40:	2200      	movs	r2, #0
 8006d42:	f7f9 fc59 	bl	80005f8 <__aeabi_dmul>
 8006d46:	2200      	movs	r2, #0
 8006d48:	2300      	movs	r3, #0
 8006d4a:	4606      	mov	r6, r0
 8006d4c:	460f      	mov	r7, r1
 8006d4e:	f7f9 febb 	bl	8000ac8 <__aeabi_dcmpeq>
 8006d52:	2800      	cmp	r0, #0
 8006d54:	d09d      	beq.n	8006c92 <_dtoa_r+0x63a>
 8006d56:	e7cf      	b.n	8006cf8 <_dtoa_r+0x6a0>
 8006d58:	9a08      	ldr	r2, [sp, #32]
 8006d5a:	2a00      	cmp	r2, #0
 8006d5c:	f000 80d7 	beq.w	8006f0e <_dtoa_r+0x8b6>
 8006d60:	9a06      	ldr	r2, [sp, #24]
 8006d62:	2a01      	cmp	r2, #1
 8006d64:	f300 80ba 	bgt.w	8006edc <_dtoa_r+0x884>
 8006d68:	9a0e      	ldr	r2, [sp, #56]	; 0x38
 8006d6a:	2a00      	cmp	r2, #0
 8006d6c:	f000 80b2 	beq.w	8006ed4 <_dtoa_r+0x87c>
 8006d70:	f203 4333 	addw	r3, r3, #1075	; 0x433
 8006d74:	9e07      	ldr	r6, [sp, #28]
 8006d76:	9d04      	ldr	r5, [sp, #16]
 8006d78:	9a04      	ldr	r2, [sp, #16]
 8006d7a:	441a      	add	r2, r3
 8006d7c:	9204      	str	r2, [sp, #16]
 8006d7e:	9a05      	ldr	r2, [sp, #20]
 8006d80:	2101      	movs	r1, #1
 8006d82:	441a      	add	r2, r3
 8006d84:	4620      	mov	r0, r4
 8006d86:	9205      	str	r2, [sp, #20]
 8006d88:	f000 fcb0 	bl	80076ec <__i2b>
 8006d8c:	4607      	mov	r7, r0
 8006d8e:	2d00      	cmp	r5, #0
 8006d90:	dd0c      	ble.n	8006dac <_dtoa_r+0x754>
 8006d92:	9b05      	ldr	r3, [sp, #20]
 8006d94:	2b00      	cmp	r3, #0
 8006d96:	dd09      	ble.n	8006dac <_dtoa_r+0x754>
 8006d98:	42ab      	cmp	r3, r5
 8006d9a:	9a04      	ldr	r2, [sp, #16]
 8006d9c:	bfa8      	it	ge
 8006d9e:	462b      	movge	r3, r5
 8006da0:	1ad2      	subs	r2, r2, r3
 8006da2:	9204      	str	r2, [sp, #16]
 8006da4:	9a05      	ldr	r2, [sp, #20]
 8006da6:	1aed      	subs	r5, r5, r3
 8006da8:	1ad3      	subs	r3, r2, r3
 8006daa:	9305      	str	r3, [sp, #20]
 8006dac:	9b07      	ldr	r3, [sp, #28]
 8006dae:	b31b      	cbz	r3, 8006df8 <_dtoa_r+0x7a0>
 8006db0:	9b08      	ldr	r3, [sp, #32]
 8006db2:	2b00      	cmp	r3, #0
 8006db4:	f000 80af 	beq.w	8006f16 <_dtoa_r+0x8be>
 8006db8:	2e00      	cmp	r6, #0
 8006dba:	dd13      	ble.n	8006de4 <_dtoa_r+0x78c>
 8006dbc:	4639      	mov	r1, r7
 8006dbe:	4632      	mov	r2, r6
 8006dc0:	4620      	mov	r0, r4
 8006dc2:	f000 fd53 	bl	800786c <__pow5mult>
 8006dc6:	ee18 2a10 	vmov	r2, s16
 8006dca:	4601      	mov	r1, r0
 8006dcc:	4607      	mov	r7, r0
 8006dce:	4620      	mov	r0, r4
 8006dd0:	f000 fca2 	bl	8007718 <__multiply>
 8006dd4:	ee18 1a10 	vmov	r1, s16
 8006dd8:	4680      	mov	r8, r0
 8006dda:	4620      	mov	r0, r4
 8006ddc:	f000 fbce 	bl	800757c <_Bfree>
 8006de0:	ee08 8a10 	vmov	s16, r8
 8006de4:	9b07      	ldr	r3, [sp, #28]
 8006de6:	1b9a      	subs	r2, r3, r6
 8006de8:	d006      	beq.n	8006df8 <_dtoa_r+0x7a0>
 8006dea:	ee18 1a10 	vmov	r1, s16
 8006dee:	4620      	mov	r0, r4
 8006df0:	f000 fd3c 	bl	800786c <__pow5mult>
 8006df4:	ee08 0a10 	vmov	s16, r0
 8006df8:	2101      	movs	r1, #1
 8006dfa:	4620      	mov	r0, r4
 8006dfc:	f000 fc76 	bl	80076ec <__i2b>
 8006e00:	9b0a      	ldr	r3, [sp, #40]	; 0x28
 8006e02:	2b00      	cmp	r3, #0
 8006e04:	4606      	mov	r6, r0
 8006e06:	f340 8088 	ble.w	8006f1a <_dtoa_r+0x8c2>
 8006e0a:	461a      	mov	r2, r3
 8006e0c:	4601      	mov	r1, r0
 8006e0e:	4620      	mov	r0, r4
 8006e10:	f000 fd2c 	bl	800786c <__pow5mult>
 8006e14:	9b06      	ldr	r3, [sp, #24]
 8006e16:	2b01      	cmp	r3, #1
 8006e18:	4606      	mov	r6, r0
 8006e1a:	f340 8081 	ble.w	8006f20 <_dtoa_r+0x8c8>
 8006e1e:	f04f 0800 	mov.w	r8, #0
 8006e22:	6933      	ldr	r3, [r6, #16]
 8006e24:	eb06 0383 	add.w	r3, r6, r3, lsl #2
 8006e28:	6918      	ldr	r0, [r3, #16]
 8006e2a:	f000 fc0f 	bl	800764c <__hi0bits>
 8006e2e:	f1c0 0020 	rsb	r0, r0, #32
 8006e32:	9b05      	ldr	r3, [sp, #20]
 8006e34:	4418      	add	r0, r3
 8006e36:	f010 001f 	ands.w	r0, r0, #31
 8006e3a:	f000 8092 	beq.w	8006f62 <_dtoa_r+0x90a>
 8006e3e:	f1c0 0320 	rsb	r3, r0, #32
 8006e42:	2b04      	cmp	r3, #4
 8006e44:	f340 808a 	ble.w	8006f5c <_dtoa_r+0x904>
 8006e48:	f1c0 001c 	rsb	r0, r0, #28
 8006e4c:	9b04      	ldr	r3, [sp, #16]
 8006e4e:	4403      	add	r3, r0
 8006e50:	9304      	str	r3, [sp, #16]
 8006e52:	9b05      	ldr	r3, [sp, #20]
 8006e54:	4403      	add	r3, r0
 8006e56:	4405      	add	r5, r0
 8006e58:	9305      	str	r3, [sp, #20]
 8006e5a:	9b04      	ldr	r3, [sp, #16]
 8006e5c:	2b00      	cmp	r3, #0
 8006e5e:	dd07      	ble.n	8006e70 <_dtoa_r+0x818>
 8006e60:	ee18 1a10 	vmov	r1, s16
 8006e64:	461a      	mov	r2, r3
 8006e66:	4620      	mov	r0, r4
 8006e68:	f000 fd5a 	bl	8007920 <__lshift>
 8006e6c:	ee08 0a10 	vmov	s16, r0
 8006e70:	9b05      	ldr	r3, [sp, #20]
 8006e72:	2b00      	cmp	r3, #0
 8006e74:	dd05      	ble.n	8006e82 <_dtoa_r+0x82a>
 8006e76:	4631      	mov	r1, r6
 8006e78:	461a      	mov	r2, r3
 8006e7a:	4620      	mov	r0, r4
 8006e7c:	f000 fd50 	bl	8007920 <__lshift>
 8006e80:	4606      	mov	r6, r0
 8006e82:	9b0b      	ldr	r3, [sp, #44]	; 0x2c
 8006e84:	2b00      	cmp	r3, #0
 8006e86:	d06e      	beq.n	8006f66 <_dtoa_r+0x90e>
 8006e88:	ee18 0a10 	vmov	r0, s16
 8006e8c:	4631      	mov	r1, r6
 8006e8e:	f000 fdb7 	bl	8007a00 <__mcmp>
 8006e92:	2800      	cmp	r0, #0
 8006e94:	da67      	bge.n	8006f66 <_dtoa_r+0x90e>
 8006e96:	9b00      	ldr	r3, [sp, #0]
 8006e98:	3b01      	subs	r3, #1
 8006e9a:	ee18 1a10 	vmov	r1, s16
 8006e9e:	9300      	str	r3, [sp, #0]
 8006ea0:	220a      	movs	r2, #10
 8006ea2:	2300      	movs	r3, #0
 8006ea4:	4620      	mov	r0, r4
 8006ea6:	f000 fb8b 	bl	80075c0 <__multadd>
 8006eaa:	9b08      	ldr	r3, [sp, #32]
 8006eac:	ee08 0a10 	vmov	s16, r0
 8006eb0:	2b00      	cmp	r3, #0
 8006eb2:	f000 81b1 	beq.w	8007218 <_dtoa_r+0xbc0>
 8006eb6:	2300      	movs	r3, #0
 8006eb8:	4639      	mov	r1, r7
 8006eba:	220a      	movs	r2, #10
 8006ebc:	4620      	mov	r0, r4
 8006ebe:	f000 fb7f 	bl	80075c0 <__multadd>
 8006ec2:	9b02      	ldr	r3, [sp, #8]
 8006ec4:	2b00      	cmp	r3, #0
 8006ec6:	4607      	mov	r7, r0
 8006ec8:	f300 808e 	bgt.w	8006fe8 <_dtoa_r+0x990>
 8006ecc:	9b06      	ldr	r3, [sp, #24]
 8006ece:	2b02      	cmp	r3, #2
 8006ed0:	dc51      	bgt.n	8006f76 <_dtoa_r+0x91e>
 8006ed2:	e089      	b.n	8006fe8 <_dtoa_r+0x990>
 8006ed4:	9b10      	ldr	r3, [sp, #64]	; 0x40
 8006ed6:	f1c3 0336 	rsb	r3, r3, #54	; 0x36
 8006eda:	e74b      	b.n	8006d74 <_dtoa_r+0x71c>
 8006edc:	9b03      	ldr	r3, [sp, #12]
 8006ede:	1e5e      	subs	r6, r3, #1
 8006ee0:	9b07      	ldr	r3, [sp, #28]
 8006ee2:	42b3      	cmp	r3, r6
 8006ee4:	bfbf      	itttt	lt
 8006ee6:	9b07      	ldrlt	r3, [sp, #28]
 8006ee8:	9607      	strlt	r6, [sp, #28]
 8006eea:	1af2      	sublt	r2, r6, r3
 8006eec:	9b0a      	ldrlt	r3, [sp, #40]	; 0x28
 8006eee:	bfb6      	itet	lt
 8006ef0:	189b      	addlt	r3, r3, r2
 8006ef2:	1b9e      	subge	r6, r3, r6
 8006ef4:	930a      	strlt	r3, [sp, #40]	; 0x28
 8006ef6:	9b03      	ldr	r3, [sp, #12]
 8006ef8:	bfb8      	it	lt
 8006efa:	2600      	movlt	r6, #0
 8006efc:	2b00      	cmp	r3, #0
 8006efe:	bfb7      	itett	lt
 8006f00:	e9dd 2303 	ldrdlt	r2, r3, [sp, #12]
 8006f04:	e9dd 3503 	ldrdge	r3, r5, [sp, #12]
 8006f08:	1a9d      	sublt	r5, r3, r2
 8006f0a:	2300      	movlt	r3, #0
 8006f0c:	e734      	b.n	8006d78 <_dtoa_r+0x720>
 8006f0e:	9e07      	ldr	r6, [sp, #28]
 8006f10:	9d04      	ldr	r5, [sp, #16]
 8006f12:	9f08      	ldr	r7, [sp, #32]
 8006f14:	e73b      	b.n	8006d8e <_dtoa_r+0x736>
 8006f16:	9a07      	ldr	r2, [sp, #28]
 8006f18:	e767      	b.n	8006dea <_dtoa_r+0x792>
 8006f1a:	9b06      	ldr	r3, [sp, #24]
 8006f1c:	2b01      	cmp	r3, #1
 8006f1e:	dc18      	bgt.n	8006f52 <_dtoa_r+0x8fa>
 8006f20:	f1ba 0f00 	cmp.w	sl, #0
 8006f24:	d115      	bne.n	8006f52 <_dtoa_r+0x8fa>
 8006f26:	f3cb 0313 	ubfx	r3, fp, #0, #20
 8006f2a:	b993      	cbnz	r3, 8006f52 <_dtoa_r+0x8fa>
 8006f2c:	f02b 4300 	bic.w	r3, fp, #2147483648	; 0x80000000
 8006f30:	0d1b      	lsrs	r3, r3, #20
 8006f32:	051b      	lsls	r3, r3, #20
 8006f34:	b183      	cbz	r3, 8006f58 <_dtoa_r+0x900>
 8006f36:	9b04      	ldr	r3, [sp, #16]
 8006f38:	3301      	adds	r3, #1
 8006f3a:	9304      	str	r3, [sp, #16]
 8006f3c:	9b05      	ldr	r3, [sp, #20]
 8006f3e:	3301      	adds	r3, #1
 8006f40:	9305      	str	r3, [sp, #20]
 8006f42:	f04f 0801 	mov.w	r8, #1
 8006f46:	9b0a      	ldr	r3, [sp, #40]	; 0x28
 8006f48:	2b00      	cmp	r3, #0
 8006f4a:	f47f af6a 	bne.w	8006e22 <_dtoa_r+0x7ca>
 8006f4e:	2001      	movs	r0, #1
 8006f50:	e76f      	b.n	8006e32 <_dtoa_r+0x7da>
 8006f52:	f04f 0800 	mov.w	r8, #0
 8006f56:	e7f6      	b.n	8006f46 <_dtoa_r+0x8ee>
 8006f58:	4698      	mov	r8, r3
 8006f5a:	e7f4      	b.n	8006f46 <_dtoa_r+0x8ee>
 8006f5c:	f43f af7d 	beq.w	8006e5a <_dtoa_r+0x802>
 8006f60:	4618      	mov	r0, r3
 8006f62:	301c      	adds	r0, #28
 8006f64:	e772      	b.n	8006e4c <_dtoa_r+0x7f4>
 8006f66:	9b03      	ldr	r3, [sp, #12]
 8006f68:	2b00      	cmp	r3, #0
 8006f6a:	dc37      	bgt.n	8006fdc <_dtoa_r+0x984>
 8006f6c:	9b06      	ldr	r3, [sp, #24]
 8006f6e:	2b02      	cmp	r3, #2
 8006f70:	dd34      	ble.n	8006fdc <_dtoa_r+0x984>
 8006f72:	9b03      	ldr	r3, [sp, #12]
 8006f74:	9302      	str	r3, [sp, #8]
 8006f76:	9b02      	ldr	r3, [sp, #8]
 8006f78:	b96b      	cbnz	r3, 8006f96 <_dtoa_r+0x93e>
 8006f7a:	4631      	mov	r1, r6
 8006f7c:	2205      	movs	r2, #5
 8006f7e:	4620      	mov	r0, r4
 8006f80:	f000 fb1e 	bl	80075c0 <__multadd>
 8006f84:	4601      	mov	r1, r0
 8006f86:	4606      	mov	r6, r0
 8006f88:	ee18 0a10 	vmov	r0, s16
 8006f8c:	f000 fd38 	bl	8007a00 <__mcmp>
 8006f90:	2800      	cmp	r0, #0
 8006f92:	f73f adbb 	bgt.w	8006b0c <_dtoa_r+0x4b4>
 8006f96:	9b09      	ldr	r3, [sp, #36]	; 0x24
 8006f98:	9d01      	ldr	r5, [sp, #4]
 8006f9a:	43db      	mvns	r3, r3
 8006f9c:	9300      	str	r3, [sp, #0]
 8006f9e:	f04f 0800 	mov.w	r8, #0
 8006fa2:	4631      	mov	r1, r6
 8006fa4:	4620      	mov	r0, r4
 8006fa6:	f000 fae9 	bl	800757c <_Bfree>
 8006faa:	2f00      	cmp	r7, #0
 8006fac:	f43f aea4 	beq.w	8006cf8 <_dtoa_r+0x6a0>
 8006fb0:	f1b8 0f00 	cmp.w	r8, #0
 8006fb4:	d005      	beq.n	8006fc2 <_dtoa_r+0x96a>
 8006fb6:	45b8      	cmp	r8, r7
 8006fb8:	d003      	beq.n	8006fc2 <_dtoa_r+0x96a>
 8006fba:	4641      	mov	r1, r8
 8006fbc:	4620      	mov	r0, r4
 8006fbe:	f000 fadd 	bl	800757c <_Bfree>
 8006fc2:	4639      	mov	r1, r7
 8006fc4:	4620      	mov	r0, r4
 8006fc6:	f000 fad9 	bl	800757c <_Bfree>
 8006fca:	e695      	b.n	8006cf8 <_dtoa_r+0x6a0>
 8006fcc:	2600      	movs	r6, #0
 8006fce:	4637      	mov	r7, r6
 8006fd0:	e7e1      	b.n	8006f96 <_dtoa_r+0x93e>
 8006fd2:	9700      	str	r7, [sp, #0]
 8006fd4:	4637      	mov	r7, r6
 8006fd6:	e599      	b.n	8006b0c <_dtoa_r+0x4b4>
 8006fd8:	40240000 	.word	0x40240000
 8006fdc:	9b08      	ldr	r3, [sp, #32]
 8006fde:	2b00      	cmp	r3, #0
 8006fe0:	f000 80ca 	beq.w	8007178 <_dtoa_r+0xb20>
 8006fe4:	9b03      	ldr	r3, [sp, #12]
 8006fe6:	9302      	str	r3, [sp, #8]
 8006fe8:	2d00      	cmp	r5, #0
 8006fea:	dd05      	ble.n	8006ff8 <_dtoa_r+0x9a0>
 8006fec:	4639      	mov	r1, r7
 8006fee:	462a      	mov	r2, r5
 8006ff0:	4620      	mov	r0, r4
 8006ff2:	f000 fc95 	bl	8007920 <__lshift>
 8006ff6:	4607      	mov	r7, r0
 8006ff8:	f1b8 0f00 	cmp.w	r8, #0
 8006ffc:	d05b      	beq.n	80070b6 <_dtoa_r+0xa5e>
 8006ffe:	6879      	ldr	r1, [r7, #4]
 8007000:	4620      	mov	r0, r4
 8007002:	f000 fa7b 	bl	80074fc <_Balloc>
 8007006:	4605      	mov	r5, r0
 8007008:	b928      	cbnz	r0, 8007016 <_dtoa_r+0x9be>
 800700a:	4b87      	ldr	r3, [pc, #540]	; (8007228 <_dtoa_r+0xbd0>)
 800700c:	4602      	mov	r2, r0
 800700e:	f240 21ea 	movw	r1, #746	; 0x2ea
 8007012:	f7ff bb3b 	b.w	800668c <_dtoa_r+0x34>
 8007016:	693a      	ldr	r2, [r7, #16]
 8007018:	3202      	adds	r2, #2
 800701a:	0092      	lsls	r2, r2, #2
 800701c:	f107 010c 	add.w	r1, r7, #12
 8007020:	300c      	adds	r0, #12
 8007022:	f7fe fbee 	bl	8005802 <memcpy>
 8007026:	2201      	movs	r2, #1
 8007028:	4629      	mov	r1, r5
 800702a:	4620      	mov	r0, r4
 800702c:	f000 fc78 	bl	8007920 <__lshift>
 8007030:	9b01      	ldr	r3, [sp, #4]
 8007032:	f103 0901 	add.w	r9, r3, #1
 8007036:	e9dd 2301 	ldrd	r2, r3, [sp, #4]
 800703a:	4413      	add	r3, r2
 800703c:	9305      	str	r3, [sp, #20]
 800703e:	f00a 0301 	and.w	r3, sl, #1
 8007042:	46b8      	mov	r8, r7
 8007044:	9304      	str	r3, [sp, #16]
 8007046:	4607      	mov	r7, r0
 8007048:	4631      	mov	r1, r6
 800704a:	ee18 0a10 	vmov	r0, s16
 800704e:	f7ff fa75 	bl	800653c <quorem>
 8007052:	4641      	mov	r1, r8
 8007054:	9002      	str	r0, [sp, #8]
 8007056:	f100 0a30 	add.w	sl, r0, #48	; 0x30
 800705a:	ee18 0a10 	vmov	r0, s16
 800705e:	f000 fccf 	bl	8007a00 <__mcmp>
 8007062:	463a      	mov	r2, r7
 8007064:	9003      	str	r0, [sp, #12]
 8007066:	4631      	mov	r1, r6
 8007068:	4620      	mov	r0, r4
 800706a:	f000 fce5 	bl	8007a38 <__mdiff>
 800706e:	68c2      	ldr	r2, [r0, #12]
 8007070:	f109 3bff 	add.w	fp, r9, #4294967295
 8007074:	4605      	mov	r5, r0
 8007076:	bb02      	cbnz	r2, 80070ba <_dtoa_r+0xa62>
 8007078:	4601      	mov	r1, r0
 800707a:	ee18 0a10 	vmov	r0, s16
 800707e:	f000 fcbf 	bl	8007a00 <__mcmp>
 8007082:	4602      	mov	r2, r0
 8007084:	4629      	mov	r1, r5
 8007086:	4620      	mov	r0, r4
 8007088:	9207      	str	r2, [sp, #28]
 800708a:	f000 fa77 	bl	800757c <_Bfree>
 800708e:	e9dd 3206 	ldrd	r3, r2, [sp, #24]
 8007092:	ea43 0102 	orr.w	r1, r3, r2
 8007096:	9b04      	ldr	r3, [sp, #16]
 8007098:	430b      	orrs	r3, r1
 800709a:	464d      	mov	r5, r9
 800709c:	d10f      	bne.n	80070be <_dtoa_r+0xa66>
 800709e:	f1ba 0f39 	cmp.w	sl, #57	; 0x39
 80070a2:	d02a      	beq.n	80070fa <_dtoa_r+0xaa2>
 80070a4:	9b03      	ldr	r3, [sp, #12]
 80070a6:	2b00      	cmp	r3, #0
 80070a8:	dd02      	ble.n	80070b0 <_dtoa_r+0xa58>
 80070aa:	9b02      	ldr	r3, [sp, #8]
 80070ac:	f103 0a31 	add.w	sl, r3, #49	; 0x31
 80070b0:	f88b a000 	strb.w	sl, [fp]
 80070b4:	e775      	b.n	8006fa2 <_dtoa_r+0x94a>
 80070b6:	4638      	mov	r0, r7
 80070b8:	e7ba      	b.n	8007030 <_dtoa_r+0x9d8>
 80070ba:	2201      	movs	r2, #1
 80070bc:	e7e2      	b.n	8007084 <_dtoa_r+0xa2c>
 80070be:	9b03      	ldr	r3, [sp, #12]
 80070c0:	2b00      	cmp	r3, #0
 80070c2:	db04      	blt.n	80070ce <_dtoa_r+0xa76>
 80070c4:	9906      	ldr	r1, [sp, #24]
 80070c6:	430b      	orrs	r3, r1
 80070c8:	9904      	ldr	r1, [sp, #16]
 80070ca:	430b      	orrs	r3, r1
 80070cc:	d122      	bne.n	8007114 <_dtoa_r+0xabc>
 80070ce:	2a00      	cmp	r2, #0
 80070d0:	ddee      	ble.n	80070b0 <_dtoa_r+0xa58>
 80070d2:	ee18 1a10 	vmov	r1, s16
 80070d6:	2201      	movs	r2, #1
 80070d8:	4620      	mov	r0, r4
 80070da:	f000 fc21 	bl	8007920 <__lshift>
 80070de:	4631      	mov	r1, r6
 80070e0:	ee08 0a10 	vmov	s16, r0
 80070e4:	f000 fc8c 	bl	8007a00 <__mcmp>
 80070e8:	2800      	cmp	r0, #0
 80070ea:	dc03      	bgt.n	80070f4 <_dtoa_r+0xa9c>
 80070ec:	d1e0      	bne.n	80070b0 <_dtoa_r+0xa58>
 80070ee:	f01a 0f01 	tst.w	sl, #1
 80070f2:	d0dd      	beq.n	80070b0 <_dtoa_r+0xa58>
 80070f4:	f1ba 0f39 	cmp.w	sl, #57	; 0x39
 80070f8:	d1d7      	bne.n	80070aa <_dtoa_r+0xa52>
 80070fa:	2339      	movs	r3, #57	; 0x39
 80070fc:	f88b 3000 	strb.w	r3, [fp]
 8007100:	462b      	mov	r3, r5
 8007102:	461d      	mov	r5, r3
 8007104:	3b01      	subs	r3, #1
 8007106:	f815 2c01 	ldrb.w	r2, [r5, #-1]
 800710a:	2a39      	cmp	r2, #57	; 0x39
 800710c:	d071      	beq.n	80071f2 <_dtoa_r+0xb9a>
 800710e:	3201      	adds	r2, #1
 8007110:	701a      	strb	r2, [r3, #0]
 8007112:	e746      	b.n	8006fa2 <_dtoa_r+0x94a>
 8007114:	2a00      	cmp	r2, #0
 8007116:	dd07      	ble.n	8007128 <_dtoa_r+0xad0>
 8007118:	f1ba 0f39 	cmp.w	sl, #57	; 0x39
 800711c:	d0ed      	beq.n	80070fa <_dtoa_r+0xaa2>
 800711e:	f10a 0301 	add.w	r3, sl, #1
 8007122:	f88b 3000 	strb.w	r3, [fp]
 8007126:	e73c      	b.n	8006fa2 <_dtoa_r+0x94a>
 8007128:	9b05      	ldr	r3, [sp, #20]
 800712a:	f809 ac01 	strb.w	sl, [r9, #-1]
 800712e:	4599      	cmp	r9, r3
 8007130:	d047      	beq.n	80071c2 <_dtoa_r+0xb6a>
 8007132:	ee18 1a10 	vmov	r1, s16
 8007136:	2300      	movs	r3, #0
 8007138:	220a      	movs	r2, #10
 800713a:	4620      	mov	r0, r4
 800713c:	f000 fa40 	bl	80075c0 <__multadd>
 8007140:	45b8      	cmp	r8, r7
 8007142:	ee08 0a10 	vmov	s16, r0
 8007146:	f04f 0300 	mov.w	r3, #0
 800714a:	f04f 020a 	mov.w	r2, #10
 800714e:	4641      	mov	r1, r8
 8007150:	4620      	mov	r0, r4
 8007152:	d106      	bne.n	8007162 <_dtoa_r+0xb0a>
 8007154:	f000 fa34 	bl	80075c0 <__multadd>
 8007158:	4680      	mov	r8, r0
 800715a:	4607      	mov	r7, r0
 800715c:	f109 0901 	add.w	r9, r9, #1
 8007160:	e772      	b.n	8007048 <_dtoa_r+0x9f0>
 8007162:	f000 fa2d 	bl	80075c0 <__multadd>
 8007166:	4639      	mov	r1, r7
 8007168:	4680      	mov	r8, r0
 800716a:	2300      	movs	r3, #0
 800716c:	220a      	movs	r2, #10
 800716e:	4620      	mov	r0, r4
 8007170:	f000 fa26 	bl	80075c0 <__multadd>
 8007174:	4607      	mov	r7, r0
 8007176:	e7f1      	b.n	800715c <_dtoa_r+0xb04>
 8007178:	9b03      	ldr	r3, [sp, #12]
 800717a:	9302      	str	r3, [sp, #8]
 800717c:	9d01      	ldr	r5, [sp, #4]
 800717e:	ee18 0a10 	vmov	r0, s16
 8007182:	4631      	mov	r1, r6
 8007184:	f7ff f9da 	bl	800653c <quorem>
 8007188:	f100 0a30 	add.w	sl, r0, #48	; 0x30
 800718c:	9b01      	ldr	r3, [sp, #4]
 800718e:	f805 ab01 	strb.w	sl, [r5], #1
 8007192:	1aea      	subs	r2, r5, r3
 8007194:	9b02      	ldr	r3, [sp, #8]
 8007196:	4293      	cmp	r3, r2
 8007198:	dd09      	ble.n	80071ae <_dtoa_r+0xb56>
 800719a:	ee18 1a10 	vmov	r1, s16
 800719e:	2300      	movs	r3, #0
 80071a0:	220a      	movs	r2, #10
 80071a2:	4620      	mov	r0, r4
 80071a4:	f000 fa0c 	bl	80075c0 <__multadd>
 80071a8:	ee08 0a10 	vmov	s16, r0
 80071ac:	e7e7      	b.n	800717e <_dtoa_r+0xb26>
 80071ae:	9b02      	ldr	r3, [sp, #8]
 80071b0:	2b00      	cmp	r3, #0
 80071b2:	bfc8      	it	gt
 80071b4:	461d      	movgt	r5, r3
 80071b6:	9b01      	ldr	r3, [sp, #4]
 80071b8:	bfd8      	it	le
 80071ba:	2501      	movle	r5, #1
 80071bc:	441d      	add	r5, r3
 80071be:	f04f 0800 	mov.w	r8, #0
 80071c2:	ee18 1a10 	vmov	r1, s16
 80071c6:	2201      	movs	r2, #1
 80071c8:	4620      	mov	r0, r4
 80071ca:	f000 fba9 	bl	8007920 <__lshift>
 80071ce:	4631      	mov	r1, r6
 80071d0:	ee08 0a10 	vmov	s16, r0
 80071d4:	f000 fc14 	bl	8007a00 <__mcmp>
 80071d8:	2800      	cmp	r0, #0
 80071da:	dc91      	bgt.n	8007100 <_dtoa_r+0xaa8>
 80071dc:	d102      	bne.n	80071e4 <_dtoa_r+0xb8c>
 80071de:	f01a 0f01 	tst.w	sl, #1
 80071e2:	d18d      	bne.n	8007100 <_dtoa_r+0xaa8>
 80071e4:	462b      	mov	r3, r5
 80071e6:	461d      	mov	r5, r3
 80071e8:	f813 2d01 	ldrb.w	r2, [r3, #-1]!
 80071ec:	2a30      	cmp	r2, #48	; 0x30
 80071ee:	d0fa      	beq.n	80071e6 <_dtoa_r+0xb8e>
 80071f0:	e6d7      	b.n	8006fa2 <_dtoa_r+0x94a>
 80071f2:	9a01      	ldr	r2, [sp, #4]
 80071f4:	429a      	cmp	r2, r3
 80071f6:	d184      	bne.n	8007102 <_dtoa_r+0xaaa>
 80071f8:	9b00      	ldr	r3, [sp, #0]
 80071fa:	3301      	adds	r3, #1
 80071fc:	9300      	str	r3, [sp, #0]
 80071fe:	2331      	movs	r3, #49	; 0x31
 8007200:	7013      	strb	r3, [r2, #0]
 8007202:	e6ce      	b.n	8006fa2 <_dtoa_r+0x94a>
 8007204:	4b09      	ldr	r3, [pc, #36]	; (800722c <_dtoa_r+0xbd4>)
 8007206:	f7ff ba95 	b.w	8006734 <_dtoa_r+0xdc>
 800720a:	9b21      	ldr	r3, [sp, #132]	; 0x84
 800720c:	2b00      	cmp	r3, #0
 800720e:	f47f aa6e 	bne.w	80066ee <_dtoa_r+0x96>
 8007212:	4b07      	ldr	r3, [pc, #28]	; (8007230 <_dtoa_r+0xbd8>)
 8007214:	f7ff ba8e 	b.w	8006734 <_dtoa_r+0xdc>
 8007218:	9b02      	ldr	r3, [sp, #8]
 800721a:	2b00      	cmp	r3, #0
 800721c:	dcae      	bgt.n	800717c <_dtoa_r+0xb24>
 800721e:	9b06      	ldr	r3, [sp, #24]
 8007220:	2b02      	cmp	r3, #2
 8007222:	f73f aea8 	bgt.w	8006f76 <_dtoa_r+0x91e>
 8007226:	e7a9      	b.n	800717c <_dtoa_r+0xb24>
 8007228:	080087f3 	.word	0x080087f3
 800722c:	08008714 	.word	0x08008714
 8007230:	08008774 	.word	0x08008774

08007234 <__sflush_r>:
 8007234:	898a      	ldrh	r2, [r1, #12]
 8007236:	e92d 41f0 	stmdb	sp!, {r4, r5, r6, r7, r8, lr}
 800723a:	4605      	mov	r5, r0
 800723c:	0710      	lsls	r0, r2, #28
 800723e:	460c      	mov	r4, r1
 8007240:	d458      	bmi.n	80072f4 <__sflush_r+0xc0>
 8007242:	684b      	ldr	r3, [r1, #4]
 8007244:	2b00      	cmp	r3, #0
 8007246:	dc05      	bgt.n	8007254 <__sflush_r+0x20>
 8007248:	6c0b      	ldr	r3, [r1, #64]	; 0x40
 800724a:	2b00      	cmp	r3, #0
 800724c:	dc02      	bgt.n	8007254 <__sflush_r+0x20>
 800724e:	2000      	movs	r0, #0
 8007250:	e8bd 81f0 	ldmia.w	sp!, {r4, r5, r6, r7, r8, pc}
 8007254:	6ae6      	ldr	r6, [r4, #44]	; 0x2c
 8007256:	2e00      	cmp	r6, #0
 8007258:	d0f9      	beq.n	800724e <__sflush_r+0x1a>
 800725a:	2300      	movs	r3, #0
 800725c:	f412 5280 	ands.w	r2, r2, #4096	; 0x1000
 8007260:	682f      	ldr	r7, [r5, #0]
 8007262:	602b      	str	r3, [r5, #0]
 8007264:	d032      	beq.n	80072cc <__sflush_r+0x98>
 8007266:	6d60      	ldr	r0, [r4, #84]	; 0x54
 8007268:	89a3      	ldrh	r3, [r4, #12]
 800726a:	075a      	lsls	r2, r3, #29
 800726c:	d505      	bpl.n	800727a <__sflush_r+0x46>
 800726e:	6863      	ldr	r3, [r4, #4]
 8007270:	1ac0      	subs	r0, r0, r3
 8007272:	6b63      	ldr	r3, [r4, #52]	; 0x34
 8007274:	b10b      	cbz	r3, 800727a <__sflush_r+0x46>
 8007276:	6c23      	ldr	r3, [r4, #64]	; 0x40
 8007278:	1ac0      	subs	r0, r0, r3
 800727a:	2300      	movs	r3, #0
 800727c:	4602      	mov	r2, r0
 800727e:	6ae6      	ldr	r6, [r4, #44]	; 0x2c
 8007280:	6a21      	ldr	r1, [r4, #32]
 8007282:	4628      	mov	r0, r5
 8007284:	47b0      	blx	r6
 8007286:	1c43      	adds	r3, r0, #1
 8007288:	89a3      	ldrh	r3, [r4, #12]
 800728a:	d106      	bne.n	800729a <__sflush_r+0x66>
 800728c:	6829      	ldr	r1, [r5, #0]
 800728e:	291d      	cmp	r1, #29
 8007290:	d82c      	bhi.n	80072ec <__sflush_r+0xb8>
 8007292:	4a2a      	ldr	r2, [pc, #168]	; (800733c <__sflush_r+0x108>)
 8007294:	40ca      	lsrs	r2, r1
 8007296:	07d6      	lsls	r6, r2, #31
 8007298:	d528      	bpl.n	80072ec <__sflush_r+0xb8>
 800729a:	2200      	movs	r2, #0
 800729c:	6062      	str	r2, [r4, #4]
 800729e:	04d9      	lsls	r1, r3, #19
 80072a0:	6922      	ldr	r2, [r4, #16]
 80072a2:	6022      	str	r2, [r4, #0]
 80072a4:	d504      	bpl.n	80072b0 <__sflush_r+0x7c>
 80072a6:	1c42      	adds	r2, r0, #1
 80072a8:	d101      	bne.n	80072ae <__sflush_r+0x7a>
 80072aa:	682b      	ldr	r3, [r5, #0]
 80072ac:	b903      	cbnz	r3, 80072b0 <__sflush_r+0x7c>
 80072ae:	6560      	str	r0, [r4, #84]	; 0x54
 80072b0:	6b61      	ldr	r1, [r4, #52]	; 0x34
 80072b2:	602f      	str	r7, [r5, #0]
 80072b4:	2900      	cmp	r1, #0
 80072b6:	d0ca      	beq.n	800724e <__sflush_r+0x1a>
 80072b8:	f104 0344 	add.w	r3, r4, #68	; 0x44
 80072bc:	4299      	cmp	r1, r3
 80072be:	d002      	beq.n	80072c6 <__sflush_r+0x92>
 80072c0:	4628      	mov	r0, r5
 80072c2:	f000 fcb5 	bl	8007c30 <_free_r>
 80072c6:	2000      	movs	r0, #0
 80072c8:	6360      	str	r0, [r4, #52]	; 0x34
 80072ca:	e7c1      	b.n	8007250 <__sflush_r+0x1c>
 80072cc:	6a21      	ldr	r1, [r4, #32]
 80072ce:	2301      	movs	r3, #1
 80072d0:	4628      	mov	r0, r5
 80072d2:	47b0      	blx	r6
 80072d4:	1c41      	adds	r1, r0, #1
 80072d6:	d1c7      	bne.n	8007268 <__sflush_r+0x34>
 80072d8:	682b      	ldr	r3, [r5, #0]
 80072da:	2b00      	cmp	r3, #0
 80072dc:	d0c4      	beq.n	8007268 <__sflush_r+0x34>
 80072de:	2b1d      	cmp	r3, #29
 80072e0:	d001      	beq.n	80072e6 <__sflush_r+0xb2>
 80072e2:	2b16      	cmp	r3, #22
 80072e4:	d101      	bne.n	80072ea <__sflush_r+0xb6>
 80072e6:	602f      	str	r7, [r5, #0]
 80072e8:	e7b1      	b.n	800724e <__sflush_r+0x1a>
 80072ea:	89a3      	ldrh	r3, [r4, #12]
 80072ec:	f043 0340 	orr.w	r3, r3, #64	; 0x40
 80072f0:	81a3      	strh	r3, [r4, #12]
 80072f2:	e7ad      	b.n	8007250 <__sflush_r+0x1c>
 80072f4:	690f      	ldr	r7, [r1, #16]
 80072f6:	2f00      	cmp	r7, #0
 80072f8:	d0a9      	beq.n	800724e <__sflush_r+0x1a>
 80072fa:	0793      	lsls	r3, r2, #30
 80072fc:	680e      	ldr	r6, [r1, #0]
 80072fe:	bf08      	it	eq
 8007300:	694b      	ldreq	r3, [r1, #20]
 8007302:	600f      	str	r7, [r1, #0]
 8007304:	bf18      	it	ne
 8007306:	2300      	movne	r3, #0
 8007308:	eba6 0807 	sub.w	r8, r6, r7
 800730c:	608b      	str	r3, [r1, #8]
 800730e:	f1b8 0f00 	cmp.w	r8, #0
 8007312:	dd9c      	ble.n	800724e <__sflush_r+0x1a>
 8007314:	6a21      	ldr	r1, [r4, #32]
 8007316:	6aa6      	ldr	r6, [r4, #40]	; 0x28
 8007318:	4643      	mov	r3, r8
 800731a:	463a      	mov	r2, r7
 800731c:	4628      	mov	r0, r5
 800731e:	47b0      	blx	r6
 8007320:	2800      	cmp	r0, #0
 8007322:	dc06      	bgt.n	8007332 <__sflush_r+0xfe>
 8007324:	89a3      	ldrh	r3, [r4, #12]
 8007326:	f043 0340 	orr.w	r3, r3, #64	; 0x40
 800732a:	81a3      	strh	r3, [r4, #12]
 800732c:	f04f 30ff 	mov.w	r0, #4294967295
 8007330:	e78e      	b.n	8007250 <__sflush_r+0x1c>
 8007332:	4407      	add	r7, r0
 8007334:	eba8 0800 	sub.w	r8, r8, r0
 8007338:	e7e9      	b.n	800730e <__sflush_r+0xda>
 800733a:	bf00      	nop
 800733c:	20400001 	.word	0x20400001

08007340 <_fflush_r>:
 8007340:	b538      	push	{r3, r4, r5, lr}
 8007342:	690b      	ldr	r3, [r1, #16]
 8007344:	4605      	mov	r5, r0
 8007346:	460c      	mov	r4, r1
 8007348:	b913      	cbnz	r3, 8007350 <_fflush_r+0x10>
 800734a:	2500      	movs	r5, #0
 800734c:	4628      	mov	r0, r5
 800734e:	bd38      	pop	{r3, r4, r5, pc}
 8007350:	b118      	cbz	r0, 800735a <_fflush_r+0x1a>
 8007352:	6983      	ldr	r3, [r0, #24]
 8007354:	b90b      	cbnz	r3, 800735a <_fflush_r+0x1a>
 8007356:	f7fe f98f 	bl	8005678 <__sinit>
 800735a:	4b14      	ldr	r3, [pc, #80]	; (80073ac <_fflush_r+0x6c>)
 800735c:	429c      	cmp	r4, r3
 800735e:	d11b      	bne.n	8007398 <_fflush_r+0x58>
 8007360:	686c      	ldr	r4, [r5, #4]
 8007362:	f9b4 300c 	ldrsh.w	r3, [r4, #12]
 8007366:	2b00      	cmp	r3, #0
 8007368:	d0ef      	beq.n	800734a <_fflush_r+0xa>
 800736a:	6e62      	ldr	r2, [r4, #100]	; 0x64
 800736c:	07d0      	lsls	r0, r2, #31
 800736e:	d404      	bmi.n	800737a <_fflush_r+0x3a>
 8007370:	0599      	lsls	r1, r3, #22
 8007372:	d402      	bmi.n	800737a <_fflush_r+0x3a>
 8007374:	6da0      	ldr	r0, [r4, #88]	; 0x58
 8007376:	f7fe fa42 	bl	80057fe <__retarget_lock_acquire_recursive>
 800737a:	4628      	mov	r0, r5
 800737c:	4621      	mov	r1, r4
 800737e:	f7ff ff59 	bl	8007234 <__sflush_r>
 8007382:	6e63      	ldr	r3, [r4, #100]	; 0x64
 8007384:	07da      	lsls	r2, r3, #31
 8007386:	4605      	mov	r5, r0
 8007388:	d4e0      	bmi.n	800734c <_fflush_r+0xc>
 800738a:	89a3      	ldrh	r3, [r4, #12]
 800738c:	059b      	lsls	r3, r3, #22
 800738e:	d4dd      	bmi.n	800734c <_fflush_r+0xc>
 8007390:	6da0      	ldr	r0, [r4, #88]	; 0x58
 8007392:	f7fe fa35 	bl	8005800 <__retarget_lock_release_recursive>
 8007396:	e7d9      	b.n	800734c <_fflush_r+0xc>
 8007398:	4b05      	ldr	r3, [pc, #20]	; (80073b0 <_fflush_r+0x70>)
 800739a:	429c      	cmp	r4, r3
 800739c:	d101      	bne.n	80073a2 <_fflush_r+0x62>
 800739e:	68ac      	ldr	r4, [r5, #8]
 80073a0:	e7df      	b.n	8007362 <_fflush_r+0x22>
 80073a2:	4b04      	ldr	r3, [pc, #16]	; (80073b4 <_fflush_r+0x74>)
 80073a4:	429c      	cmp	r4, r3
 80073a6:	bf08      	it	eq
 80073a8:	68ec      	ldreq	r4, [r5, #12]
 80073aa:	e7da      	b.n	8007362 <_fflush_r+0x22>
 80073ac:	080086c0 	.word	0x080086c0
 80073b0:	080086e0 	.word	0x080086e0
 80073b4:	080086a0 	.word	0x080086a0

080073b8 <fiprintf>:
 80073b8:	b40e      	push	{r1, r2, r3}
 80073ba:	b503      	push	{r0, r1, lr}
 80073bc:	4601      	mov	r1, r0
 80073be:	ab03      	add	r3, sp, #12
 80073c0:	4805      	ldr	r0, [pc, #20]	; (80073d8 <fiprintf+0x20>)
 80073c2:	f853 2b04 	ldr.w	r2, [r3], #4
 80073c6:	6800      	ldr	r0, [r0, #0]
 80073c8:	9301      	str	r3, [sp, #4]
 80073ca:	f000 fe03 	bl	8007fd4 <_vfiprintf_r>
 80073ce:	b002      	add	sp, #8
 80073d0:	f85d eb04 	ldr.w	lr, [sp], #4
 80073d4:	b003      	add	sp, #12
 80073d6:	4770      	bx	lr
 80073d8:	200000d4 	.word	0x200000d4

080073dc <_localeconv_r>:
 80073dc:	4800      	ldr	r0, [pc, #0]	; (80073e0 <_localeconv_r+0x4>)
 80073de:	4770      	bx	lr
 80073e0:	20000228 	.word	0x20000228

080073e4 <_lseek_r>:
 80073e4:	b538      	push	{r3, r4, r5, lr}
 80073e6:	4d07      	ldr	r5, [pc, #28]	; (8007404 <_lseek_r+0x20>)
 80073e8:	4604      	mov	r4, r0
 80073ea:	4608      	mov	r0, r1
 80073ec:	4611      	mov	r1, r2
 80073ee:	2200      	movs	r2, #0
 80073f0:	602a      	str	r2, [r5, #0]
 80073f2:	461a      	mov	r2, r3
 80073f4:	f7fe f82b 	bl	800544e <_lseek>
 80073f8:	1c43      	adds	r3, r0, #1
 80073fa:	d102      	bne.n	8007402 <_lseek_r+0x1e>
 80073fc:	682b      	ldr	r3, [r5, #0]
 80073fe:	b103      	cbz	r3, 8007402 <_lseek_r+0x1e>
 8007400:	6023      	str	r3, [r4, #0]
 8007402:	bd38      	pop	{r3, r4, r5, pc}
 8007404:	2000065c 	.word	0x2000065c

08007408 <__swhatbuf_r>:
 8007408:	b570      	push	{r4, r5, r6, lr}
 800740a:	460e      	mov	r6, r1
 800740c:	f9b1 100e 	ldrsh.w	r1, [r1, #14]
 8007410:	2900      	cmp	r1, #0
 8007412:	b096      	sub	sp, #88	; 0x58
 8007414:	4614      	mov	r4, r2
 8007416:	461d      	mov	r5, r3
 8007418:	da08      	bge.n	800742c <__swhatbuf_r+0x24>
 800741a:	f9b6 300c 	ldrsh.w	r3, [r6, #12]
 800741e:	2200      	movs	r2, #0
 8007420:	602a      	str	r2, [r5, #0]
 8007422:	061a      	lsls	r2, r3, #24
 8007424:	d410      	bmi.n	8007448 <__swhatbuf_r+0x40>
 8007426:	f44f 6380 	mov.w	r3, #1024	; 0x400
 800742a:	e00e      	b.n	800744a <__swhatbuf_r+0x42>
 800742c:	466a      	mov	r2, sp
 800742e:	f000 ff1b 	bl	8008268 <_fstat_r>
 8007432:	2800      	cmp	r0, #0
 8007434:	dbf1      	blt.n	800741a <__swhatbuf_r+0x12>
 8007436:	9a01      	ldr	r2, [sp, #4]
 8007438:	f402 4270 	and.w	r2, r2, #61440	; 0xf000
 800743c:	f5a2 5300 	sub.w	r3, r2, #8192	; 0x2000
 8007440:	425a      	negs	r2, r3
 8007442:	415a      	adcs	r2, r3
 8007444:	602a      	str	r2, [r5, #0]
 8007446:	e7ee      	b.n	8007426 <__swhatbuf_r+0x1e>
 8007448:	2340      	movs	r3, #64	; 0x40
 800744a:	2000      	movs	r0, #0
 800744c:	6023      	str	r3, [r4, #0]
 800744e:	b016      	add	sp, #88	; 0x58
 8007450:	bd70      	pop	{r4, r5, r6, pc}
	...

08007454 <__smakebuf_r>:
 8007454:	898b      	ldrh	r3, [r1, #12]
 8007456:	b573      	push	{r0, r1, r4, r5, r6, lr}
 8007458:	079d      	lsls	r5, r3, #30
 800745a:	4606      	mov	r6, r0
 800745c:	460c      	mov	r4, r1
 800745e:	d507      	bpl.n	8007470 <__smakebuf_r+0x1c>
 8007460:	f104 0347 	add.w	r3, r4, #71	; 0x47
 8007464:	6023      	str	r3, [r4, #0]
 8007466:	6123      	str	r3, [r4, #16]
 8007468:	2301      	movs	r3, #1
 800746a:	6163      	str	r3, [r4, #20]
 800746c:	b002      	add	sp, #8
 800746e:	bd70      	pop	{r4, r5, r6, pc}
 8007470:	ab01      	add	r3, sp, #4
 8007472:	466a      	mov	r2, sp
 8007474:	f7ff ffc8 	bl	8007408 <__swhatbuf_r>
 8007478:	9900      	ldr	r1, [sp, #0]
 800747a:	4605      	mov	r5, r0
 800747c:	4630      	mov	r0, r6
 800747e:	f7fe f9f7 	bl	8005870 <_malloc_r>
 8007482:	b948      	cbnz	r0, 8007498 <__smakebuf_r+0x44>
 8007484:	f9b4 300c 	ldrsh.w	r3, [r4, #12]
 8007488:	059a      	lsls	r2, r3, #22
 800748a:	d4ef      	bmi.n	800746c <__smakebuf_r+0x18>
 800748c:	f023 0303 	bic.w	r3, r3, #3
 8007490:	f043 0302 	orr.w	r3, r3, #2
 8007494:	81a3      	strh	r3, [r4, #12]
 8007496:	e7e3      	b.n	8007460 <__smakebuf_r+0xc>
 8007498:	4b0d      	ldr	r3, [pc, #52]	; (80074d0 <__smakebuf_r+0x7c>)
 800749a:	62b3      	str	r3, [r6, #40]	; 0x28
 800749c:	89a3      	ldrh	r3, [r4, #12]
 800749e:	6020      	str	r0, [r4, #0]
 80074a0:	f043 0380 	orr.w	r3, r3, #128	; 0x80
 80074a4:	81a3      	strh	r3, [r4, #12]
 80074a6:	9b00      	ldr	r3, [sp, #0]
 80074a8:	6163      	str	r3, [r4, #20]
 80074aa:	9b01      	ldr	r3, [sp, #4]
 80074ac:	6120      	str	r0, [r4, #16]
 80074ae:	b15b      	cbz	r3, 80074c8 <__smakebuf_r+0x74>
 80074b0:	f9b4 100e 	ldrsh.w	r1, [r4, #14]
 80074b4:	4630      	mov	r0, r6
 80074b6:	f000 fee9 	bl	800828c <_isatty_r>
 80074ba:	b128      	cbz	r0, 80074c8 <__smakebuf_r+0x74>
 80074bc:	89a3      	ldrh	r3, [r4, #12]
 80074be:	f023 0303 	bic.w	r3, r3, #3
 80074c2:	f043 0301 	orr.w	r3, r3, #1
 80074c6:	81a3      	strh	r3, [r4, #12]
 80074c8:	89a0      	ldrh	r0, [r4, #12]
 80074ca:	4305      	orrs	r5, r0
 80074cc:	81a5      	strh	r5, [r4, #12]
 80074ce:	e7cd      	b.n	800746c <__smakebuf_r+0x18>
 80074d0:	08005611 	.word	0x08005611

080074d4 <malloc>:
 80074d4:	4b02      	ldr	r3, [pc, #8]	; (80074e0 <malloc+0xc>)
 80074d6:	4601      	mov	r1, r0
 80074d8:	6818      	ldr	r0, [r3, #0]
 80074da:	f7fe b9c9 	b.w	8005870 <_malloc_r>
 80074de:	bf00      	nop
 80074e0:	200000d4 	.word	0x200000d4

080074e4 <__malloc_lock>:
 80074e4:	4801      	ldr	r0, [pc, #4]	; (80074ec <__malloc_lock+0x8>)
 80074e6:	f7fe b98a 	b.w	80057fe <__retarget_lock_acquire_recursive>
 80074ea:	bf00      	nop
 80074ec:	20000650 	.word	0x20000650

080074f0 <__malloc_unlock>:
 80074f0:	4801      	ldr	r0, [pc, #4]	; (80074f8 <__malloc_unlock+0x8>)
 80074f2:	f7fe b985 	b.w	8005800 <__retarget_lock_release_recursive>
 80074f6:	bf00      	nop
 80074f8:	20000650 	.word	0x20000650

080074fc <_Balloc>:
 80074fc:	b570      	push	{r4, r5, r6, lr}
 80074fe:	6a46      	ldr	r6, [r0, #36]	; 0x24
 8007500:	4604      	mov	r4, r0
 8007502:	460d      	mov	r5, r1
 8007504:	b976      	cbnz	r6, 8007524 <_Balloc+0x28>
 8007506:	2010      	movs	r0, #16
 8007508:	f7ff ffe4 	bl	80074d4 <malloc>
 800750c:	4602      	mov	r2, r0
 800750e:	6260      	str	r0, [r4, #36]	; 0x24
 8007510:	b920      	cbnz	r0, 800751c <_Balloc+0x20>
 8007512:	4b18      	ldr	r3, [pc, #96]	; (8007574 <_Balloc+0x78>)
 8007514:	4818      	ldr	r0, [pc, #96]	; (8007578 <_Balloc+0x7c>)
 8007516:	2166      	movs	r1, #102	; 0x66
 8007518:	f7fe ffe2 	bl	80064e0 <__assert_func>
 800751c:	e9c0 6601 	strd	r6, r6, [r0, #4]
 8007520:	6006      	str	r6, [r0, #0]
 8007522:	60c6      	str	r6, [r0, #12]
 8007524:	6a66      	ldr	r6, [r4, #36]	; 0x24
 8007526:	68f3      	ldr	r3, [r6, #12]
 8007528:	b183      	cbz	r3, 800754c <_Balloc+0x50>
 800752a:	6a63      	ldr	r3, [r4, #36]	; 0x24
 800752c:	68db      	ldr	r3, [r3, #12]
 800752e:	f853 0025 	ldr.w	r0, [r3, r5, lsl #2]
 8007532:	b9b8      	cbnz	r0, 8007564 <_Balloc+0x68>
 8007534:	2101      	movs	r1, #1
 8007536:	fa01 f605 	lsl.w	r6, r1, r5
 800753a:	1d72      	adds	r2, r6, #5
 800753c:	0092      	lsls	r2, r2, #2
 800753e:	4620      	mov	r0, r4
 8007540:	f000 fb60 	bl	8007c04 <_calloc_r>
 8007544:	b160      	cbz	r0, 8007560 <_Balloc+0x64>
 8007546:	e9c0 5601 	strd	r5, r6, [r0, #4]
 800754a:	e00e      	b.n	800756a <_Balloc+0x6e>
 800754c:	2221      	movs	r2, #33	; 0x21
 800754e:	2104      	movs	r1, #4
 8007550:	4620      	mov	r0, r4
 8007552:	f000 fb57 	bl	8007c04 <_calloc_r>
 8007556:	6a63      	ldr	r3, [r4, #36]	; 0x24
 8007558:	60f0      	str	r0, [r6, #12]
 800755a:	68db      	ldr	r3, [r3, #12]
 800755c:	2b00      	cmp	r3, #0
 800755e:	d1e4      	bne.n	800752a <_Balloc+0x2e>
 8007560:	2000      	movs	r0, #0
 8007562:	bd70      	pop	{r4, r5, r6, pc}
 8007564:	6802      	ldr	r2, [r0, #0]
 8007566:	f843 2025 	str.w	r2, [r3, r5, lsl #2]
 800756a:	2300      	movs	r3, #0
 800756c:	e9c0 3303 	strd	r3, r3, [r0, #12]
 8007570:	e7f7      	b.n	8007562 <_Balloc+0x66>
 8007572:	bf00      	nop
 8007574:	08008781 	.word	0x08008781
 8007578:	08008804 	.word	0x08008804

0800757c <_Bfree>:
 800757c:	b570      	push	{r4, r5, r6, lr}
 800757e:	6a46      	ldr	r6, [r0, #36]	; 0x24
 8007580:	4605      	mov	r5, r0
 8007582:	460c      	mov	r4, r1
 8007584:	b976      	cbnz	r6, 80075a4 <_Bfree+0x28>
 8007586:	2010      	movs	r0, #16
 8007588:	f7ff ffa4 	bl	80074d4 <malloc>
 800758c:	4602      	mov	r2, r0
 800758e:	6268      	str	r0, [r5, #36]	; 0x24
 8007590:	b920      	cbnz	r0, 800759c <_Bfree+0x20>
 8007592:	4b09      	ldr	r3, [pc, #36]	; (80075b8 <_Bfree+0x3c>)
 8007594:	4809      	ldr	r0, [pc, #36]	; (80075bc <_Bfree+0x40>)
 8007596:	218a      	movs	r1, #138	; 0x8a
 8007598:	f7fe ffa2 	bl	80064e0 <__assert_func>
 800759c:	e9c0 6601 	strd	r6, r6, [r0, #4]
 80075a0:	6006      	str	r6, [r0, #0]
 80075a2:	60c6      	str	r6, [r0, #12]
 80075a4:	b13c      	cbz	r4, 80075b6 <_Bfree+0x3a>
 80075a6:	6a6b      	ldr	r3, [r5, #36]	; 0x24
 80075a8:	6862      	ldr	r2, [r4, #4]
 80075aa:	68db      	ldr	r3, [r3, #12]
 80075ac:	f853 1022 	ldr.w	r1, [r3, r2, lsl #2]
 80075b0:	6021      	str	r1, [r4, #0]
 80075b2:	f843 4022 	str.w	r4, [r3, r2, lsl #2]
 80075b6:	bd70      	pop	{r4, r5, r6, pc}
 80075b8:	08008781 	.word	0x08008781
 80075bc:	08008804 	.word	0x08008804

080075c0 <__multadd>:
 80075c0:	e92d 41f0 	stmdb	sp!, {r4, r5, r6, r7, r8, lr}
 80075c4:	690d      	ldr	r5, [r1, #16]
 80075c6:	4607      	mov	r7, r0
 80075c8:	460c      	mov	r4, r1
 80075ca:	461e      	mov	r6, r3
 80075cc:	f101 0c14 	add.w	ip, r1, #20
 80075d0:	2000      	movs	r0, #0
 80075d2:	f8dc 3000 	ldr.w	r3, [ip]
 80075d6:	b299      	uxth	r1, r3
 80075d8:	fb02 6101 	mla	r1, r2, r1, r6
 80075dc:	0c1e      	lsrs	r6, r3, #16
 80075de:	0c0b      	lsrs	r3, r1, #16
 80075e0:	fb02 3306 	mla	r3, r2, r6, r3
 80075e4:	b289      	uxth	r1, r1
 80075e6:	3001      	adds	r0, #1
 80075e8:	eb01 4103 	add.w	r1, r1, r3, lsl #16
 80075ec:	4285      	cmp	r5, r0
 80075ee:	f84c 1b04 	str.w	r1, [ip], #4
 80075f2:	ea4f 4613 	mov.w	r6, r3, lsr #16
 80075f6:	dcec      	bgt.n	80075d2 <__multadd+0x12>
 80075f8:	b30e      	cbz	r6, 800763e <__multadd+0x7e>
 80075fa:	68a3      	ldr	r3, [r4, #8]
 80075fc:	42ab      	cmp	r3, r5
 80075fe:	dc19      	bgt.n	8007634 <__multadd+0x74>
 8007600:	6861      	ldr	r1, [r4, #4]
 8007602:	4638      	mov	r0, r7
 8007604:	3101      	adds	r1, #1
 8007606:	f7ff ff79 	bl	80074fc <_Balloc>
 800760a:	4680      	mov	r8, r0
 800760c:	b928      	cbnz	r0, 800761a <__multadd+0x5a>
 800760e:	4602      	mov	r2, r0
 8007610:	4b0c      	ldr	r3, [pc, #48]	; (8007644 <__multadd+0x84>)
 8007612:	480d      	ldr	r0, [pc, #52]	; (8007648 <__multadd+0x88>)
 8007614:	21b5      	movs	r1, #181	; 0xb5
 8007616:	f7fe ff63 	bl	80064e0 <__assert_func>
 800761a:	6922      	ldr	r2, [r4, #16]
 800761c:	3202      	adds	r2, #2
 800761e:	f104 010c 	add.w	r1, r4, #12
 8007622:	0092      	lsls	r2, r2, #2
 8007624:	300c      	adds	r0, #12
 8007626:	f7fe f8ec 	bl	8005802 <memcpy>
 800762a:	4621      	mov	r1, r4
 800762c:	4638      	mov	r0, r7
 800762e:	f7ff ffa5 	bl	800757c <_Bfree>
 8007632:	4644      	mov	r4, r8
 8007634:	eb04 0385 	add.w	r3, r4, r5, lsl #2
 8007638:	3501      	adds	r5, #1
 800763a:	615e      	str	r6, [r3, #20]
 800763c:	6125      	str	r5, [r4, #16]
 800763e:	4620      	mov	r0, r4
 8007640:	e8bd 81f0 	ldmia.w	sp!, {r4, r5, r6, r7, r8, pc}
 8007644:	080087f3 	.word	0x080087f3
 8007648:	08008804 	.word	0x08008804

0800764c <__hi0bits>:
 800764c:	0c03      	lsrs	r3, r0, #16
 800764e:	041b      	lsls	r3, r3, #16
 8007650:	b9d3      	cbnz	r3, 8007688 <__hi0bits+0x3c>
 8007652:	0400      	lsls	r0, r0, #16
 8007654:	2310      	movs	r3, #16
 8007656:	f010 4f7f 	tst.w	r0, #4278190080	; 0xff000000
 800765a:	bf04      	itt	eq
 800765c:	0200      	lsleq	r0, r0, #8
 800765e:	3308      	addeq	r3, #8
 8007660:	f010 4f70 	tst.w	r0, #4026531840	; 0xf0000000
 8007664:	bf04      	itt	eq
 8007666:	0100      	lsleq	r0, r0, #4
 8007668:	3304      	addeq	r3, #4
 800766a:	f010 4f40 	tst.w	r0, #3221225472	; 0xc0000000
 800766e:	bf04      	itt	eq
 8007670:	0080      	lsleq	r0, r0, #2
 8007672:	3302      	addeq	r3, #2
 8007674:	2800      	cmp	r0, #0
 8007676:	db05      	blt.n	8007684 <__hi0bits+0x38>
 8007678:	f010 4f80 	tst.w	r0, #1073741824	; 0x40000000
 800767c:	f103 0301 	add.w	r3, r3, #1
 8007680:	bf08      	it	eq
 8007682:	2320      	moveq	r3, #32
 8007684:	4618      	mov	r0, r3
 8007686:	4770      	bx	lr
 8007688:	2300      	movs	r3, #0
 800768a:	e7e4      	b.n	8007656 <__hi0bits+0xa>

0800768c <__lo0bits>:
 800768c:	6803      	ldr	r3, [r0, #0]
 800768e:	f013 0207 	ands.w	r2, r3, #7
 8007692:	4601      	mov	r1, r0
 8007694:	d00b      	beq.n	80076ae <__lo0bits+0x22>
 8007696:	07da      	lsls	r2, r3, #31
 8007698:	d423      	bmi.n	80076e2 <__lo0bits+0x56>
 800769a:	0798      	lsls	r0, r3, #30
 800769c:	bf49      	itett	mi
 800769e:	085b      	lsrmi	r3, r3, #1
 80076a0:	089b      	lsrpl	r3, r3, #2
 80076a2:	2001      	movmi	r0, #1
 80076a4:	600b      	strmi	r3, [r1, #0]
 80076a6:	bf5c      	itt	pl
 80076a8:	600b      	strpl	r3, [r1, #0]
 80076aa:	2002      	movpl	r0, #2
 80076ac:	4770      	bx	lr
 80076ae:	b298      	uxth	r0, r3
 80076b0:	b9a8      	cbnz	r0, 80076de <__lo0bits+0x52>
 80076b2:	0c1b      	lsrs	r3, r3, #16
 80076b4:	2010      	movs	r0, #16
 80076b6:	b2da      	uxtb	r2, r3
 80076b8:	b90a      	cbnz	r2, 80076be <__lo0bits+0x32>
 80076ba:	3008      	adds	r0, #8
 80076bc:	0a1b      	lsrs	r3, r3, #8
 80076be:	071a      	lsls	r2, r3, #28
 80076c0:	bf04      	itt	eq
 80076c2:	091b      	lsreq	r3, r3, #4
 80076c4:	3004      	addeq	r0, #4
 80076c6:	079a      	lsls	r2, r3, #30
 80076c8:	bf04      	itt	eq
 80076ca:	089b      	lsreq	r3, r3, #2
 80076cc:	3002      	addeq	r0, #2
 80076ce:	07da      	lsls	r2, r3, #31
 80076d0:	d403      	bmi.n	80076da <__lo0bits+0x4e>
 80076d2:	085b      	lsrs	r3, r3, #1
 80076d4:	f100 0001 	add.w	r0, r0, #1
 80076d8:	d005      	beq.n	80076e6 <__lo0bits+0x5a>
 80076da:	600b      	str	r3, [r1, #0]
 80076dc:	4770      	bx	lr
 80076de:	4610      	mov	r0, r2
 80076e0:	e7e9      	b.n	80076b6 <__lo0bits+0x2a>
 80076e2:	2000      	movs	r0, #0
 80076e4:	4770      	bx	lr
 80076e6:	2020      	movs	r0, #32
 80076e8:	4770      	bx	lr
	...

080076ec <__i2b>:
 80076ec:	b510      	push	{r4, lr}
 80076ee:	460c      	mov	r4, r1
 80076f0:	2101      	movs	r1, #1
 80076f2:	f7ff ff03 	bl	80074fc <_Balloc>
 80076f6:	4602      	mov	r2, r0
 80076f8:	b928      	cbnz	r0, 8007706 <__i2b+0x1a>
 80076fa:	4b05      	ldr	r3, [pc, #20]	; (8007710 <__i2b+0x24>)
 80076fc:	4805      	ldr	r0, [pc, #20]	; (8007714 <__i2b+0x28>)
 80076fe:	f44f 71a0 	mov.w	r1, #320	; 0x140
 8007702:	f7fe feed 	bl	80064e0 <__assert_func>
 8007706:	2301      	movs	r3, #1
 8007708:	6144      	str	r4, [r0, #20]
 800770a:	6103      	str	r3, [r0, #16]
 800770c:	bd10      	pop	{r4, pc}
 800770e:	bf00      	nop
 8007710:	080087f3 	.word	0x080087f3
 8007714:	08008804 	.word	0x08008804

08007718 <__multiply>:
 8007718:	e92d 4ff0 	stmdb	sp!, {r4, r5, r6, r7, r8, r9, sl, fp, lr}
 800771c:	4691      	mov	r9, r2
 800771e:	690a      	ldr	r2, [r1, #16]
 8007720:	f8d9 3010 	ldr.w	r3, [r9, #16]
 8007724:	429a      	cmp	r2, r3
 8007726:	bfb8      	it	lt
 8007728:	460b      	movlt	r3, r1
 800772a:	460c      	mov	r4, r1
 800772c:	bfbc      	itt	lt
 800772e:	464c      	movlt	r4, r9
 8007730:	4699      	movlt	r9, r3
 8007732:	6927      	ldr	r7, [r4, #16]
 8007734:	f8d9 a010 	ldr.w	sl, [r9, #16]
 8007738:	68a3      	ldr	r3, [r4, #8]
 800773a:	6861      	ldr	r1, [r4, #4]
 800773c:	eb07 060a 	add.w	r6, r7, sl
 8007740:	42b3      	cmp	r3, r6
 8007742:	b085      	sub	sp, #20
 8007744:	bfb8      	it	lt
 8007746:	3101      	addlt	r1, #1
 8007748:	f7ff fed8 	bl	80074fc <_Balloc>
 800774c:	b930      	cbnz	r0, 800775c <__multiply+0x44>
 800774e:	4602      	mov	r2, r0
 8007750:	4b44      	ldr	r3, [pc, #272]	; (8007864 <__multiply+0x14c>)
 8007752:	4845      	ldr	r0, [pc, #276]	; (8007868 <__multiply+0x150>)
 8007754:	f240 115d 	movw	r1, #349	; 0x15d
 8007758:	f7fe fec2 	bl	80064e0 <__assert_func>
 800775c:	f100 0514 	add.w	r5, r0, #20
 8007760:	eb05 0886 	add.w	r8, r5, r6, lsl #2
 8007764:	462b      	mov	r3, r5
 8007766:	2200      	movs	r2, #0
 8007768:	4543      	cmp	r3, r8
 800776a:	d321      	bcc.n	80077b0 <__multiply+0x98>
 800776c:	f104 0314 	add.w	r3, r4, #20
 8007770:	eb03 0787 	add.w	r7, r3, r7, lsl #2
 8007774:	f109 0314 	add.w	r3, r9, #20
 8007778:	eb03 028a 	add.w	r2, r3, sl, lsl #2
 800777c:	9202      	str	r2, [sp, #8]
 800777e:	1b3a      	subs	r2, r7, r4
 8007780:	3a15      	subs	r2, #21
 8007782:	f022 0203 	bic.w	r2, r2, #3
 8007786:	3204      	adds	r2, #4
 8007788:	f104 0115 	add.w	r1, r4, #21
 800778c:	428f      	cmp	r7, r1
 800778e:	bf38      	it	cc
 8007790:	2204      	movcc	r2, #4
 8007792:	9201      	str	r2, [sp, #4]
 8007794:	9a02      	ldr	r2, [sp, #8]
 8007796:	9303      	str	r3, [sp, #12]
 8007798:	429a      	cmp	r2, r3
 800779a:	d80c      	bhi.n	80077b6 <__multiply+0x9e>
 800779c:	2e00      	cmp	r6, #0
 800779e:	dd03      	ble.n	80077a8 <__multiply+0x90>
 80077a0:	f858 3d04 	ldr.w	r3, [r8, #-4]!
 80077a4:	2b00      	cmp	r3, #0
 80077a6:	d05a      	beq.n	800785e <__multiply+0x146>
 80077a8:	6106      	str	r6, [r0, #16]
 80077aa:	b005      	add	sp, #20
 80077ac:	e8bd 8ff0 	ldmia.w	sp!, {r4, r5, r6, r7, r8, r9, sl, fp, pc}
 80077b0:	f843 2b04 	str.w	r2, [r3], #4
 80077b4:	e7d8      	b.n	8007768 <__multiply+0x50>
 80077b6:	f8b3 a000 	ldrh.w	sl, [r3]
 80077ba:	f1ba 0f00 	cmp.w	sl, #0
 80077be:	d024      	beq.n	800780a <__multiply+0xf2>
 80077c0:	f104 0e14 	add.w	lr, r4, #20
 80077c4:	46a9      	mov	r9, r5
 80077c6:	f04f 0c00 	mov.w	ip, #0
 80077ca:	f85e 2b04 	ldr.w	r2, [lr], #4
 80077ce:	f8d9 1000 	ldr.w	r1, [r9]
 80077d2:	fa1f fb82 	uxth.w	fp, r2
 80077d6:	b289      	uxth	r1, r1
 80077d8:	fb0a 110b 	mla	r1, sl, fp, r1
 80077dc:	ea4f 4b12 	mov.w	fp, r2, lsr #16
 80077e0:	f8d9 2000 	ldr.w	r2, [r9]
 80077e4:	4461      	add	r1, ip
 80077e6:	ea4f 4c12 	mov.w	ip, r2, lsr #16
 80077ea:	fb0a c20b 	mla	r2, sl, fp, ip
 80077ee:	eb02 4211 	add.w	r2, r2, r1, lsr #16
 80077f2:	b289      	uxth	r1, r1
 80077f4:	ea41 4102 	orr.w	r1, r1, r2, lsl #16
 80077f8:	4577      	cmp	r7, lr
 80077fa:	f849 1b04 	str.w	r1, [r9], #4
 80077fe:	ea4f 4c12 	mov.w	ip, r2, lsr #16
 8007802:	d8e2      	bhi.n	80077ca <__multiply+0xb2>
 8007804:	9a01      	ldr	r2, [sp, #4]
 8007806:	f845 c002 	str.w	ip, [r5, r2]
 800780a:	9a03      	ldr	r2, [sp, #12]
 800780c:	f8b2 9002 	ldrh.w	r9, [r2, #2]
 8007810:	3304      	adds	r3, #4
 8007812:	f1b9 0f00 	cmp.w	r9, #0
 8007816:	d020      	beq.n	800785a <__multiply+0x142>
 8007818:	6829      	ldr	r1, [r5, #0]
 800781a:	f104 0c14 	add.w	ip, r4, #20
 800781e:	46ae      	mov	lr, r5
 8007820:	f04f 0a00 	mov.w	sl, #0
 8007824:	f8bc b000 	ldrh.w	fp, [ip]
 8007828:	f8be 2002 	ldrh.w	r2, [lr, #2]
 800782c:	fb09 220b 	mla	r2, r9, fp, r2
 8007830:	4492      	add	sl, r2
 8007832:	b289      	uxth	r1, r1
 8007834:	ea41 410a 	orr.w	r1, r1, sl, lsl #16
 8007838:	f84e 1b04 	str.w	r1, [lr], #4
 800783c:	f85c 2b04 	ldr.w	r2, [ip], #4
 8007840:	f8be 1000 	ldrh.w	r1, [lr]
 8007844:	0c12      	lsrs	r2, r2, #16
 8007846:	fb09 1102 	mla	r1, r9, r2, r1
 800784a:	eb01 411a 	add.w	r1, r1, sl, lsr #16
 800784e:	4567      	cmp	r7, ip
 8007850:	ea4f 4a11 	mov.w	sl, r1, lsr #16
 8007854:	d8e6      	bhi.n	8007824 <__multiply+0x10c>
 8007856:	9a01      	ldr	r2, [sp, #4]
 8007858:	50a9      	str	r1, [r5, r2]
 800785a:	3504      	adds	r5, #4
 800785c:	e79a      	b.n	8007794 <__multiply+0x7c>
 800785e:	3e01      	subs	r6, #1
 8007860:	e79c      	b.n	800779c <__multiply+0x84>
 8007862:	bf00      	nop
 8007864:	080087f3 	.word	0x080087f3
 8007868:	08008804 	.word	0x08008804

0800786c <__pow5mult>:
 800786c:	e92d 43f8 	stmdb	sp!, {r3, r4, r5, r6, r7, r8, r9, lr}
 8007870:	4615      	mov	r5, r2
 8007872:	f012 0203 	ands.w	r2, r2, #3
 8007876:	4606      	mov	r6, r0
 8007878:	460f      	mov	r7, r1
 800787a:	d007      	beq.n	800788c <__pow5mult+0x20>
 800787c:	4c25      	ldr	r4, [pc, #148]	; (8007914 <__pow5mult+0xa8>)
 800787e:	3a01      	subs	r2, #1
 8007880:	2300      	movs	r3, #0
 8007882:	f854 2022 	ldr.w	r2, [r4, r2, lsl #2]
 8007886:	f7ff fe9b 	bl	80075c0 <__multadd>
 800788a:	4607      	mov	r7, r0
 800788c:	10ad      	asrs	r5, r5, #2
 800788e:	d03d      	beq.n	800790c <__pow5mult+0xa0>
 8007890:	6a74      	ldr	r4, [r6, #36]	; 0x24
 8007892:	b97c      	cbnz	r4, 80078b4 <__pow5mult+0x48>
 8007894:	2010      	movs	r0, #16
 8007896:	f7ff fe1d 	bl	80074d4 <malloc>
 800789a:	4602      	mov	r2, r0
 800789c:	6270      	str	r0, [r6, #36]	; 0x24
 800789e:	b928      	cbnz	r0, 80078ac <__pow5mult+0x40>
 80078a0:	4b1d      	ldr	r3, [pc, #116]	; (8007918 <__pow5mult+0xac>)
 80078a2:	481e      	ldr	r0, [pc, #120]	; (800791c <__pow5mult+0xb0>)
 80078a4:	f44f 71d7 	mov.w	r1, #430	; 0x1ae
 80078a8:	f7fe fe1a 	bl	80064e0 <__assert_func>
 80078ac:	e9c0 4401 	strd	r4, r4, [r0, #4]
 80078b0:	6004      	str	r4, [r0, #0]
 80078b2:	60c4      	str	r4, [r0, #12]
 80078b4:	f8d6 8024 	ldr.w	r8, [r6, #36]	; 0x24
 80078b8:	f8d8 4008 	ldr.w	r4, [r8, #8]
 80078bc:	b94c      	cbnz	r4, 80078d2 <__pow5mult+0x66>
 80078be:	f240 2171 	movw	r1, #625	; 0x271
 80078c2:	4630      	mov	r0, r6
 80078c4:	f7ff ff12 	bl	80076ec <__i2b>
 80078c8:	2300      	movs	r3, #0
 80078ca:	f8c8 0008 	str.w	r0, [r8, #8]
 80078ce:	4604      	mov	r4, r0
 80078d0:	6003      	str	r3, [r0, #0]
 80078d2:	f04f 0900 	mov.w	r9, #0
 80078d6:	07eb      	lsls	r3, r5, #31
 80078d8:	d50a      	bpl.n	80078f0 <__pow5mult+0x84>
 80078da:	4639      	mov	r1, r7
 80078dc:	4622      	mov	r2, r4
 80078de:	4630      	mov	r0, r6
 80078e0:	f7ff ff1a 	bl	8007718 <__multiply>
 80078e4:	4639      	mov	r1, r7
 80078e6:	4680      	mov	r8, r0
 80078e8:	4630      	mov	r0, r6
 80078ea:	f7ff fe47 	bl	800757c <_Bfree>
 80078ee:	4647      	mov	r7, r8
 80078f0:	106d      	asrs	r5, r5, #1
 80078f2:	d00b      	beq.n	800790c <__pow5mult+0xa0>
 80078f4:	6820      	ldr	r0, [r4, #0]
 80078f6:	b938      	cbnz	r0, 8007908 <__pow5mult+0x9c>
 80078f8:	4622      	mov	r2, r4
 80078fa:	4621      	mov	r1, r4
 80078fc:	4630      	mov	r0, r6
 80078fe:	f7ff ff0b 	bl	8007718 <__multiply>
 8007902:	6020      	str	r0, [r4, #0]
 8007904:	f8c0 9000 	str.w	r9, [r0]
 8007908:	4604      	mov	r4, r0
 800790a:	e7e4      	b.n	80078d6 <__pow5mult+0x6a>
 800790c:	4638      	mov	r0, r7
 800790e:	e8bd 83f8 	ldmia.w	sp!, {r3, r4, r5, r6, r7, r8, r9, pc}
 8007912:	bf00      	nop
 8007914:	08008950 	.word	0x08008950
 8007918:	08008781 	.word	0x08008781
 800791c:	08008804 	.word	0x08008804

08007920 <__lshift>:
 8007920:	e92d 47f0 	stmdb	sp!, {r4, r5, r6, r7, r8, r9, sl, lr}
 8007924:	460c      	mov	r4, r1
 8007926:	6849      	ldr	r1, [r1, #4]
 8007928:	6923      	ldr	r3, [r4, #16]
 800792a:	eb03 1862 	add.w	r8, r3, r2, asr #5
 800792e:	68a3      	ldr	r3, [r4, #8]
 8007930:	4607      	mov	r7, r0
 8007932:	4691      	mov	r9, r2
 8007934:	ea4f 1a62 	mov.w	sl, r2, asr #5
 8007938:	f108 0601 	add.w	r6, r8, #1
 800793c:	42b3      	cmp	r3, r6
 800793e:	db0b      	blt.n	8007958 <__lshift+0x38>
 8007940:	4638      	mov	r0, r7
 8007942:	f7ff fddb 	bl	80074fc <_Balloc>
 8007946:	4605      	mov	r5, r0
 8007948:	b948      	cbnz	r0, 800795e <__lshift+0x3e>
 800794a:	4602      	mov	r2, r0
 800794c:	4b2a      	ldr	r3, [pc, #168]	; (80079f8 <__lshift+0xd8>)
 800794e:	482b      	ldr	r0, [pc, #172]	; (80079fc <__lshift+0xdc>)
 8007950:	f240 11d9 	movw	r1, #473	; 0x1d9
 8007954:	f7fe fdc4 	bl	80064e0 <__assert_func>
 8007958:	3101      	adds	r1, #1
 800795a:	005b      	lsls	r3, r3, #1
 800795c:	e7ee      	b.n	800793c <__lshift+0x1c>
 800795e:	2300      	movs	r3, #0
 8007960:	f100 0114 	add.w	r1, r0, #20
 8007964:	f100 0210 	add.w	r2, r0, #16
 8007968:	4618      	mov	r0, r3
 800796a:	4553      	cmp	r3, sl
 800796c:	db37      	blt.n	80079de <__lshift+0xbe>
 800796e:	6920      	ldr	r0, [r4, #16]
 8007970:	ea2a 7aea 	bic.w	sl, sl, sl, asr #31
 8007974:	f104 0314 	add.w	r3, r4, #20
 8007978:	f019 091f 	ands.w	r9, r9, #31
 800797c:	eb01 018a 	add.w	r1, r1, sl, lsl #2
 8007980:	eb03 0080 	add.w	r0, r3, r0, lsl #2
 8007984:	d02f      	beq.n	80079e6 <__lshift+0xc6>
 8007986:	f1c9 0e20 	rsb	lr, r9, #32
 800798a:	468a      	mov	sl, r1
 800798c:	f04f 0c00 	mov.w	ip, #0
 8007990:	681a      	ldr	r2, [r3, #0]
 8007992:	fa02 f209 	lsl.w	r2, r2, r9
 8007996:	ea42 020c 	orr.w	r2, r2, ip
 800799a:	f84a 2b04 	str.w	r2, [sl], #4
 800799e:	f853 2b04 	ldr.w	r2, [r3], #4
 80079a2:	4298      	cmp	r0, r3
 80079a4:	fa22 fc0e 	lsr.w	ip, r2, lr
 80079a8:	d8f2      	bhi.n	8007990 <__lshift+0x70>
 80079aa:	1b03      	subs	r3, r0, r4
 80079ac:	3b15      	subs	r3, #21
 80079ae:	f023 0303 	bic.w	r3, r3, #3
 80079b2:	3304      	adds	r3, #4
 80079b4:	f104 0215 	add.w	r2, r4, #21
 80079b8:	4290      	cmp	r0, r2
 80079ba:	bf38      	it	cc
 80079bc:	2304      	movcc	r3, #4
 80079be:	f841 c003 	str.w	ip, [r1, r3]
 80079c2:	f1bc 0f00 	cmp.w	ip, #0
 80079c6:	d001      	beq.n	80079cc <__lshift+0xac>
 80079c8:	f108 0602 	add.w	r6, r8, #2
 80079cc:	3e01      	subs	r6, #1
 80079ce:	4638      	mov	r0, r7
 80079d0:	612e      	str	r6, [r5, #16]
 80079d2:	4621      	mov	r1, r4
 80079d4:	f7ff fdd2 	bl	800757c <_Bfree>
 80079d8:	4628      	mov	r0, r5
 80079da:	e8bd 87f0 	ldmia.w	sp!, {r4, r5, r6, r7, r8, r9, sl, pc}
 80079de:	f842 0f04 	str.w	r0, [r2, #4]!
 80079e2:	3301      	adds	r3, #1
 80079e4:	e7c1      	b.n	800796a <__lshift+0x4a>
 80079e6:	3904      	subs	r1, #4
 80079e8:	f853 2b04 	ldr.w	r2, [r3], #4
 80079ec:	f841 2f04 	str.w	r2, [r1, #4]!
 80079f0:	4298      	cmp	r0, r3
 80079f2:	d8f9      	bhi.n	80079e8 <__lshift+0xc8>
 80079f4:	e7ea      	b.n	80079cc <__lshift+0xac>
 80079f6:	bf00      	nop
 80079f8:	080087f3 	.word	0x080087f3
 80079fc:	08008804 	.word	0x08008804

08007a00 <__mcmp>:
 8007a00:	b530      	push	{r4, r5, lr}
 8007a02:	6902      	ldr	r2, [r0, #16]
 8007a04:	690c      	ldr	r4, [r1, #16]
 8007a06:	1b12      	subs	r2, r2, r4
 8007a08:	d10e      	bne.n	8007a28 <__mcmp+0x28>
 8007a0a:	f100 0314 	add.w	r3, r0, #20
 8007a0e:	3114      	adds	r1, #20
 8007a10:	eb03 0084 	add.w	r0, r3, r4, lsl #2
 8007a14:	eb01 0184 	add.w	r1, r1, r4, lsl #2
 8007a18:	f850 5d04 	ldr.w	r5, [r0, #-4]!
 8007a1c:	f851 4d04 	ldr.w	r4, [r1, #-4]!
 8007a20:	42a5      	cmp	r5, r4
 8007a22:	d003      	beq.n	8007a2c <__mcmp+0x2c>
 8007a24:	d305      	bcc.n	8007a32 <__mcmp+0x32>
 8007a26:	2201      	movs	r2, #1
 8007a28:	4610      	mov	r0, r2
 8007a2a:	bd30      	pop	{r4, r5, pc}
 8007a2c:	4283      	cmp	r3, r0
 8007a2e:	d3f3      	bcc.n	8007a18 <__mcmp+0x18>
 8007a30:	e7fa      	b.n	8007a28 <__mcmp+0x28>
 8007a32:	f04f 32ff 	mov.w	r2, #4294967295
 8007a36:	e7f7      	b.n	8007a28 <__mcmp+0x28>

08007a38 <__mdiff>:
 8007a38:	e92d 4ff8 	stmdb	sp!, {r3, r4, r5, r6, r7, r8, r9, sl, fp, lr}
 8007a3c:	460c      	mov	r4, r1
 8007a3e:	4606      	mov	r6, r0
 8007a40:	4611      	mov	r1, r2
 8007a42:	4620      	mov	r0, r4
 8007a44:	4690      	mov	r8, r2
 8007a46:	f7ff ffdb 	bl	8007a00 <__mcmp>
 8007a4a:	1e05      	subs	r5, r0, #0
 8007a4c:	d110      	bne.n	8007a70 <__mdiff+0x38>
 8007a4e:	4629      	mov	r1, r5
 8007a50:	4630      	mov	r0, r6
 8007a52:	f7ff fd53 	bl	80074fc <_Balloc>
 8007a56:	b930      	cbnz	r0, 8007a66 <__mdiff+0x2e>
 8007a58:	4b3a      	ldr	r3, [pc, #232]	; (8007b44 <__mdiff+0x10c>)
 8007a5a:	4602      	mov	r2, r0
 8007a5c:	f240 2132 	movw	r1, #562	; 0x232
 8007a60:	4839      	ldr	r0, [pc, #228]	; (8007b48 <__mdiff+0x110>)
 8007a62:	f7fe fd3d 	bl	80064e0 <__assert_func>
 8007a66:	2301      	movs	r3, #1
 8007a68:	e9c0 3504 	strd	r3, r5, [r0, #16]
 8007a6c:	e8bd 8ff8 	ldmia.w	sp!, {r3, r4, r5, r6, r7, r8, r9, sl, fp, pc}
 8007a70:	bfa4      	itt	ge
 8007a72:	4643      	movge	r3, r8
 8007a74:	46a0      	movge	r8, r4
 8007a76:	4630      	mov	r0, r6
 8007a78:	f8d8 1004 	ldr.w	r1, [r8, #4]
 8007a7c:	bfa6      	itte	ge
 8007a7e:	461c      	movge	r4, r3
 8007a80:	2500      	movge	r5, #0
 8007a82:	2501      	movlt	r5, #1
 8007a84:	f7ff fd3a 	bl	80074fc <_Balloc>
 8007a88:	b920      	cbnz	r0, 8007a94 <__mdiff+0x5c>
 8007a8a:	4b2e      	ldr	r3, [pc, #184]	; (8007b44 <__mdiff+0x10c>)
 8007a8c:	4602      	mov	r2, r0
 8007a8e:	f44f 7110 	mov.w	r1, #576	; 0x240
 8007a92:	e7e5      	b.n	8007a60 <__mdiff+0x28>
 8007a94:	f8d8 7010 	ldr.w	r7, [r8, #16]
 8007a98:	6926      	ldr	r6, [r4, #16]
 8007a9a:	60c5      	str	r5, [r0, #12]
 8007a9c:	f104 0914 	add.w	r9, r4, #20
 8007aa0:	f108 0514 	add.w	r5, r8, #20
 8007aa4:	f100 0e14 	add.w	lr, r0, #20
 8007aa8:	eb05 0c87 	add.w	ip, r5, r7, lsl #2
 8007aac:	eb09 0686 	add.w	r6, r9, r6, lsl #2
 8007ab0:	f108 0210 	add.w	r2, r8, #16
 8007ab4:	46f2      	mov	sl, lr
 8007ab6:	2100      	movs	r1, #0
 8007ab8:	f859 3b04 	ldr.w	r3, [r9], #4
 8007abc:	f852 bf04 	ldr.w	fp, [r2, #4]!
 8007ac0:	fa1f f883 	uxth.w	r8, r3
 8007ac4:	fa11 f18b 	uxtah	r1, r1, fp
 8007ac8:	0c1b      	lsrs	r3, r3, #16
 8007aca:	eba1 0808 	sub.w	r8, r1, r8
 8007ace:	ebc3 431b 	rsb	r3, r3, fp, lsr #16
 8007ad2:	eb03 4328 	add.w	r3, r3, r8, asr #16
 8007ad6:	fa1f f888 	uxth.w	r8, r8
 8007ada:	1419      	asrs	r1, r3, #16
 8007adc:	454e      	cmp	r6, r9
 8007ade:	ea48 4303 	orr.w	r3, r8, r3, lsl #16
 8007ae2:	f84a 3b04 	str.w	r3, [sl], #4
 8007ae6:	d8e7      	bhi.n	8007ab8 <__mdiff+0x80>
 8007ae8:	1b33      	subs	r3, r6, r4
 8007aea:	3b15      	subs	r3, #21
 8007aec:	f023 0303 	bic.w	r3, r3, #3
 8007af0:	3304      	adds	r3, #4
 8007af2:	3415      	adds	r4, #21
 8007af4:	42a6      	cmp	r6, r4
 8007af6:	bf38      	it	cc
 8007af8:	2304      	movcc	r3, #4
 8007afa:	441d      	add	r5, r3
 8007afc:	4473      	add	r3, lr
 8007afe:	469e      	mov	lr, r3
 8007b00:	462e      	mov	r6, r5
 8007b02:	4566      	cmp	r6, ip
 8007b04:	d30e      	bcc.n	8007b24 <__mdiff+0xec>
 8007b06:	f10c 0203 	add.w	r2, ip, #3
 8007b0a:	1b52      	subs	r2, r2, r5
 8007b0c:	f022 0203 	bic.w	r2, r2, #3
 8007b10:	3d03      	subs	r5, #3
 8007b12:	45ac      	cmp	ip, r5
 8007b14:	bf38      	it	cc
 8007b16:	2200      	movcc	r2, #0
 8007b18:	441a      	add	r2, r3
 8007b1a:	f852 3d04 	ldr.w	r3, [r2, #-4]!
 8007b1e:	b17b      	cbz	r3, 8007b40 <__mdiff+0x108>
 8007b20:	6107      	str	r7, [r0, #16]
 8007b22:	e7a3      	b.n	8007a6c <__mdiff+0x34>
 8007b24:	f856 8b04 	ldr.w	r8, [r6], #4
 8007b28:	fa11 f288 	uxtah	r2, r1, r8
 8007b2c:	1414      	asrs	r4, r2, #16
 8007b2e:	eb04 4418 	add.w	r4, r4, r8, lsr #16
 8007b32:	b292      	uxth	r2, r2
 8007b34:	ea42 4204 	orr.w	r2, r2, r4, lsl #16
 8007b38:	f84e 2b04 	str.w	r2, [lr], #4
 8007b3c:	1421      	asrs	r1, r4, #16
 8007b3e:	e7e0      	b.n	8007b02 <__mdiff+0xca>
 8007b40:	3f01      	subs	r7, #1
 8007b42:	e7ea      	b.n	8007b1a <__mdiff+0xe2>
 8007b44:	080087f3 	.word	0x080087f3
 8007b48:	08008804 	.word	0x08008804

08007b4c <__d2b>:
 8007b4c:	e92d 43f7 	stmdb	sp!, {r0, r1, r2, r4, r5, r6, r7, r8, r9, lr}
 8007b50:	4689      	mov	r9, r1
 8007b52:	2101      	movs	r1, #1
 8007b54:	ec57 6b10 	vmov	r6, r7, d0
 8007b58:	4690      	mov	r8, r2
 8007b5a:	f7ff fccf 	bl	80074fc <_Balloc>
 8007b5e:	4604      	mov	r4, r0
 8007b60:	b930      	cbnz	r0, 8007b70 <__d2b+0x24>
 8007b62:	4602      	mov	r2, r0
 8007b64:	4b25      	ldr	r3, [pc, #148]	; (8007bfc <__d2b+0xb0>)
 8007b66:	4826      	ldr	r0, [pc, #152]	; (8007c00 <__d2b+0xb4>)
 8007b68:	f240 310a 	movw	r1, #778	; 0x30a
 8007b6c:	f7fe fcb8 	bl	80064e0 <__assert_func>
 8007b70:	f3c7 550a 	ubfx	r5, r7, #20, #11
 8007b74:	f3c7 0313 	ubfx	r3, r7, #0, #20
 8007b78:	bb35      	cbnz	r5, 8007bc8 <__d2b+0x7c>
 8007b7a:	2e00      	cmp	r6, #0
 8007b7c:	9301      	str	r3, [sp, #4]
 8007b7e:	d028      	beq.n	8007bd2 <__d2b+0x86>
 8007b80:	4668      	mov	r0, sp
 8007b82:	9600      	str	r6, [sp, #0]
 8007b84:	f7ff fd82 	bl	800768c <__lo0bits>
 8007b88:	9900      	ldr	r1, [sp, #0]
 8007b8a:	b300      	cbz	r0, 8007bce <__d2b+0x82>
 8007b8c:	9a01      	ldr	r2, [sp, #4]
 8007b8e:	f1c0 0320 	rsb	r3, r0, #32
 8007b92:	fa02 f303 	lsl.w	r3, r2, r3
 8007b96:	430b      	orrs	r3, r1
 8007b98:	40c2      	lsrs	r2, r0
 8007b9a:	6163      	str	r3, [r4, #20]
 8007b9c:	9201      	str	r2, [sp, #4]
 8007b9e:	9b01      	ldr	r3, [sp, #4]
 8007ba0:	61a3      	str	r3, [r4, #24]
 8007ba2:	2b00      	cmp	r3, #0
 8007ba4:	bf14      	ite	ne
 8007ba6:	2202      	movne	r2, #2
 8007ba8:	2201      	moveq	r2, #1
 8007baa:	6122      	str	r2, [r4, #16]
 8007bac:	b1d5      	cbz	r5, 8007be4 <__d2b+0x98>
 8007bae:	f2a5 4533 	subw	r5, r5, #1075	; 0x433
 8007bb2:	4405      	add	r5, r0
 8007bb4:	f8c9 5000 	str.w	r5, [r9]
 8007bb8:	f1c0 0035 	rsb	r0, r0, #53	; 0x35
 8007bbc:	f8c8 0000 	str.w	r0, [r8]
 8007bc0:	4620      	mov	r0, r4
 8007bc2:	b003      	add	sp, #12
 8007bc4:	e8bd 83f0 	ldmia.w	sp!, {r4, r5, r6, r7, r8, r9, pc}
 8007bc8:	f443 1380 	orr.w	r3, r3, #1048576	; 0x100000
 8007bcc:	e7d5      	b.n	8007b7a <__d2b+0x2e>
 8007bce:	6161      	str	r1, [r4, #20]
 8007bd0:	e7e5      	b.n	8007b9e <__d2b+0x52>
 8007bd2:	a801      	add	r0, sp, #4
 8007bd4:	f7ff fd5a 	bl	800768c <__lo0bits>
 8007bd8:	9b01      	ldr	r3, [sp, #4]
 8007bda:	6163      	str	r3, [r4, #20]
 8007bdc:	2201      	movs	r2, #1
 8007bde:	6122      	str	r2, [r4, #16]
 8007be0:	3020      	adds	r0, #32
 8007be2:	e7e3      	b.n	8007bac <__d2b+0x60>
 8007be4:	eb04 0382 	add.w	r3, r4, r2, lsl #2
 8007be8:	f2a0 4032 	subw	r0, r0, #1074	; 0x432
 8007bec:	f8c9 0000 	str.w	r0, [r9]
 8007bf0:	6918      	ldr	r0, [r3, #16]
 8007bf2:	f7ff fd2b 	bl	800764c <__hi0bits>
 8007bf6:	ebc0 1042 	rsb	r0, r0, r2, lsl #5
 8007bfa:	e7df      	b.n	8007bbc <__d2b+0x70>
 8007bfc:	080087f3 	.word	0x080087f3
 8007c00:	08008804 	.word	0x08008804

08007c04 <_calloc_r>:
 8007c04:	b537      	push	{r0, r1, r2, r4, r5, lr}
 8007c06:	fba1 2402 	umull	r2, r4, r1, r2
 8007c0a:	b94c      	cbnz	r4, 8007c20 <_calloc_r+0x1c>
 8007c0c:	4611      	mov	r1, r2
 8007c0e:	9201      	str	r2, [sp, #4]
 8007c10:	f7fd fe2e 	bl	8005870 <_malloc_r>
 8007c14:	9a01      	ldr	r2, [sp, #4]
 8007c16:	4605      	mov	r5, r0
 8007c18:	b930      	cbnz	r0, 8007c28 <_calloc_r+0x24>
 8007c1a:	4628      	mov	r0, r5
 8007c1c:	b003      	add	sp, #12
 8007c1e:	bd30      	pop	{r4, r5, pc}
 8007c20:	220c      	movs	r2, #12
 8007c22:	6002      	str	r2, [r0, #0]
 8007c24:	2500      	movs	r5, #0
 8007c26:	e7f8      	b.n	8007c1a <_calloc_r+0x16>
 8007c28:	4621      	mov	r1, r4
 8007c2a:	f7fd fdf8 	bl	800581e <memset>
 8007c2e:	e7f4      	b.n	8007c1a <_calloc_r+0x16>

08007c30 <_free_r>:
 8007c30:	b537      	push	{r0, r1, r2, r4, r5, lr}
 8007c32:	2900      	cmp	r1, #0
 8007c34:	d044      	beq.n	8007cc0 <_free_r+0x90>
 8007c36:	f851 3c04 	ldr.w	r3, [r1, #-4]
 8007c3a:	9001      	str	r0, [sp, #4]
 8007c3c:	2b00      	cmp	r3, #0
 8007c3e:	f1a1 0404 	sub.w	r4, r1, #4
 8007c42:	bfb8      	it	lt
 8007c44:	18e4      	addlt	r4, r4, r3
 8007c46:	f7ff fc4d 	bl	80074e4 <__malloc_lock>
 8007c4a:	4a1e      	ldr	r2, [pc, #120]	; (8007cc4 <_free_r+0x94>)
 8007c4c:	9801      	ldr	r0, [sp, #4]
 8007c4e:	6813      	ldr	r3, [r2, #0]
 8007c50:	b933      	cbnz	r3, 8007c60 <_free_r+0x30>
 8007c52:	6063      	str	r3, [r4, #4]
 8007c54:	6014      	str	r4, [r2, #0]
 8007c56:	b003      	add	sp, #12
 8007c58:	e8bd 4030 	ldmia.w	sp!, {r4, r5, lr}
 8007c5c:	f7ff bc48 	b.w	80074f0 <__malloc_unlock>
 8007c60:	42a3      	cmp	r3, r4
 8007c62:	d908      	bls.n	8007c76 <_free_r+0x46>
 8007c64:	6825      	ldr	r5, [r4, #0]
 8007c66:	1961      	adds	r1, r4, r5
 8007c68:	428b      	cmp	r3, r1
 8007c6a:	bf01      	itttt	eq
 8007c6c:	6819      	ldreq	r1, [r3, #0]
 8007c6e:	685b      	ldreq	r3, [r3, #4]
 8007c70:	1949      	addeq	r1, r1, r5
 8007c72:	6021      	streq	r1, [r4, #0]
 8007c74:	e7ed      	b.n	8007c52 <_free_r+0x22>
 8007c76:	461a      	mov	r2, r3
 8007c78:	685b      	ldr	r3, [r3, #4]
 8007c7a:	b10b      	cbz	r3, 8007c80 <_free_r+0x50>
 8007c7c:	42a3      	cmp	r3, r4
 8007c7e:	d9fa      	bls.n	8007c76 <_free_r+0x46>
 8007c80:	6811      	ldr	r1, [r2, #0]
 8007c82:	1855      	adds	r5, r2, r1
 8007c84:	42a5      	cmp	r5, r4
 8007c86:	d10b      	bne.n	8007ca0 <_free_r+0x70>
 8007c88:	6824      	ldr	r4, [r4, #0]
 8007c8a:	4421      	add	r1, r4
 8007c8c:	1854      	adds	r4, r2, r1
 8007c8e:	42a3      	cmp	r3, r4
 8007c90:	6011      	str	r1, [r2, #0]
 8007c92:	d1e0      	bne.n	8007c56 <_free_r+0x26>
 8007c94:	681c      	ldr	r4, [r3, #0]
 8007c96:	685b      	ldr	r3, [r3, #4]
 8007c98:	6053      	str	r3, [r2, #4]
 8007c9a:	4421      	add	r1, r4
 8007c9c:	6011      	str	r1, [r2, #0]
 8007c9e:	e7da      	b.n	8007c56 <_free_r+0x26>
 8007ca0:	d902      	bls.n	8007ca8 <_free_r+0x78>
 8007ca2:	230c      	movs	r3, #12
 8007ca4:	6003      	str	r3, [r0, #0]
 8007ca6:	e7d6      	b.n	8007c56 <_free_r+0x26>
 8007ca8:	6825      	ldr	r5, [r4, #0]
 8007caa:	1961      	adds	r1, r4, r5
 8007cac:	428b      	cmp	r3, r1
 8007cae:	bf04      	itt	eq
 8007cb0:	6819      	ldreq	r1, [r3, #0]
 8007cb2:	685b      	ldreq	r3, [r3, #4]
 8007cb4:	6063      	str	r3, [r4, #4]
 8007cb6:	bf04      	itt	eq
 8007cb8:	1949      	addeq	r1, r1, r5
 8007cba:	6021      	streq	r1, [r4, #0]
 8007cbc:	6054      	str	r4, [r2, #4]
 8007cbe:	e7ca      	b.n	8007c56 <_free_r+0x26>
 8007cc0:	b003      	add	sp, #12
 8007cc2:	bd30      	pop	{r4, r5, pc}
 8007cc4:	20000654 	.word	0x20000654

08007cc8 <__ssputs_r>:
 8007cc8:	e92d 47f0 	stmdb	sp!, {r4, r5, r6, r7, r8, r9, sl, lr}
 8007ccc:	688e      	ldr	r6, [r1, #8]
 8007cce:	429e      	cmp	r6, r3
 8007cd0:	4682      	mov	sl, r0
 8007cd2:	460c      	mov	r4, r1
 8007cd4:	4690      	mov	r8, r2
 8007cd6:	461f      	mov	r7, r3
 8007cd8:	d838      	bhi.n	8007d4c <__ssputs_r+0x84>
 8007cda:	898a      	ldrh	r2, [r1, #12]
 8007cdc:	f412 6f90 	tst.w	r2, #1152	; 0x480
 8007ce0:	d032      	beq.n	8007d48 <__ssputs_r+0x80>
 8007ce2:	6825      	ldr	r5, [r4, #0]
 8007ce4:	6909      	ldr	r1, [r1, #16]
 8007ce6:	eba5 0901 	sub.w	r9, r5, r1
 8007cea:	6965      	ldr	r5, [r4, #20]
 8007cec:	eb05 0545 	add.w	r5, r5, r5, lsl #1
 8007cf0:	eb05 75d5 	add.w	r5, r5, r5, lsr #31
 8007cf4:	3301      	adds	r3, #1
 8007cf6:	444b      	add	r3, r9
 8007cf8:	106d      	asrs	r5, r5, #1
 8007cfa:	429d      	cmp	r5, r3
 8007cfc:	bf38      	it	cc
 8007cfe:	461d      	movcc	r5, r3
 8007d00:	0553      	lsls	r3, r2, #21
 8007d02:	d531      	bpl.n	8007d68 <__ssputs_r+0xa0>
 8007d04:	4629      	mov	r1, r5
 8007d06:	f7fd fdb3 	bl	8005870 <_malloc_r>
 8007d0a:	4606      	mov	r6, r0
 8007d0c:	b950      	cbnz	r0, 8007d24 <__ssputs_r+0x5c>
 8007d0e:	230c      	movs	r3, #12
 8007d10:	f8ca 3000 	str.w	r3, [sl]
 8007d14:	89a3      	ldrh	r3, [r4, #12]
 8007d16:	f043 0340 	orr.w	r3, r3, #64	; 0x40
 8007d1a:	81a3      	strh	r3, [r4, #12]
 8007d1c:	f04f 30ff 	mov.w	r0, #4294967295
 8007d20:	e8bd 87f0 	ldmia.w	sp!, {r4, r5, r6, r7, r8, r9, sl, pc}
 8007d24:	6921      	ldr	r1, [r4, #16]
 8007d26:	464a      	mov	r2, r9
 8007d28:	f7fd fd6b 	bl	8005802 <memcpy>
 8007d2c:	89a3      	ldrh	r3, [r4, #12]
 8007d2e:	f423 6390 	bic.w	r3, r3, #1152	; 0x480
 8007d32:	f043 0380 	orr.w	r3, r3, #128	; 0x80
 8007d36:	81a3      	strh	r3, [r4, #12]
 8007d38:	6126      	str	r6, [r4, #16]
 8007d3a:	6165      	str	r5, [r4, #20]
 8007d3c:	444e      	add	r6, r9
 8007d3e:	eba5 0509 	sub.w	r5, r5, r9
 8007d42:	6026      	str	r6, [r4, #0]
 8007d44:	60a5      	str	r5, [r4, #8]
 8007d46:	463e      	mov	r6, r7
 8007d48:	42be      	cmp	r6, r7
 8007d4a:	d900      	bls.n	8007d4e <__ssputs_r+0x86>
 8007d4c:	463e      	mov	r6, r7
 8007d4e:	6820      	ldr	r0, [r4, #0]
 8007d50:	4632      	mov	r2, r6
 8007d52:	4641      	mov	r1, r8
 8007d54:	f000 fabc 	bl	80082d0 <memmove>
 8007d58:	68a3      	ldr	r3, [r4, #8]
 8007d5a:	1b9b      	subs	r3, r3, r6
 8007d5c:	60a3      	str	r3, [r4, #8]
 8007d5e:	6823      	ldr	r3, [r4, #0]
 8007d60:	4433      	add	r3, r6
 8007d62:	6023      	str	r3, [r4, #0]
 8007d64:	2000      	movs	r0, #0
 8007d66:	e7db      	b.n	8007d20 <__ssputs_r+0x58>
 8007d68:	462a      	mov	r2, r5
 8007d6a:	f000 facb 	bl	8008304 <_realloc_r>
 8007d6e:	4606      	mov	r6, r0
 8007d70:	2800      	cmp	r0, #0
 8007d72:	d1e1      	bne.n	8007d38 <__ssputs_r+0x70>
 8007d74:	6921      	ldr	r1, [r4, #16]
 8007d76:	4650      	mov	r0, sl
 8007d78:	f7ff ff5a 	bl	8007c30 <_free_r>
 8007d7c:	e7c7      	b.n	8007d0e <__ssputs_r+0x46>
	...

08007d80 <_svfiprintf_r>:
 8007d80:	e92d 4ff0 	stmdb	sp!, {r4, r5, r6, r7, r8, r9, sl, fp, lr}
 8007d84:	4698      	mov	r8, r3
 8007d86:	898b      	ldrh	r3, [r1, #12]
 8007d88:	061b      	lsls	r3, r3, #24
 8007d8a:	b09d      	sub	sp, #116	; 0x74
 8007d8c:	4607      	mov	r7, r0
 8007d8e:	460d      	mov	r5, r1
 8007d90:	4614      	mov	r4, r2
 8007d92:	d50e      	bpl.n	8007db2 <_svfiprintf_r+0x32>
 8007d94:	690b      	ldr	r3, [r1, #16]
 8007d96:	b963      	cbnz	r3, 8007db2 <_svfiprintf_r+0x32>
 8007d98:	2140      	movs	r1, #64	; 0x40
 8007d9a:	f7fd fd69 	bl	8005870 <_malloc_r>
 8007d9e:	6028      	str	r0, [r5, #0]
 8007da0:	6128      	str	r0, [r5, #16]
 8007da2:	b920      	cbnz	r0, 8007dae <_svfiprintf_r+0x2e>
 8007da4:	230c      	movs	r3, #12
 8007da6:	603b      	str	r3, [r7, #0]
 8007da8:	f04f 30ff 	mov.w	r0, #4294967295
 8007dac:	e0d1      	b.n	8007f52 <_svfiprintf_r+0x1d2>
 8007dae:	2340      	movs	r3, #64	; 0x40
 8007db0:	616b      	str	r3, [r5, #20]
 8007db2:	2300      	movs	r3, #0
 8007db4:	9309      	str	r3, [sp, #36]	; 0x24
 8007db6:	2320      	movs	r3, #32
 8007db8:	f88d 3029 	strb.w	r3, [sp, #41]	; 0x29
 8007dbc:	f8cd 800c 	str.w	r8, [sp, #12]
 8007dc0:	2330      	movs	r3, #48	; 0x30
 8007dc2:	f8df 81a8 	ldr.w	r8, [pc, #424]	; 8007f6c <_svfiprintf_r+0x1ec>
 8007dc6:	f88d 302a 	strb.w	r3, [sp, #42]	; 0x2a
 8007dca:	f04f 0901 	mov.w	r9, #1
 8007dce:	4623      	mov	r3, r4
 8007dd0:	469a      	mov	sl, r3
 8007dd2:	f813 2b01 	ldrb.w	r2, [r3], #1
 8007dd6:	b10a      	cbz	r2, 8007ddc <_svfiprintf_r+0x5c>
 8007dd8:	2a25      	cmp	r2, #37	; 0x25
 8007dda:	d1f9      	bne.n	8007dd0 <_svfiprintf_r+0x50>
 8007ddc:	ebba 0b04 	subs.w	fp, sl, r4
 8007de0:	d00b      	beq.n	8007dfa <_svfiprintf_r+0x7a>
 8007de2:	465b      	mov	r3, fp
 8007de4:	4622      	mov	r2, r4
 8007de6:	4629      	mov	r1, r5
 8007de8:	4638      	mov	r0, r7
 8007dea:	f7ff ff6d 	bl	8007cc8 <__ssputs_r>
 8007dee:	3001      	adds	r0, #1
 8007df0:	f000 80aa 	beq.w	8007f48 <_svfiprintf_r+0x1c8>
 8007df4:	9a09      	ldr	r2, [sp, #36]	; 0x24
 8007df6:	445a      	add	r2, fp
 8007df8:	9209      	str	r2, [sp, #36]	; 0x24
 8007dfa:	f89a 3000 	ldrb.w	r3, [sl]
 8007dfe:	2b00      	cmp	r3, #0
 8007e00:	f000 80a2 	beq.w	8007f48 <_svfiprintf_r+0x1c8>
 8007e04:	2300      	movs	r3, #0
 8007e06:	f04f 32ff 	mov.w	r2, #4294967295
 8007e0a:	e9cd 2305 	strd	r2, r3, [sp, #20]
 8007e0e:	f10a 0a01 	add.w	sl, sl, #1
 8007e12:	9304      	str	r3, [sp, #16]
 8007e14:	9307      	str	r3, [sp, #28]
 8007e16:	f88d 3053 	strb.w	r3, [sp, #83]	; 0x53
 8007e1a:	931a      	str	r3, [sp, #104]	; 0x68
 8007e1c:	4654      	mov	r4, sl
 8007e1e:	2205      	movs	r2, #5
 8007e20:	f814 1b01 	ldrb.w	r1, [r4], #1
 8007e24:	4851      	ldr	r0, [pc, #324]	; (8007f6c <_svfiprintf_r+0x1ec>)
 8007e26:	f7f8 f9db 	bl	80001e0 <memchr>
 8007e2a:	9a04      	ldr	r2, [sp, #16]
 8007e2c:	b9d8      	cbnz	r0, 8007e66 <_svfiprintf_r+0xe6>
 8007e2e:	06d0      	lsls	r0, r2, #27
 8007e30:	bf44      	itt	mi
 8007e32:	2320      	movmi	r3, #32
 8007e34:	f88d 3053 	strbmi.w	r3, [sp, #83]	; 0x53
 8007e38:	0711      	lsls	r1, r2, #28
 8007e3a:	bf44      	itt	mi
 8007e3c:	232b      	movmi	r3, #43	; 0x2b
 8007e3e:	f88d 3053 	strbmi.w	r3, [sp, #83]	; 0x53
 8007e42:	f89a 3000 	ldrb.w	r3, [sl]
 8007e46:	2b2a      	cmp	r3, #42	; 0x2a
 8007e48:	d015      	beq.n	8007e76 <_svfiprintf_r+0xf6>
 8007e4a:	9a07      	ldr	r2, [sp, #28]
 8007e4c:	4654      	mov	r4, sl
 8007e4e:	2000      	movs	r0, #0
 8007e50:	f04f 0c0a 	mov.w	ip, #10
 8007e54:	4621      	mov	r1, r4
 8007e56:	f811 3b01 	ldrb.w	r3, [r1], #1
 8007e5a:	3b30      	subs	r3, #48	; 0x30
 8007e5c:	2b09      	cmp	r3, #9
 8007e5e:	d94e      	bls.n	8007efe <_svfiprintf_r+0x17e>
 8007e60:	b1b0      	cbz	r0, 8007e90 <_svfiprintf_r+0x110>
 8007e62:	9207      	str	r2, [sp, #28]
 8007e64:	e014      	b.n	8007e90 <_svfiprintf_r+0x110>
 8007e66:	eba0 0308 	sub.w	r3, r0, r8
 8007e6a:	fa09 f303 	lsl.w	r3, r9, r3
 8007e6e:	4313      	orrs	r3, r2
 8007e70:	9304      	str	r3, [sp, #16]
 8007e72:	46a2      	mov	sl, r4
 8007e74:	e7d2      	b.n	8007e1c <_svfiprintf_r+0x9c>
 8007e76:	9b03      	ldr	r3, [sp, #12]
 8007e78:	1d19      	adds	r1, r3, #4
 8007e7a:	681b      	ldr	r3, [r3, #0]
 8007e7c:	9103      	str	r1, [sp, #12]
 8007e7e:	2b00      	cmp	r3, #0
 8007e80:	bfbb      	ittet	lt
 8007e82:	425b      	neglt	r3, r3
 8007e84:	f042 0202 	orrlt.w	r2, r2, #2
 8007e88:	9307      	strge	r3, [sp, #28]
 8007e8a:	9307      	strlt	r3, [sp, #28]
 8007e8c:	bfb8      	it	lt
 8007e8e:	9204      	strlt	r2, [sp, #16]
 8007e90:	7823      	ldrb	r3, [r4, #0]
 8007e92:	2b2e      	cmp	r3, #46	; 0x2e
 8007e94:	d10c      	bne.n	8007eb0 <_svfiprintf_r+0x130>
 8007e96:	7863      	ldrb	r3, [r4, #1]
 8007e98:	2b2a      	cmp	r3, #42	; 0x2a
 8007e9a:	d135      	bne.n	8007f08 <_svfiprintf_r+0x188>
 8007e9c:	9b03      	ldr	r3, [sp, #12]
 8007e9e:	1d1a      	adds	r2, r3, #4
 8007ea0:	681b      	ldr	r3, [r3, #0]
 8007ea2:	9203      	str	r2, [sp, #12]
 8007ea4:	2b00      	cmp	r3, #0
 8007ea6:	bfb8      	it	lt
 8007ea8:	f04f 33ff 	movlt.w	r3, #4294967295
 8007eac:	3402      	adds	r4, #2
 8007eae:	9305      	str	r3, [sp, #20]
 8007eb0:	f8df a0c8 	ldr.w	sl, [pc, #200]	; 8007f7c <_svfiprintf_r+0x1fc>
 8007eb4:	7821      	ldrb	r1, [r4, #0]
 8007eb6:	2203      	movs	r2, #3
 8007eb8:	4650      	mov	r0, sl
 8007eba:	f7f8 f991 	bl	80001e0 <memchr>
 8007ebe:	b140      	cbz	r0, 8007ed2 <_svfiprintf_r+0x152>
 8007ec0:	2340      	movs	r3, #64	; 0x40
 8007ec2:	eba0 000a 	sub.w	r0, r0, sl
 8007ec6:	fa03 f000 	lsl.w	r0, r3, r0
 8007eca:	9b04      	ldr	r3, [sp, #16]
 8007ecc:	4303      	orrs	r3, r0
 8007ece:	3401      	adds	r4, #1
 8007ed0:	9304      	str	r3, [sp, #16]
 8007ed2:	f814 1b01 	ldrb.w	r1, [r4], #1
 8007ed6:	4826      	ldr	r0, [pc, #152]	; (8007f70 <_svfiprintf_r+0x1f0>)
 8007ed8:	f88d 1028 	strb.w	r1, [sp, #40]	; 0x28
 8007edc:	2206      	movs	r2, #6
 8007ede:	f7f8 f97f 	bl	80001e0 <memchr>
 8007ee2:	2800      	cmp	r0, #0
 8007ee4:	d038      	beq.n	8007f58 <_svfiprintf_r+0x1d8>
 8007ee6:	4b23      	ldr	r3, [pc, #140]	; (8007f74 <_svfiprintf_r+0x1f4>)
 8007ee8:	bb1b      	cbnz	r3, 8007f32 <_svfiprintf_r+0x1b2>
 8007eea:	9b03      	ldr	r3, [sp, #12]
 8007eec:	3307      	adds	r3, #7
 8007eee:	f023 0307 	bic.w	r3, r3, #7
 8007ef2:	3308      	adds	r3, #8
 8007ef4:	9303      	str	r3, [sp, #12]
 8007ef6:	9b09      	ldr	r3, [sp, #36]	; 0x24
 8007ef8:	4433      	add	r3, r6
 8007efa:	9309      	str	r3, [sp, #36]	; 0x24
 8007efc:	e767      	b.n	8007dce <_svfiprintf_r+0x4e>
 8007efe:	fb0c 3202 	mla	r2, ip, r2, r3
 8007f02:	460c      	mov	r4, r1
 8007f04:	2001      	movs	r0, #1
 8007f06:	e7a5      	b.n	8007e54 <_svfiprintf_r+0xd4>
 8007f08:	2300      	movs	r3, #0
 8007f0a:	3401      	adds	r4, #1
 8007f0c:	9305      	str	r3, [sp, #20]
 8007f0e:	4619      	mov	r1, r3
 8007f10:	f04f 0c0a 	mov.w	ip, #10
 8007f14:	4620      	mov	r0, r4
 8007f16:	f810 2b01 	ldrb.w	r2, [r0], #1
 8007f1a:	3a30      	subs	r2, #48	; 0x30
 8007f1c:	2a09      	cmp	r2, #9
 8007f1e:	d903      	bls.n	8007f28 <_svfiprintf_r+0x1a8>
 8007f20:	2b00      	cmp	r3, #0
 8007f22:	d0c5      	beq.n	8007eb0 <_svfiprintf_r+0x130>
 8007f24:	9105      	str	r1, [sp, #20]
 8007f26:	e7c3      	b.n	8007eb0 <_svfiprintf_r+0x130>
 8007f28:	fb0c 2101 	mla	r1, ip, r1, r2
 8007f2c:	4604      	mov	r4, r0
 8007f2e:	2301      	movs	r3, #1
 8007f30:	e7f0      	b.n	8007f14 <_svfiprintf_r+0x194>
 8007f32:	ab03      	add	r3, sp, #12
 8007f34:	9300      	str	r3, [sp, #0]
 8007f36:	462a      	mov	r2, r5
 8007f38:	4b0f      	ldr	r3, [pc, #60]	; (8007f78 <_svfiprintf_r+0x1f8>)
 8007f3a:	a904      	add	r1, sp, #16
 8007f3c:	4638      	mov	r0, r7
 8007f3e:	f7fd fdab 	bl	8005a98 <_printf_float>
 8007f42:	1c42      	adds	r2, r0, #1
 8007f44:	4606      	mov	r6, r0
 8007f46:	d1d6      	bne.n	8007ef6 <_svfiprintf_r+0x176>
 8007f48:	89ab      	ldrh	r3, [r5, #12]
 8007f4a:	065b      	lsls	r3, r3, #25
 8007f4c:	f53f af2c 	bmi.w	8007da8 <_svfiprintf_r+0x28>
 8007f50:	9809      	ldr	r0, [sp, #36]	; 0x24
 8007f52:	b01d      	add	sp, #116	; 0x74
 8007f54:	e8bd 8ff0 	ldmia.w	sp!, {r4, r5, r6, r7, r8, r9, sl, fp, pc}
 8007f58:	ab03      	add	r3, sp, #12
 8007f5a:	9300      	str	r3, [sp, #0]
 8007f5c:	462a      	mov	r2, r5
 8007f5e:	4b06      	ldr	r3, [pc, #24]	; (8007f78 <_svfiprintf_r+0x1f8>)
 8007f60:	a904      	add	r1, sp, #16
 8007f62:	4638      	mov	r0, r7
 8007f64:	f7fe f83c 	bl	8005fe0 <_printf_i>
 8007f68:	e7eb      	b.n	8007f42 <_svfiprintf_r+0x1c2>
 8007f6a:	bf00      	nop
 8007f6c:	0800895c 	.word	0x0800895c
 8007f70:	08008966 	.word	0x08008966
 8007f74:	08005a99 	.word	0x08005a99
 8007f78:	08007cc9 	.word	0x08007cc9
 8007f7c:	08008962 	.word	0x08008962

08007f80 <__sfputc_r>:
 8007f80:	6893      	ldr	r3, [r2, #8]
 8007f82:	3b01      	subs	r3, #1
 8007f84:	2b00      	cmp	r3, #0
 8007f86:	b410      	push	{r4}
 8007f88:	6093      	str	r3, [r2, #8]
 8007f8a:	da08      	bge.n	8007f9e <__sfputc_r+0x1e>
 8007f8c:	6994      	ldr	r4, [r2, #24]
 8007f8e:	42a3      	cmp	r3, r4
 8007f90:	db01      	blt.n	8007f96 <__sfputc_r+0x16>
 8007f92:	290a      	cmp	r1, #10
 8007f94:	d103      	bne.n	8007f9e <__sfputc_r+0x1e>
 8007f96:	f85d 4b04 	ldr.w	r4, [sp], #4
 8007f9a:	f7fe b9cf 	b.w	800633c <__swbuf_r>
 8007f9e:	6813      	ldr	r3, [r2, #0]
 8007fa0:	1c58      	adds	r0, r3, #1
 8007fa2:	6010      	str	r0, [r2, #0]
 8007fa4:	7019      	strb	r1, [r3, #0]
 8007fa6:	4608      	mov	r0, r1
 8007fa8:	f85d 4b04 	ldr.w	r4, [sp], #4
 8007fac:	4770      	bx	lr

08007fae <__sfputs_r>:
 8007fae:	b5f8      	push	{r3, r4, r5, r6, r7, lr}
 8007fb0:	4606      	mov	r6, r0
 8007fb2:	460f      	mov	r7, r1
 8007fb4:	4614      	mov	r4, r2
 8007fb6:	18d5      	adds	r5, r2, r3
 8007fb8:	42ac      	cmp	r4, r5
 8007fba:	d101      	bne.n	8007fc0 <__sfputs_r+0x12>
 8007fbc:	2000      	movs	r0, #0
 8007fbe:	e007      	b.n	8007fd0 <__sfputs_r+0x22>
 8007fc0:	f814 1b01 	ldrb.w	r1, [r4], #1
 8007fc4:	463a      	mov	r2, r7
 8007fc6:	4630      	mov	r0, r6
 8007fc8:	f7ff ffda 	bl	8007f80 <__sfputc_r>
 8007fcc:	1c43      	adds	r3, r0, #1
 8007fce:	d1f3      	bne.n	8007fb8 <__sfputs_r+0xa>
 8007fd0:	bdf8      	pop	{r3, r4, r5, r6, r7, pc}
	...

08007fd4 <_vfiprintf_r>:
 8007fd4:	e92d 4ff0 	stmdb	sp!, {r4, r5, r6, r7, r8, r9, sl, fp, lr}
 8007fd8:	460d      	mov	r5, r1
 8007fda:	b09d      	sub	sp, #116	; 0x74
 8007fdc:	4614      	mov	r4, r2
 8007fde:	4698      	mov	r8, r3
 8007fe0:	4606      	mov	r6, r0
 8007fe2:	b118      	cbz	r0, 8007fec <_vfiprintf_r+0x18>
 8007fe4:	6983      	ldr	r3, [r0, #24]
 8007fe6:	b90b      	cbnz	r3, 8007fec <_vfiprintf_r+0x18>
 8007fe8:	f7fd fb46 	bl	8005678 <__sinit>
 8007fec:	4b89      	ldr	r3, [pc, #548]	; (8008214 <_vfiprintf_r+0x240>)
 8007fee:	429d      	cmp	r5, r3
 8007ff0:	d11b      	bne.n	800802a <_vfiprintf_r+0x56>
 8007ff2:	6875      	ldr	r5, [r6, #4]
 8007ff4:	6e6b      	ldr	r3, [r5, #100]	; 0x64
 8007ff6:	07d9      	lsls	r1, r3, #31
 8007ff8:	d405      	bmi.n	8008006 <_vfiprintf_r+0x32>
 8007ffa:	89ab      	ldrh	r3, [r5, #12]
 8007ffc:	059a      	lsls	r2, r3, #22
 8007ffe:	d402      	bmi.n	8008006 <_vfiprintf_r+0x32>
 8008000:	6da8      	ldr	r0, [r5, #88]	; 0x58
 8008002:	f7fd fbfc 	bl	80057fe <__retarget_lock_acquire_recursive>
 8008006:	89ab      	ldrh	r3, [r5, #12]
 8008008:	071b      	lsls	r3, r3, #28
 800800a:	d501      	bpl.n	8008010 <_vfiprintf_r+0x3c>
 800800c:	692b      	ldr	r3, [r5, #16]
 800800e:	b9eb      	cbnz	r3, 800804c <_vfiprintf_r+0x78>
 8008010:	4629      	mov	r1, r5
 8008012:	4630      	mov	r0, r6
 8008014:	f7fe f9f6 	bl	8006404 <__swsetup_r>
 8008018:	b1c0      	cbz	r0, 800804c <_vfiprintf_r+0x78>
 800801a:	6e6b      	ldr	r3, [r5, #100]	; 0x64
 800801c:	07dc      	lsls	r4, r3, #31
 800801e:	d50e      	bpl.n	800803e <_vfiprintf_r+0x6a>
 8008020:	f04f 30ff 	mov.w	r0, #4294967295
 8008024:	b01d      	add	sp, #116	; 0x74
 8008026:	e8bd 8ff0 	ldmia.w	sp!, {r4, r5, r6, r7, r8, r9, sl, fp, pc}
 800802a:	4b7b      	ldr	r3, [pc, #492]	; (8008218 <_vfiprintf_r+0x244>)
 800802c:	429d      	cmp	r5, r3
 800802e:	d101      	bne.n	8008034 <_vfiprintf_r+0x60>
 8008030:	68b5      	ldr	r5, [r6, #8]
 8008032:	e7df      	b.n	8007ff4 <_vfiprintf_r+0x20>
 8008034:	4b79      	ldr	r3, [pc, #484]	; (800821c <_vfiprintf_r+0x248>)
 8008036:	429d      	cmp	r5, r3
 8008038:	bf08      	it	eq
 800803a:	68f5      	ldreq	r5, [r6, #12]
 800803c:	e7da      	b.n	8007ff4 <_vfiprintf_r+0x20>
 800803e:	89ab      	ldrh	r3, [r5, #12]
 8008040:	0598      	lsls	r0, r3, #22
 8008042:	d4ed      	bmi.n	8008020 <_vfiprintf_r+0x4c>
 8008044:	6da8      	ldr	r0, [r5, #88]	; 0x58
 8008046:	f7fd fbdb 	bl	8005800 <__retarget_lock_release_recursive>
 800804a:	e7e9      	b.n	8008020 <_vfiprintf_r+0x4c>
 800804c:	2300      	movs	r3, #0
 800804e:	9309      	str	r3, [sp, #36]	; 0x24
 8008050:	2320      	movs	r3, #32
 8008052:	f88d 3029 	strb.w	r3, [sp, #41]	; 0x29
 8008056:	f8cd 800c 	str.w	r8, [sp, #12]
 800805a:	2330      	movs	r3, #48	; 0x30
 800805c:	f8df 81c0 	ldr.w	r8, [pc, #448]	; 8008220 <_vfiprintf_r+0x24c>
 8008060:	f88d 302a 	strb.w	r3, [sp, #42]	; 0x2a
 8008064:	f04f 0901 	mov.w	r9, #1
 8008068:	4623      	mov	r3, r4
 800806a:	469a      	mov	sl, r3
 800806c:	f813 2b01 	ldrb.w	r2, [r3], #1
 8008070:	b10a      	cbz	r2, 8008076 <_vfiprintf_r+0xa2>
 8008072:	2a25      	cmp	r2, #37	; 0x25
 8008074:	d1f9      	bne.n	800806a <_vfiprintf_r+0x96>
 8008076:	ebba 0b04 	subs.w	fp, sl, r4
 800807a:	d00b      	beq.n	8008094 <_vfiprintf_r+0xc0>
 800807c:	465b      	mov	r3, fp
 800807e:	4622      	mov	r2, r4
 8008080:	4629      	mov	r1, r5
 8008082:	4630      	mov	r0, r6
 8008084:	f7ff ff93 	bl	8007fae <__sfputs_r>
 8008088:	3001      	adds	r0, #1
 800808a:	f000 80aa 	beq.w	80081e2 <_vfiprintf_r+0x20e>
 800808e:	9a09      	ldr	r2, [sp, #36]	; 0x24
 8008090:	445a      	add	r2, fp
 8008092:	9209      	str	r2, [sp, #36]	; 0x24
 8008094:	f89a 3000 	ldrb.w	r3, [sl]
 8008098:	2b00      	cmp	r3, #0
 800809a:	f000 80a2 	beq.w	80081e2 <_vfiprintf_r+0x20e>
 800809e:	2300      	movs	r3, #0
 80080a0:	f04f 32ff 	mov.w	r2, #4294967295
 80080a4:	e9cd 2305 	strd	r2, r3, [sp, #20]
 80080a8:	f10a 0a01 	add.w	sl, sl, #1
 80080ac:	9304      	str	r3, [sp, #16]
 80080ae:	9307      	str	r3, [sp, #28]
 80080b0:	f88d 3053 	strb.w	r3, [sp, #83]	; 0x53
 80080b4:	931a      	str	r3, [sp, #104]	; 0x68
 80080b6:	4654      	mov	r4, sl
 80080b8:	2205      	movs	r2, #5
 80080ba:	f814 1b01 	ldrb.w	r1, [r4], #1
 80080be:	4858      	ldr	r0, [pc, #352]	; (8008220 <_vfiprintf_r+0x24c>)
 80080c0:	f7f8 f88e 	bl	80001e0 <memchr>
 80080c4:	9a04      	ldr	r2, [sp, #16]
 80080c6:	b9d8      	cbnz	r0, 8008100 <_vfiprintf_r+0x12c>
 80080c8:	06d1      	lsls	r1, r2, #27
 80080ca:	bf44      	itt	mi
 80080cc:	2320      	movmi	r3, #32
 80080ce:	f88d 3053 	strbmi.w	r3, [sp, #83]	; 0x53
 80080d2:	0713      	lsls	r3, r2, #28
 80080d4:	bf44      	itt	mi
 80080d6:	232b      	movmi	r3, #43	; 0x2b
 80080d8:	f88d 3053 	strbmi.w	r3, [sp, #83]	; 0x53
 80080dc:	f89a 3000 	ldrb.w	r3, [sl]
 80080e0:	2b2a      	cmp	r3, #42	; 0x2a
 80080e2:	d015      	beq.n	8008110 <_vfiprintf_r+0x13c>
 80080e4:	9a07      	ldr	r2, [sp, #28]
 80080e6:	4654      	mov	r4, sl
 80080e8:	2000      	movs	r0, #0
 80080ea:	f04f 0c0a 	mov.w	ip, #10
 80080ee:	4621      	mov	r1, r4
 80080f0:	f811 3b01 	ldrb.w	r3, [r1], #1
 80080f4:	3b30      	subs	r3, #48	; 0x30
 80080f6:	2b09      	cmp	r3, #9
 80080f8:	d94e      	bls.n	8008198 <_vfiprintf_r+0x1c4>
 80080fa:	b1b0      	cbz	r0, 800812a <_vfiprintf_r+0x156>
 80080fc:	9207      	str	r2, [sp, #28]
 80080fe:	e014      	b.n	800812a <_vfiprintf_r+0x156>
 8008100:	eba0 0308 	sub.w	r3, r0, r8
 8008104:	fa09 f303 	lsl.w	r3, r9, r3
 8008108:	4313      	orrs	r3, r2
 800810a:	9304      	str	r3, [sp, #16]
 800810c:	46a2      	mov	sl, r4
 800810e:	e7d2      	b.n	80080b6 <_vfiprintf_r+0xe2>
 8008110:	9b03      	ldr	r3, [sp, #12]
 8008112:	1d19      	adds	r1, r3, #4
 8008114:	681b      	ldr	r3, [r3, #0]
 8008116:	9103      	str	r1, [sp, #12]
 8008118:	2b00      	cmp	r3, #0
 800811a:	bfbb      	ittet	lt
 800811c:	425b      	neglt	r3, r3
 800811e:	f042 0202 	orrlt.w	r2, r2, #2
 8008122:	9307      	strge	r3, [sp, #28]
 8008124:	9307      	strlt	r3, [sp, #28]
 8008126:	bfb8      	it	lt
 8008128:	9204      	strlt	r2, [sp, #16]
 800812a:	7823      	ldrb	r3, [r4, #0]
 800812c:	2b2e      	cmp	r3, #46	; 0x2e
 800812e:	d10c      	bne.n	800814a <_vfiprintf_r+0x176>
 8008130:	7863      	ldrb	r3, [r4, #1]
 8008132:	2b2a      	cmp	r3, #42	; 0x2a
 8008134:	d135      	bne.n	80081a2 <_vfiprintf_r+0x1ce>
 8008136:	9b03      	ldr	r3, [sp, #12]
 8008138:	1d1a      	adds	r2, r3, #4
 800813a:	681b      	ldr	r3, [r3, #0]
 800813c:	9203      	str	r2, [sp, #12]
 800813e:	2b00      	cmp	r3, #0
 8008140:	bfb8      	it	lt
 8008142:	f04f 33ff 	movlt.w	r3, #4294967295
 8008146:	3402      	adds	r4, #2
 8008148:	9305      	str	r3, [sp, #20]
 800814a:	f8df a0e4 	ldr.w	sl, [pc, #228]	; 8008230 <_vfiprintf_r+0x25c>
 800814e:	7821      	ldrb	r1, [r4, #0]
 8008150:	2203      	movs	r2, #3
 8008152:	4650      	mov	r0, sl
 8008154:	f7f8 f844 	bl	80001e0 <memchr>
 8008158:	b140      	cbz	r0, 800816c <_vfiprintf_r+0x198>
 800815a:	2340      	movs	r3, #64	; 0x40
 800815c:	eba0 000a 	sub.w	r0, r0, sl
 8008160:	fa03 f000 	lsl.w	r0, r3, r0
 8008164:	9b04      	ldr	r3, [sp, #16]
 8008166:	4303      	orrs	r3, r0
 8008168:	3401      	adds	r4, #1
 800816a:	9304      	str	r3, [sp, #16]
 800816c:	f814 1b01 	ldrb.w	r1, [r4], #1
 8008170:	482c      	ldr	r0, [pc, #176]	; (8008224 <_vfiprintf_r+0x250>)
 8008172:	f88d 1028 	strb.w	r1, [sp, #40]	; 0x28
 8008176:	2206      	movs	r2, #6
 8008178:	f7f8 f832 	bl	80001e0 <memchr>
 800817c:	2800      	cmp	r0, #0
 800817e:	d03f      	beq.n	8008200 <_vfiprintf_r+0x22c>
 8008180:	4b29      	ldr	r3, [pc, #164]	; (8008228 <_vfiprintf_r+0x254>)
 8008182:	bb1b      	cbnz	r3, 80081cc <_vfiprintf_r+0x1f8>
 8008184:	9b03      	ldr	r3, [sp, #12]
 8008186:	3307      	adds	r3, #7
 8008188:	f023 0307 	bic.w	r3, r3, #7
 800818c:	3308      	adds	r3, #8
 800818e:	9303      	str	r3, [sp, #12]
 8008190:	9b09      	ldr	r3, [sp, #36]	; 0x24
 8008192:	443b      	add	r3, r7
 8008194:	9309      	str	r3, [sp, #36]	; 0x24
 8008196:	e767      	b.n	8008068 <_vfiprintf_r+0x94>
 8008198:	fb0c 3202 	mla	r2, ip, r2, r3
 800819c:	460c      	mov	r4, r1
 800819e:	2001      	movs	r0, #1
 80081a0:	e7a5      	b.n	80080ee <_vfiprintf_r+0x11a>
 80081a2:	2300      	movs	r3, #0
 80081a4:	3401      	adds	r4, #1
 80081a6:	9305      	str	r3, [sp, #20]
 80081a8:	4619      	mov	r1, r3
 80081aa:	f04f 0c0a 	mov.w	ip, #10
 80081ae:	4620      	mov	r0, r4
 80081b0:	f810 2b01 	ldrb.w	r2, [r0], #1
 80081b4:	3a30      	subs	r2, #48	; 0x30
 80081b6:	2a09      	cmp	r2, #9
 80081b8:	d903      	bls.n	80081c2 <_vfiprintf_r+0x1ee>
 80081ba:	2b00      	cmp	r3, #0
 80081bc:	d0c5      	beq.n	800814a <_vfiprintf_r+0x176>
 80081be:	9105      	str	r1, [sp, #20]
 80081c0:	e7c3      	b.n	800814a <_vfiprintf_r+0x176>
 80081c2:	fb0c 2101 	mla	r1, ip, r1, r2
 80081c6:	4604      	mov	r4, r0
 80081c8:	2301      	movs	r3, #1
 80081ca:	e7f0      	b.n	80081ae <_vfiprintf_r+0x1da>
 80081cc:	ab03      	add	r3, sp, #12
 80081ce:	9300      	str	r3, [sp, #0]
 80081d0:	462a      	mov	r2, r5
 80081d2:	4b16      	ldr	r3, [pc, #88]	; (800822c <_vfiprintf_r+0x258>)
 80081d4:	a904      	add	r1, sp, #16
 80081d6:	4630      	mov	r0, r6
 80081d8:	f7fd fc5e 	bl	8005a98 <_printf_float>
 80081dc:	4607      	mov	r7, r0
 80081de:	1c78      	adds	r0, r7, #1
 80081e0:	d1d6      	bne.n	8008190 <_vfiprintf_r+0x1bc>
 80081e2:	6e6b      	ldr	r3, [r5, #100]	; 0x64
 80081e4:	07d9      	lsls	r1, r3, #31
 80081e6:	d405      	bmi.n	80081f4 <_vfiprintf_r+0x220>
 80081e8:	89ab      	ldrh	r3, [r5, #12]
 80081ea:	059a      	lsls	r2, r3, #22
 80081ec:	d402      	bmi.n	80081f4 <_vfiprintf_r+0x220>
 80081ee:	6da8      	ldr	r0, [r5, #88]	; 0x58
 80081f0:	f7fd fb06 	bl	8005800 <__retarget_lock_release_recursive>
 80081f4:	89ab      	ldrh	r3, [r5, #12]
 80081f6:	065b      	lsls	r3, r3, #25
 80081f8:	f53f af12 	bmi.w	8008020 <_vfiprintf_r+0x4c>
 80081fc:	9809      	ldr	r0, [sp, #36]	; 0x24
 80081fe:	e711      	b.n	8008024 <_vfiprintf_r+0x50>
 8008200:	ab03      	add	r3, sp, #12
 8008202:	9300      	str	r3, [sp, #0]
 8008204:	462a      	mov	r2, r5
 8008206:	4b09      	ldr	r3, [pc, #36]	; (800822c <_vfiprintf_r+0x258>)
 8008208:	a904      	add	r1, sp, #16
 800820a:	4630      	mov	r0, r6
 800820c:	f7fd fee8 	bl	8005fe0 <_printf_i>
 8008210:	e7e4      	b.n	80081dc <_vfiprintf_r+0x208>
 8008212:	bf00      	nop
 8008214:	080086c0 	.word	0x080086c0
 8008218:	080086e0 	.word	0x080086e0
 800821c:	080086a0 	.word	0x080086a0
 8008220:	0800895c 	.word	0x0800895c
 8008224:	08008966 	.word	0x08008966
 8008228:	08005a99 	.word	0x08005a99
 800822c:	08007faf 	.word	0x08007faf
 8008230:	08008962 	.word	0x08008962

08008234 <_read_r>:
 8008234:	b538      	push	{r3, r4, r5, lr}
 8008236:	4d07      	ldr	r5, [pc, #28]	; (8008254 <_read_r+0x20>)
 8008238:	4604      	mov	r4, r0
 800823a:	4608      	mov	r0, r1
 800823c:	4611      	mov	r1, r2
 800823e:	2200      	movs	r2, #0
 8008240:	602a      	str	r2, [r5, #0]
 8008242:	461a      	mov	r2, r3
 8008244:	f7fd f8ab 	bl	800539e <_read>
 8008248:	1c43      	adds	r3, r0, #1
 800824a:	d102      	bne.n	8008252 <_read_r+0x1e>
 800824c:	682b      	ldr	r3, [r5, #0]
 800824e:	b103      	cbz	r3, 8008252 <_read_r+0x1e>
 8008250:	6023      	str	r3, [r4, #0]
 8008252:	bd38      	pop	{r3, r4, r5, pc}
 8008254:	2000065c 	.word	0x2000065c

08008258 <abort>:
 8008258:	b508      	push	{r3, lr}
 800825a:	2006      	movs	r0, #6
 800825c:	f000 f8aa 	bl	80083b4 <raise>
 8008260:	2001      	movs	r0, #1
 8008262:	f000 f8e1 	bl	8008428 <_exit>
	...

08008268 <_fstat_r>:
 8008268:	b538      	push	{r3, r4, r5, lr}
 800826a:	4d07      	ldr	r5, [pc, #28]	; (8008288 <_fstat_r+0x20>)
 800826c:	2300      	movs	r3, #0
 800826e:	4604      	mov	r4, r0
 8008270:	4608      	mov	r0, r1
 8008272:	4611      	mov	r1, r2
 8008274:	602b      	str	r3, [r5, #0]
 8008276:	f7fd f976 	bl	8005566 <_fstat>
 800827a:	1c43      	adds	r3, r0, #1
 800827c:	d102      	bne.n	8008284 <_fstat_r+0x1c>
 800827e:	682b      	ldr	r3, [r5, #0]
 8008280:	b103      	cbz	r3, 8008284 <_fstat_r+0x1c>
 8008282:	6023      	str	r3, [r4, #0]
 8008284:	bd38      	pop	{r3, r4, r5, pc}
 8008286:	bf00      	nop
 8008288:	2000065c 	.word	0x2000065c

0800828c <_isatty_r>:
 800828c:	b538      	push	{r3, r4, r5, lr}
 800828e:	4d06      	ldr	r5, [pc, #24]	; (80082a8 <_isatty_r+0x1c>)
 8008290:	2300      	movs	r3, #0
 8008292:	4604      	mov	r4, r0
 8008294:	4608      	mov	r0, r1
 8008296:	602b      	str	r3, [r5, #0]
 8008298:	f7fd f973 	bl	8005582 <_isatty>
 800829c:	1c43      	adds	r3, r0, #1
 800829e:	d102      	bne.n	80082a6 <_isatty_r+0x1a>
 80082a0:	682b      	ldr	r3, [r5, #0]
 80082a2:	b103      	cbz	r3, 80082a6 <_isatty_r+0x1a>
 80082a4:	6023      	str	r3, [r4, #0]
 80082a6:	bd38      	pop	{r3, r4, r5, pc}
 80082a8:	2000065c 	.word	0x2000065c

080082ac <__ascii_mbtowc>:
 80082ac:	b082      	sub	sp, #8
 80082ae:	b901      	cbnz	r1, 80082b2 <__ascii_mbtowc+0x6>
 80082b0:	a901      	add	r1, sp, #4
 80082b2:	b142      	cbz	r2, 80082c6 <__ascii_mbtowc+0x1a>
 80082b4:	b14b      	cbz	r3, 80082ca <__ascii_mbtowc+0x1e>
 80082b6:	7813      	ldrb	r3, [r2, #0]
 80082b8:	600b      	str	r3, [r1, #0]
 80082ba:	7812      	ldrb	r2, [r2, #0]
 80082bc:	1e10      	subs	r0, r2, #0
 80082be:	bf18      	it	ne
 80082c0:	2001      	movne	r0, #1
 80082c2:	b002      	add	sp, #8
 80082c4:	4770      	bx	lr
 80082c6:	4610      	mov	r0, r2
 80082c8:	e7fb      	b.n	80082c2 <__ascii_mbtowc+0x16>
 80082ca:	f06f 0001 	mvn.w	r0, #1
 80082ce:	e7f8      	b.n	80082c2 <__ascii_mbtowc+0x16>

080082d0 <memmove>:
 80082d0:	4288      	cmp	r0, r1
 80082d2:	b510      	push	{r4, lr}
 80082d4:	eb01 0402 	add.w	r4, r1, r2
 80082d8:	d902      	bls.n	80082e0 <memmove+0x10>
 80082da:	4284      	cmp	r4, r0
 80082dc:	4623      	mov	r3, r4
 80082de:	d807      	bhi.n	80082f0 <memmove+0x20>
 80082e0:	1e43      	subs	r3, r0, #1
 80082e2:	42a1      	cmp	r1, r4
 80082e4:	d008      	beq.n	80082f8 <memmove+0x28>
 80082e6:	f811 2b01 	ldrb.w	r2, [r1], #1
 80082ea:	f803 2f01 	strb.w	r2, [r3, #1]!
 80082ee:	e7f8      	b.n	80082e2 <memmove+0x12>
 80082f0:	4402      	add	r2, r0
 80082f2:	4601      	mov	r1, r0
 80082f4:	428a      	cmp	r2, r1
 80082f6:	d100      	bne.n	80082fa <memmove+0x2a>
 80082f8:	bd10      	pop	{r4, pc}
 80082fa:	f813 4d01 	ldrb.w	r4, [r3, #-1]!
 80082fe:	f802 4d01 	strb.w	r4, [r2, #-1]!
 8008302:	e7f7      	b.n	80082f4 <memmove+0x24>

08008304 <_realloc_r>:
 8008304:	e92d 41f0 	stmdb	sp!, {r4, r5, r6, r7, r8, lr}
 8008308:	4680      	mov	r8, r0
 800830a:	4614      	mov	r4, r2
 800830c:	460e      	mov	r6, r1
 800830e:	b921      	cbnz	r1, 800831a <_realloc_r+0x16>
 8008310:	e8bd 41f0 	ldmia.w	sp!, {r4, r5, r6, r7, r8, lr}
 8008314:	4611      	mov	r1, r2
 8008316:	f7fd baab 	b.w	8005870 <_malloc_r>
 800831a:	b92a      	cbnz	r2, 8008328 <_realloc_r+0x24>
 800831c:	f7ff fc88 	bl	8007c30 <_free_r>
 8008320:	4625      	mov	r5, r4
 8008322:	4628      	mov	r0, r5
 8008324:	e8bd 81f0 	ldmia.w	sp!, {r4, r5, r6, r7, r8, pc}
 8008328:	f000 f86d 	bl	8008406 <_malloc_usable_size_r>
 800832c:	4284      	cmp	r4, r0
 800832e:	4607      	mov	r7, r0
 8008330:	d802      	bhi.n	8008338 <_realloc_r+0x34>
 8008332:	ebb4 0f50 	cmp.w	r4, r0, lsr #1
 8008336:	d812      	bhi.n	800835e <_realloc_r+0x5a>
 8008338:	4621      	mov	r1, r4
 800833a:	4640      	mov	r0, r8
 800833c:	f7fd fa98 	bl	8005870 <_malloc_r>
 8008340:	4605      	mov	r5, r0
 8008342:	2800      	cmp	r0, #0
 8008344:	d0ed      	beq.n	8008322 <_realloc_r+0x1e>
 8008346:	42bc      	cmp	r4, r7
 8008348:	4622      	mov	r2, r4
 800834a:	4631      	mov	r1, r6
 800834c:	bf28      	it	cs
 800834e:	463a      	movcs	r2, r7
 8008350:	f7fd fa57 	bl	8005802 <memcpy>
 8008354:	4631      	mov	r1, r6
 8008356:	4640      	mov	r0, r8
 8008358:	f7ff fc6a 	bl	8007c30 <_free_r>
 800835c:	e7e1      	b.n	8008322 <_realloc_r+0x1e>
 800835e:	4635      	mov	r5, r6
 8008360:	e7df      	b.n	8008322 <_realloc_r+0x1e>

08008362 <_raise_r>:
 8008362:	291f      	cmp	r1, #31
 8008364:	b538      	push	{r3, r4, r5, lr}
 8008366:	4604      	mov	r4, r0
 8008368:	460d      	mov	r5, r1
 800836a:	d904      	bls.n	8008376 <_raise_r+0x14>
 800836c:	2316      	movs	r3, #22
 800836e:	6003      	str	r3, [r0, #0]
 8008370:	f04f 30ff 	mov.w	r0, #4294967295
 8008374:	bd38      	pop	{r3, r4, r5, pc}
 8008376:	6c42      	ldr	r2, [r0, #68]	; 0x44
 8008378:	b112      	cbz	r2, 8008380 <_raise_r+0x1e>
 800837a:	f852 3021 	ldr.w	r3, [r2, r1, lsl #2]
 800837e:	b94b      	cbnz	r3, 8008394 <_raise_r+0x32>
 8008380:	4620      	mov	r0, r4
 8008382:	f000 f831 	bl	80083e8 <_getpid_r>
 8008386:	462a      	mov	r2, r5
 8008388:	4601      	mov	r1, r0
 800838a:	4620      	mov	r0, r4
 800838c:	e8bd 4038 	ldmia.w	sp!, {r3, r4, r5, lr}
 8008390:	f000 b818 	b.w	80083c4 <_kill_r>
 8008394:	2b01      	cmp	r3, #1
 8008396:	d00a      	beq.n	80083ae <_raise_r+0x4c>
 8008398:	1c59      	adds	r1, r3, #1
 800839a:	d103      	bne.n	80083a4 <_raise_r+0x42>
 800839c:	2316      	movs	r3, #22
 800839e:	6003      	str	r3, [r0, #0]
 80083a0:	2001      	movs	r0, #1
 80083a2:	e7e7      	b.n	8008374 <_raise_r+0x12>
 80083a4:	2400      	movs	r4, #0
 80083a6:	f842 4025 	str.w	r4, [r2, r5, lsl #2]
 80083aa:	4628      	mov	r0, r5
 80083ac:	4798      	blx	r3
 80083ae:	2000      	movs	r0, #0
 80083b0:	e7e0      	b.n	8008374 <_raise_r+0x12>
	...

080083b4 <raise>:
 80083b4:	4b02      	ldr	r3, [pc, #8]	; (80083c0 <raise+0xc>)
 80083b6:	4601      	mov	r1, r0
 80083b8:	6818      	ldr	r0, [r3, #0]
 80083ba:	f7ff bfd2 	b.w	8008362 <_raise_r>
 80083be:	bf00      	nop
 80083c0:	200000d4 	.word	0x200000d4

080083c4 <_kill_r>:
 80083c4:	b538      	push	{r3, r4, r5, lr}
 80083c6:	4d07      	ldr	r5, [pc, #28]	; (80083e4 <_kill_r+0x20>)
 80083c8:	2300      	movs	r3, #0
 80083ca:	4604      	mov	r4, r0
 80083cc:	4608      	mov	r0, r1
 80083ce:	4611      	mov	r1, r2
 80083d0:	602b      	str	r3, [r5, #0]
 80083d2:	f000 f821 	bl	8008418 <_kill>
 80083d6:	1c43      	adds	r3, r0, #1
 80083d8:	d102      	bne.n	80083e0 <_kill_r+0x1c>
 80083da:	682b      	ldr	r3, [r5, #0]
 80083dc:	b103      	cbz	r3, 80083e0 <_kill_r+0x1c>
 80083de:	6023      	str	r3, [r4, #0]
 80083e0:	bd38      	pop	{r3, r4, r5, pc}
 80083e2:	bf00      	nop
 80083e4:	2000065c 	.word	0x2000065c

080083e8 <_getpid_r>:
 80083e8:	f7fd b89a 	b.w	8005520 <_getpid>

080083ec <__ascii_wctomb>:
 80083ec:	b149      	cbz	r1, 8008402 <__ascii_wctomb+0x16>
 80083ee:	2aff      	cmp	r2, #255	; 0xff
 80083f0:	bf85      	ittet	hi
 80083f2:	238a      	movhi	r3, #138	; 0x8a
 80083f4:	6003      	strhi	r3, [r0, #0]
 80083f6:	700a      	strbls	r2, [r1, #0]
 80083f8:	f04f 30ff 	movhi.w	r0, #4294967295
 80083fc:	bf98      	it	ls
 80083fe:	2001      	movls	r0, #1
 8008400:	4770      	bx	lr
 8008402:	4608      	mov	r0, r1
 8008404:	4770      	bx	lr

08008406 <_malloc_usable_size_r>:
 8008406:	f851 3c04 	ldr.w	r3, [r1, #-4]
 800840a:	1f18      	subs	r0, r3, #4
 800840c:	2b00      	cmp	r3, #0
 800840e:	bfbc      	itt	lt
 8008410:	580b      	ldrlt	r3, [r1, r0]
 8008412:	18c0      	addlt	r0, r0, r3
 8008414:	4770      	bx	lr
	...

08008418 <_kill>:
 8008418:	4b02      	ldr	r3, [pc, #8]	; (8008424 <_kill+0xc>)
 800841a:	2258      	movs	r2, #88	; 0x58
 800841c:	601a      	str	r2, [r3, #0]
 800841e:	f04f 30ff 	mov.w	r0, #4294967295
 8008422:	4770      	bx	lr
 8008424:	2000065c 	.word	0x2000065c

08008428 <_exit>:
 8008428:	e7fe      	b.n	8008428 <_exit>
	...

0800842c <_init>:
 800842c:	b5f8      	push	{r3, r4, r5, r6, r7, lr}
 800842e:	bf00      	nop
 8008430:	bcf8      	pop	{r3, r4, r5, r6, r7}
 8008432:	bc08      	pop	{r3}
 8008434:	469e      	mov	lr, r3
 8008436:	4770      	bx	lr

08008438 <_fini>:
 8008438:	b5f8      	push	{r3, r4, r5, r6, r7, lr}
 800843a:	bf00      	nop
 800843c:	bcf8      	pop	{r3, r4, r5, r6, r7}
 800843e:	bc08      	pop	{r3}
 8008440:	469e      	mov	lr, r3
 8008442:	4770      	bx	lr
